
hello.elf:     file format elf64-littleriscv


Disassembly of section .text:

00000000000100e8 <exit>:
   100e8:	1141                	addi	sp,sp,-16
   100ea:	4581                	li	a1,0
   100ec:	e022                	sd	s0,0(sp)
   100ee:	e406                	sd	ra,8(sp)
   100f0:	842a                	mv	s0,a0
   100f2:	77c000ef          	jal	1086e <__call_exitprocs>
   100f6:	2381b783          	ld	a5,568(gp) # 1ade0 <__stdio_exit_handler>
   100fa:	c391                	beqz	a5,100fe <exit+0x16>
   100fc:	9782                	jalr	a5
   100fe:	8522                	mv	a0,s0
   10100:	542070ef          	jal	17642 <_exit>

0000000000010104 <register_fini>:
   10104:	00000793          	li	a5,0
   10108:	c791                	beqz	a5,10114 <register_fini+0x10>
   1010a:	654d                	lui	a0,0x13
   1010c:	71050513          	addi	a0,a0,1808 # 13710 <__libc_fini_array>
   10110:	0310006f          	j	10940 <atexit>
   10114:	8082                	ret

0000000000010116 <_start>:
   10116:	0000b197          	auipc	gp,0xb
   1011a:	a9218193          	addi	gp,gp,-1390 # 1aba8 <__global_locale>
   1011e:	23818513          	addi	a0,gp,568 # 1ade0 <__stdio_exit_handler>
   10122:	0000b617          	auipc	a2,0xb
   10126:	28660613          	addi	a2,a2,646 # 1b3a8 <__BSS_END__>
   1012a:	8e09                	sub	a2,a2,a0
   1012c:	4581                	li	a1,0
   1012e:	696000ef          	jal	107c4 <memset>
   10132:	00001517          	auipc	a0,0x1
   10136:	80e50513          	addi	a0,a0,-2034 # 10940 <atexit>
   1013a:	c519                	beqz	a0,10148 <_start+0x32>
   1013c:	00003517          	auipc	a0,0x3
   10140:	5d450513          	addi	a0,a0,1492 # 13710 <__libc_fini_array>
   10144:	7fc000ef          	jal	10940 <atexit>
   10148:	612000ef          	jal	1075a <__libc_init_array>
   1014c:	4502                	lw	a0,0(sp)
   1014e:	002c                	addi	a1,sp,8
   10150:	4601                	li	a2,0
   10152:	04e000ef          	jal	101a0 <main>
   10156:	bf49                	j	100e8 <exit>

0000000000010158 <__do_global_dtors_aux>:
   10158:	1141                	addi	sp,sp,-16
   1015a:	e022                	sd	s0,0(sp)
   1015c:	2781c783          	lbu	a5,632(gp) # 1ae20 <completed.1>
   10160:	e406                	sd	ra,8(sp)
   10162:	ef91                	bnez	a5,1017e <__do_global_dtors_aux+0x26>
   10164:	00000793          	li	a5,0
   10168:	cb81                	beqz	a5,10178 <__do_global_dtors_aux+0x20>
   1016a:	6569                	lui	a0,0x1a
   1016c:	20850513          	addi	a0,a0,520 # 1a208 <__EH_FRAME_BEGIN__>
   10170:	00000097          	auipc	ra,0x0
   10174:	000000e7          	jalr	zero # 0 <exit-0x100e8>
   10178:	4785                	li	a5,1
   1017a:	26f18c23          	sb	a5,632(gp) # 1ae20 <completed.1>
   1017e:	60a2                	ld	ra,8(sp)
   10180:	6402                	ld	s0,0(sp)
   10182:	0141                	addi	sp,sp,16
   10184:	8082                	ret

0000000000010186 <frame_dummy>:
   10186:	00000793          	li	a5,0
   1018a:	cb91                	beqz	a5,1019e <frame_dummy+0x18>
   1018c:	6569                	lui	a0,0x1a
   1018e:	28018593          	addi	a1,gp,640 # 1ae28 <object.0>
   10192:	20850513          	addi	a0,a0,520 # 1a208 <__EH_FRAME_BEGIN__>
   10196:	00000317          	auipc	t1,0x0
   1019a:	00000067          	jr	zero # 0 <exit-0x100e8>
   1019e:	8082                	ret

00000000000101a0 <main>:
   101a0:	1101                	addi	sp,sp,-32
   101a2:	ec06                	sd	ra,24(sp)
   101a4:	e822                	sd	s0,16(sp)
   101a6:	1000                	addi	s0,sp,32
   101a8:	87aa                	mv	a5,a0
   101aa:	feb43023          	sd	a1,-32(s0)
   101ae:	fef42623          	sw	a5,-20(s0)
   101b2:	67e5                	lui	a5,0x19
   101b4:	a1078513          	addi	a0,a5,-1520 # 18a10 <__clzdi2+0x3a>
   101b8:	320000ef          	jal	104d8 <printf>
   101bc:	4781                	li	a5,0
   101be:	853e                	mv	a0,a5
   101c0:	60e2                	ld	ra,24(sp)
   101c2:	6442                	ld	s0,16(sp)
   101c4:	6105                	addi	sp,sp,32
   101c6:	8082                	ret

00000000000101c8 <__fp_lock>:
   101c8:	4501                	li	a0,0
   101ca:	8082                	ret

00000000000101cc <stdio_exit_handler>:
   101cc:	6669                	lui	a2,0x1a
   101ce:	65cd                	lui	a1,0x13
   101d0:	6569                	lui	a0,0x1a
   101d2:	22860613          	addi	a2,a2,552 # 1a228 <__sglue>
   101d6:	e7c58593          	addi	a1,a1,-388 # 12e7c <_fclose_r>
   101da:	24050513          	addi	a0,a0,576 # 1a240 <_impure_data>
   101de:	ac99                	j	10434 <_fwalk_sglue>

00000000000101e0 <cleanup_stdio>:
   101e0:	650c                	ld	a1,8(a0)
   101e2:	1141                	addi	sp,sp,-16
   101e4:	e022                	sd	s0,0(sp)
   101e6:	e406                	sd	ra,8(sp)
   101e8:	2b018793          	addi	a5,gp,688 # 1ae58 <__sf>
   101ec:	842a                	mv	s0,a0
   101ee:	00f58463          	beq	a1,a5,101f6 <cleanup_stdio+0x16>
   101f2:	48b020ef          	jal	12e7c <_fclose_r>
   101f6:	680c                	ld	a1,16(s0)
   101f8:	36018793          	addi	a5,gp,864 # 1af08 <__sf+0xb0>
   101fc:	00f58563          	beq	a1,a5,10206 <cleanup_stdio+0x26>
   10200:	8522                	mv	a0,s0
   10202:	47b020ef          	jal	12e7c <_fclose_r>
   10206:	6c0c                	ld	a1,24(s0)
   10208:	41018793          	addi	a5,gp,1040 # 1afb8 <__sf+0x160>
   1020c:	00f58863          	beq	a1,a5,1021c <cleanup_stdio+0x3c>
   10210:	8522                	mv	a0,s0
   10212:	6402                	ld	s0,0(sp)
   10214:	60a2                	ld	ra,8(sp)
   10216:	0141                	addi	sp,sp,16
   10218:	4650206f          	j	12e7c <_fclose_r>
   1021c:	60a2                	ld	ra,8(sp)
   1021e:	6402                	ld	s0,0(sp)
   10220:	0141                	addi	sp,sp,16
   10222:	8082                	ret

0000000000010224 <__fp_unlock>:
   10224:	4501                	li	a0,0
   10226:	8082                	ret

0000000000010228 <global_stdio_init.part.0>:
   10228:	7179                	addi	sp,sp,-48
   1022a:	67c1                	lui	a5,0x10
   1022c:	f022                	sd	s0,32(sp)
   1022e:	1cc78793          	addi	a5,a5,460 # 101cc <stdio_exit_handler>
   10232:	2b018413          	addi	s0,gp,688 # 1ae58 <__sf>
   10236:	f406                	sd	ra,40(sp)
   10238:	ec26                	sd	s1,24(sp)
   1023a:	e84a                	sd	s2,16(sp)
   1023c:	e44e                	sd	s3,8(sp)
   1023e:	e052                	sd	s4,0(sp)
   10240:	22f1bc23          	sd	a5,568(gp) # 1ade0 <__stdio_exit_handler>
   10244:	4621                	li	a2,8
   10246:	4791                	li	a5,4
   10248:	4581                	li	a1,0
   1024a:	35418513          	addi	a0,gp,852 # 1aefc <__sf+0xa4>
   1024e:	c81c                	sw	a5,16(s0)
   10250:	00043023          	sd	zero,0(s0)
   10254:	00043423          	sd	zero,8(s0)
   10258:	0a042623          	sw	zero,172(s0)
   1025c:	00043c23          	sd	zero,24(s0)
   10260:	02042023          	sw	zero,32(s0)
   10264:	02042423          	sw	zero,40(s0)
   10268:	55c000ef          	jal	107c4 <memset>
   1026c:	67c1                	lui	a5,0x10
   1026e:	6a41                	lui	s4,0x10
   10270:	69c1                	lui	s3,0x10
   10272:	6941                	lui	s2,0x10
   10274:	64c1                	lui	s1,0x10
   10276:	504a0a13          	addi	s4,s4,1284 # 10504 <__sread>
   1027a:	54098993          	addi	s3,s3,1344 # 10540 <__swrite>
   1027e:	59290913          	addi	s2,s2,1426 # 10592 <__sseek>
   10282:	5e448493          	addi	s1,s1,1508 # 105e4 <__sclose>
   10286:	07a5                	addi	a5,a5,9 # 10009 <exit-0xdf>
   10288:	4621                	li	a2,8
   1028a:	4581                	li	a1,0
   1028c:	40418513          	addi	a0,gp,1028 # 1afac <__sf+0x154>
   10290:	03443c23          	sd	s4,56(s0)
   10294:	05343023          	sd	s3,64(s0)
   10298:	05243423          	sd	s2,72(s0)
   1029c:	e824                	sd	s1,80(s0)
   1029e:	0cf42023          	sw	a5,192(s0)
   102a2:	f800                	sd	s0,48(s0)
   102a4:	0a043823          	sd	zero,176(s0)
   102a8:	0a043c23          	sd	zero,184(s0)
   102ac:	14042e23          	sw	zero,348(s0)
   102b0:	0c043423          	sd	zero,200(s0)
   102b4:	0c042823          	sw	zero,208(s0)
   102b8:	0c042c23          	sw	zero,216(s0)
   102bc:	508000ef          	jal	107c4 <memset>
   102c0:	000207b7          	lui	a5,0x20
   102c4:	07c9                	addi	a5,a5,18 # 20012 <__BSS_END__+0x4c6a>
   102c6:	36018713          	addi	a4,gp,864 # 1af08 <__sf+0xb0>
   102ca:	4621                	li	a2,8
   102cc:	4581                	li	a1,0
   102ce:	4b418513          	addi	a0,gp,1204 # 1b05c <__sf+0x204>
   102d2:	0f443423          	sd	s4,232(s0)
   102d6:	0f343823          	sd	s3,240(s0)
   102da:	0f243c23          	sd	s2,248(s0)
   102de:	10943023          	sd	s1,256(s0)
   102e2:	16f42823          	sw	a5,368(s0)
   102e6:	f078                	sd	a4,224(s0)
   102e8:	16043023          	sd	zero,352(s0)
   102ec:	16043423          	sd	zero,360(s0)
   102f0:	20042623          	sw	zero,524(s0)
   102f4:	16043c23          	sd	zero,376(s0)
   102f8:	18042023          	sw	zero,384(s0)
   102fc:	18042423          	sw	zero,392(s0)
   10300:	4c4000ef          	jal	107c4 <memset>
   10304:	41018793          	addi	a5,gp,1040 # 1afb8 <__sf+0x160>
   10308:	19443c23          	sd	s4,408(s0)
   1030c:	1b343023          	sd	s3,416(s0)
   10310:	1b243423          	sd	s2,424(s0)
   10314:	1a943823          	sd	s1,432(s0)
   10318:	70a2                	ld	ra,40(sp)
   1031a:	18f43823          	sd	a5,400(s0)
   1031e:	7402                	ld	s0,32(sp)
   10320:	64e2                	ld	s1,24(sp)
   10322:	6942                	ld	s2,16(sp)
   10324:	69a2                	ld	s3,8(sp)
   10326:	6a02                	ld	s4,0(sp)
   10328:	6145                	addi	sp,sp,48
   1032a:	8082                	ret

000000000001032c <__sfp>:
   1032c:	2381b783          	ld	a5,568(gp) # 1ade0 <__stdio_exit_handler>
   10330:	7179                	addi	sp,sp,-48
   10332:	e84a                	sd	s2,16(sp)
   10334:	f406                	sd	ra,40(sp)
   10336:	f022                	sd	s0,32(sp)
   10338:	ec26                	sd	s1,24(sp)
   1033a:	e44e                	sd	s3,8(sp)
   1033c:	892a                	mv	s2,a0
   1033e:	c7cd                	beqz	a5,103e8 <__sfp+0xbc>
   10340:	64e9                	lui	s1,0x1a
   10342:	22848493          	addi	s1,s1,552 # 1a228 <__sglue>
   10346:	0b000993          	li	s3,176
   1034a:	4498                	lw	a4,8(s1)
   1034c:	6880                	ld	s0,16(s1)
   1034e:	06e05463          	blez	a4,103b6 <__sfp+0x8a>
   10352:	1702                	slli	a4,a4,0x20
   10354:	9301                	srli	a4,a4,0x20
   10356:	03370733          	mul	a4,a4,s3
   1035a:	9722                	add	a4,a4,s0
   1035c:	a029                	j	10366 <__sfp+0x3a>
   1035e:	0b040413          	addi	s0,s0,176
   10362:	04870a63          	beq	a4,s0,103b6 <__sfp+0x8a>
   10366:	01041783          	lh	a5,16(s0)
   1036a:	fbf5                	bnez	a5,1035e <__sfp+0x32>
   1036c:	77c1                	lui	a5,0xffff0
   1036e:	0785                	addi	a5,a5,1 # ffffffffffff0001 <__BSS_END__+0xfffffffffffd4c59>
   10370:	c81c                	sw	a5,16(s0)
   10372:	0a042623          	sw	zero,172(s0)
   10376:	00043023          	sd	zero,0(s0)
   1037a:	00043423          	sd	zero,8(s0)
   1037e:	00043c23          	sd	zero,24(s0)
   10382:	02042023          	sw	zero,32(s0)
   10386:	02042423          	sw	zero,40(s0)
   1038a:	4621                	li	a2,8
   1038c:	4581                	li	a1,0
   1038e:	0a440513          	addi	a0,s0,164
   10392:	432000ef          	jal	107c4 <memset>
   10396:	04043c23          	sd	zero,88(s0)
   1039a:	06042023          	sw	zero,96(s0)
   1039e:	06043c23          	sd	zero,120(s0)
   103a2:	08042023          	sw	zero,128(s0)
   103a6:	70a2                	ld	ra,40(sp)
   103a8:	8522                	mv	a0,s0
   103aa:	7402                	ld	s0,32(sp)
   103ac:	64e2                	ld	s1,24(sp)
   103ae:	6942                	ld	s2,16(sp)
   103b0:	69a2                	ld	s3,8(sp)
   103b2:	6145                	addi	sp,sp,48
   103b4:	8082                	ret
   103b6:	6080                	ld	s0,0(s1)
   103b8:	c019                	beqz	s0,103be <__sfp+0x92>
   103ba:	84a2                	mv	s1,s0
   103bc:	b779                	j	1034a <__sfp+0x1e>
   103be:	2d800593          	li	a1,728
   103c2:	854a                	mv	a0,s2
   103c4:	09b000ef          	jal	10c5e <_malloc_r>
   103c8:	842a                	mv	s0,a0
   103ca:	c115                	beqz	a0,103ee <__sfp+0xc2>
   103cc:	0561                	addi	a0,a0,24
   103ce:	4791                	li	a5,4
   103d0:	00043023          	sd	zero,0(s0)
   103d4:	c41c                	sw	a5,8(s0)
   103d6:	e808                	sd	a0,16(s0)
   103d8:	2c000613          	li	a2,704
   103dc:	4581                	li	a1,0
   103de:	3e6000ef          	jal	107c4 <memset>
   103e2:	e080                	sd	s0,0(s1)
   103e4:	84a2                	mv	s1,s0
   103e6:	b795                	j	1034a <__sfp+0x1e>
   103e8:	e41ff0ef          	jal	10228 <global_stdio_init.part.0>
   103ec:	bf91                	j	10340 <__sfp+0x14>
   103ee:	0004b023          	sd	zero,0(s1)
   103f2:	47b1                	li	a5,12
   103f4:	00f92023          	sw	a5,0(s2)
   103f8:	b77d                	j	103a6 <__sfp+0x7a>

00000000000103fa <__sinit>:
   103fa:	653c                	ld	a5,72(a0)
   103fc:	c391                	beqz	a5,10400 <__sinit+0x6>
   103fe:	8082                	ret
   10400:	2381b703          	ld	a4,568(gp) # 1ade0 <__stdio_exit_handler>
   10404:	67c1                	lui	a5,0x10
   10406:	1e078793          	addi	a5,a5,480 # 101e0 <cleanup_stdio>
   1040a:	e53c                	sd	a5,72(a0)
   1040c:	fb6d                	bnez	a4,103fe <__sinit+0x4>
   1040e:	bd29                	j	10228 <global_stdio_init.part.0>

0000000000010410 <__sfp_lock_acquire>:
   10410:	8082                	ret

0000000000010412 <__sfp_lock_release>:
   10412:	8082                	ret

0000000000010414 <__fp_lock_all>:
   10414:	6669                	lui	a2,0x1a
   10416:	65c1                	lui	a1,0x10
   10418:	22860613          	addi	a2,a2,552 # 1a228 <__sglue>
   1041c:	1c858593          	addi	a1,a1,456 # 101c8 <__fp_lock>
   10420:	4501                	li	a0,0
   10422:	a809                	j	10434 <_fwalk_sglue>

0000000000010424 <__fp_unlock_all>:
   10424:	6669                	lui	a2,0x1a
   10426:	65c1                	lui	a1,0x10
   10428:	22860613          	addi	a2,a2,552 # 1a228 <__sglue>
   1042c:	22458593          	addi	a1,a1,548 # 10224 <__fp_unlock>
   10430:	4501                	li	a0,0
   10432:	a009                	j	10434 <_fwalk_sglue>

0000000000010434 <_fwalk_sglue>:
   10434:	715d                	addi	sp,sp,-80
   10436:	f84a                	sd	s2,48(sp)
   10438:	f44e                	sd	s3,40(sp)
   1043a:	f052                	sd	s4,32(sp)
   1043c:	ec56                	sd	s5,24(sp)
   1043e:	e85a                	sd	s6,16(sp)
   10440:	e45e                	sd	s7,8(sp)
   10442:	e062                	sd	s8,0(sp)
   10444:	e486                	sd	ra,72(sp)
   10446:	e0a2                	sd	s0,64(sp)
   10448:	fc26                	sd	s1,56(sp)
   1044a:	8a2a                	mv	s4,a0
   1044c:	8b2e                	mv	s6,a1
   1044e:	89b2                	mv	s3,a2
   10450:	4901                	li	s2,0
   10452:	0b000b93          	li	s7,176
   10456:	4c05                	li	s8,1
   10458:	5afd                	li	s5,-1
   1045a:	0089a483          	lw	s1,8(s3)
   1045e:	0109b403          	ld	s0,16(s3)
   10462:	02905963          	blez	s1,10494 <_fwalk_sglue+0x60>
   10466:	1482                	slli	s1,s1,0x20
   10468:	9081                	srli	s1,s1,0x20
   1046a:	037484b3          	mul	s1,s1,s7
   1046e:	94a2                	add	s1,s1,s0
   10470:	01045783          	lhu	a5,16(s0)
   10474:	00fc7c63          	bgeu	s8,a5,1048c <_fwalk_sglue+0x58>
   10478:	01241783          	lh	a5,18(s0)
   1047c:	85a2                	mv	a1,s0
   1047e:	8552                	mv	a0,s4
   10480:	01578663          	beq	a5,s5,1048c <_fwalk_sglue+0x58>
   10484:	9b02                	jalr	s6
   10486:	01256933          	or	s2,a0,s2
   1048a:	2901                	sext.w	s2,s2
   1048c:	0b040413          	addi	s0,s0,176
   10490:	fe9410e3          	bne	s0,s1,10470 <_fwalk_sglue+0x3c>
   10494:	0009b983          	ld	s3,0(s3)
   10498:	fc0991e3          	bnez	s3,1045a <_fwalk_sglue+0x26>
   1049c:	60a6                	ld	ra,72(sp)
   1049e:	6406                	ld	s0,64(sp)
   104a0:	74e2                	ld	s1,56(sp)
   104a2:	79a2                	ld	s3,40(sp)
   104a4:	7a02                	ld	s4,32(sp)
   104a6:	6ae2                	ld	s5,24(sp)
   104a8:	6b42                	ld	s6,16(sp)
   104aa:	6ba2                	ld	s7,8(sp)
   104ac:	6c02                	ld	s8,0(sp)
   104ae:	854a                	mv	a0,s2
   104b0:	7942                	ld	s2,48(sp)
   104b2:	6161                	addi	sp,sp,80
   104b4:	8082                	ret

00000000000104b6 <_printf_r>:
   104b6:	715d                	addi	sp,sp,-80
   104b8:	f032                	sd	a2,32(sp)
   104ba:	f436                	sd	a3,40(sp)
   104bc:	f83a                	sd	a4,48(sp)
   104be:	fc3e                	sd	a5,56(sp)
   104c0:	e0c2                	sd	a6,64(sp)
   104c2:	e4c6                	sd	a7,72(sp)
   104c4:	862e                	mv	a2,a1
   104c6:	690c                	ld	a1,16(a0)
   104c8:	1014                	addi	a3,sp,32
   104ca:	ec06                	sd	ra,24(sp)
   104cc:	e436                	sd	a3,8(sp)
   104ce:	597000ef          	jal	11264 <_vfprintf_r>
   104d2:	60e2                	ld	ra,24(sp)
   104d4:	6161                	addi	sp,sp,80
   104d6:	8082                	ret

00000000000104d8 <printf>:
   104d8:	2201b303          	ld	t1,544(gp) # 1adc8 <_impure_ptr>
   104dc:	711d                	addi	sp,sp,-96
   104de:	f832                	sd	a2,48(sp)
   104e0:	fc36                	sd	a3,56(sp)
   104e2:	f42e                	sd	a1,40(sp)
   104e4:	e0ba                	sd	a4,64(sp)
   104e6:	e4be                	sd	a5,72(sp)
   104e8:	e8c2                	sd	a6,80(sp)
   104ea:	ecc6                	sd	a7,88(sp)
   104ec:	01033583          	ld	a1,16(t1) # 101a6 <main+0x6>
   104f0:	1034                	addi	a3,sp,40
   104f2:	862a                	mv	a2,a0
   104f4:	851a                	mv	a0,t1
   104f6:	ec06                	sd	ra,24(sp)
   104f8:	e436                	sd	a3,8(sp)
   104fa:	56b000ef          	jal	11264 <_vfprintf_r>
   104fe:	60e2                	ld	ra,24(sp)
   10500:	6125                	addi	sp,sp,96
   10502:	8082                	ret

0000000000010504 <__sread>:
   10504:	1141                	addi	sp,sp,-16
   10506:	e022                	sd	s0,0(sp)
   10508:	842e                	mv	s0,a1
   1050a:	01259583          	lh	a1,18(a1)
   1050e:	e406                	sd	ra,8(sp)
   10510:	1d2000ef          	jal	106e2 <_read_r>
   10514:	00054963          	bltz	a0,10526 <__sread+0x22>
   10518:	685c                	ld	a5,144(s0)
   1051a:	60a2                	ld	ra,8(sp)
   1051c:	97aa                	add	a5,a5,a0
   1051e:	e85c                	sd	a5,144(s0)
   10520:	6402                	ld	s0,0(sp)
   10522:	0141                	addi	sp,sp,16
   10524:	8082                	ret
   10526:	01045783          	lhu	a5,16(s0)
   1052a:	777d                	lui	a4,0xfffff
   1052c:	177d                	addi	a4,a4,-1 # ffffffffffffefff <__BSS_END__+0xfffffffffffe3c57>
   1052e:	8ff9                	and	a5,a5,a4
   10530:	60a2                	ld	ra,8(sp)
   10532:	00f41823          	sh	a5,16(s0)
   10536:	6402                	ld	s0,0(sp)
   10538:	0141                	addi	sp,sp,16
   1053a:	8082                	ret

000000000001053c <__seofread>:
   1053c:	4501                	li	a0,0
   1053e:	8082                	ret

0000000000010540 <__swrite>:
   10540:	01059783          	lh	a5,16(a1)
   10544:	7179                	addi	sp,sp,-48
   10546:	f022                	sd	s0,32(sp)
   10548:	ec26                	sd	s1,24(sp)
   1054a:	e84a                	sd	s2,16(sp)
   1054c:	e44e                	sd	s3,8(sp)
   1054e:	f406                	sd	ra,40(sp)
   10550:	1007f713          	andi	a4,a5,256
   10554:	842e                	mv	s0,a1
   10556:	84aa                	mv	s1,a0
   10558:	8932                	mv	s2,a2
   1055a:	89b6                	mv	s3,a3
   1055c:	e315                	bnez	a4,10580 <__swrite+0x40>
   1055e:	777d                	lui	a4,0xfffff
   10560:	177d                	addi	a4,a4,-1 # ffffffffffffefff <__BSS_END__+0xfffffffffffe3c57>
   10562:	8ff9                	and	a5,a5,a4
   10564:	01241583          	lh	a1,18(s0)
   10568:	00f41823          	sh	a5,16(s0)
   1056c:	7402                	ld	s0,32(sp)
   1056e:	70a2                	ld	ra,40(sp)
   10570:	86ce                	mv	a3,s3
   10572:	864a                	mv	a2,s2
   10574:	69a2                	ld	s3,8(sp)
   10576:	6942                	ld	s2,16(sp)
   10578:	8526                	mv	a0,s1
   1057a:	64e2                	ld	s1,24(sp)
   1057c:	6145                	addi	sp,sp,48
   1057e:	a245                	j	1071e <_write_r>
   10580:	01259583          	lh	a1,18(a1)
   10584:	4689                	li	a3,2
   10586:	4601                	li	a2,0
   10588:	11e000ef          	jal	106a6 <_lseek_r>
   1058c:	01041783          	lh	a5,16(s0)
   10590:	b7f9                	j	1055e <__swrite+0x1e>

0000000000010592 <__sseek>:
   10592:	1141                	addi	sp,sp,-16
   10594:	e022                	sd	s0,0(sp)
   10596:	842e                	mv	s0,a1
   10598:	01259583          	lh	a1,18(a1)
   1059c:	e406                	sd	ra,8(sp)
   1059e:	108000ef          	jal	106a6 <_lseek_r>
   105a2:	57fd                	li	a5,-1
   105a4:	02f50163          	beq	a0,a5,105c6 <__sseek+0x34>
   105a8:	01045783          	lhu	a5,16(s0)
   105ac:	6705                	lui	a4,0x1
   105ae:	60a2                	ld	ra,8(sp)
   105b0:	8fd9                	or	a5,a5,a4
   105b2:	0107979b          	slliw	a5,a5,0x10
   105b6:	4107d79b          	sraiw	a5,a5,0x10
   105ba:	e848                	sd	a0,144(s0)
   105bc:	00f41823          	sh	a5,16(s0)
   105c0:	6402                	ld	s0,0(sp)
   105c2:	0141                	addi	sp,sp,16
   105c4:	8082                	ret
   105c6:	01045783          	lhu	a5,16(s0)
   105ca:	777d                	lui	a4,0xfffff
   105cc:	177d                	addi	a4,a4,-1 # ffffffffffffefff <__BSS_END__+0xfffffffffffe3c57>
   105ce:	8ff9                	and	a5,a5,a4
   105d0:	0107979b          	slliw	a5,a5,0x10
   105d4:	4107d79b          	sraiw	a5,a5,0x10
   105d8:	60a2                	ld	ra,8(sp)
   105da:	00f41823          	sh	a5,16(s0)
   105de:	6402                	ld	s0,0(sp)
   105e0:	0141                	addi	sp,sp,16
   105e2:	8082                	ret

00000000000105e4 <__sclose>:
   105e4:	01259583          	lh	a1,18(a1)
   105e8:	a009                	j	105ea <_close_r>

00000000000105ea <_close_r>:
   105ea:	1101                	addi	sp,sp,-32
   105ec:	e822                	sd	s0,16(sp)
   105ee:	e426                	sd	s1,8(sp)
   105f0:	842a                	mv	s0,a0
   105f2:	852e                	mv	a0,a1
   105f4:	ec06                	sd	ra,24(sp)
   105f6:	2401a023          	sw	zero,576(gp) # 1ade8 <errno>
   105fa:	01c070ef          	jal	17616 <_close>
   105fe:	57fd                	li	a5,-1
   10600:	00f50763          	beq	a0,a5,1060e <_close_r+0x24>
   10604:	60e2                	ld	ra,24(sp)
   10606:	6442                	ld	s0,16(sp)
   10608:	64a2                	ld	s1,8(sp)
   1060a:	6105                	addi	sp,sp,32
   1060c:	8082                	ret
   1060e:	2401a783          	lw	a5,576(gp) # 1ade8 <errno>
   10612:	dbed                	beqz	a5,10604 <_close_r+0x1a>
   10614:	60e2                	ld	ra,24(sp)
   10616:	c01c                	sw	a5,0(s0)
   10618:	6442                	ld	s0,16(sp)
   1061a:	64a2                	ld	s1,8(sp)
   1061c:	6105                	addi	sp,sp,32
   1061e:	8082                	ret

0000000000010620 <_reclaim_reent>:
   10620:	2201b783          	ld	a5,544(gp) # 1adc8 <_impure_ptr>
   10624:	08a78063          	beq	a5,a0,106a4 <_reclaim_reent+0x84>
   10628:	752c                	ld	a1,104(a0)
   1062a:	7179                	addi	sp,sp,-48
   1062c:	ec26                	sd	s1,24(sp)
   1062e:	f406                	sd	ra,40(sp)
   10630:	f022                	sd	s0,32(sp)
   10632:	84aa                	mv	s1,a0
   10634:	c98d                	beqz	a1,10666 <_reclaim_reent+0x46>
   10636:	e84a                	sd	s2,16(sp)
   10638:	e44e                	sd	s3,8(sp)
   1063a:	4901                	li	s2,0
   1063c:	20000993          	li	s3,512
   10640:	012587b3          	add	a5,a1,s2
   10644:	6380                	ld	s0,0(a5)
   10646:	c801                	beqz	s0,10656 <_reclaim_reent+0x36>
   10648:	85a2                	mv	a1,s0
   1064a:	6000                	ld	s0,0(s0)
   1064c:	8526                	mv	a0,s1
   1064e:	3cc000ef          	jal	10a1a <_free_r>
   10652:	f87d                	bnez	s0,10648 <_reclaim_reent+0x28>
   10654:	74ac                	ld	a1,104(s1)
   10656:	0921                	addi	s2,s2,8
   10658:	ff3914e3          	bne	s2,s3,10640 <_reclaim_reent+0x20>
   1065c:	8526                	mv	a0,s1
   1065e:	3bc000ef          	jal	10a1a <_free_r>
   10662:	6942                	ld	s2,16(sp)
   10664:	69a2                	ld	s3,8(sp)
   10666:	68ac                	ld	a1,80(s1)
   10668:	c581                	beqz	a1,10670 <_reclaim_reent+0x50>
   1066a:	8526                	mv	a0,s1
   1066c:	3ae000ef          	jal	10a1a <_free_r>
   10670:	70a0                	ld	s0,96(s1)
   10672:	c419                	beqz	s0,10680 <_reclaim_reent+0x60>
   10674:	85a2                	mv	a1,s0
   10676:	6000                	ld	s0,0(s0)
   10678:	8526                	mv	a0,s1
   1067a:	3a0000ef          	jal	10a1a <_free_r>
   1067e:	f87d                	bnez	s0,10674 <_reclaim_reent+0x54>
   10680:	7cac                	ld	a1,120(s1)
   10682:	c581                	beqz	a1,1068a <_reclaim_reent+0x6a>
   10684:	8526                	mv	a0,s1
   10686:	394000ef          	jal	10a1a <_free_r>
   1068a:	64bc                	ld	a5,72(s1)
   1068c:	c799                	beqz	a5,1069a <_reclaim_reent+0x7a>
   1068e:	7402                	ld	s0,32(sp)
   10690:	70a2                	ld	ra,40(sp)
   10692:	8526                	mv	a0,s1
   10694:	64e2                	ld	s1,24(sp)
   10696:	6145                	addi	sp,sp,48
   10698:	8782                	jr	a5
   1069a:	70a2                	ld	ra,40(sp)
   1069c:	7402                	ld	s0,32(sp)
   1069e:	64e2                	ld	s1,24(sp)
   106a0:	6145                	addi	sp,sp,48
   106a2:	8082                	ret
   106a4:	8082                	ret

00000000000106a6 <_lseek_r>:
   106a6:	1101                	addi	sp,sp,-32
   106a8:	872e                	mv	a4,a1
   106aa:	e822                	sd	s0,16(sp)
   106ac:	e426                	sd	s1,8(sp)
   106ae:	85b2                	mv	a1,a2
   106b0:	842a                	mv	s0,a0
   106b2:	8636                	mv	a2,a3
   106b4:	853a                	mv	a0,a4
   106b6:	ec06                	sd	ra,24(sp)
   106b8:	2401a023          	sw	zero,576(gp) # 1ade8 <errno>
   106bc:	026070ef          	jal	176e2 <_lseek>
   106c0:	57fd                	li	a5,-1
   106c2:	00f50763          	beq	a0,a5,106d0 <_lseek_r+0x2a>
   106c6:	60e2                	ld	ra,24(sp)
   106c8:	6442                	ld	s0,16(sp)
   106ca:	64a2                	ld	s1,8(sp)
   106cc:	6105                	addi	sp,sp,32
   106ce:	8082                	ret
   106d0:	2401a783          	lw	a5,576(gp) # 1ade8 <errno>
   106d4:	dbed                	beqz	a5,106c6 <_lseek_r+0x20>
   106d6:	60e2                	ld	ra,24(sp)
   106d8:	c01c                	sw	a5,0(s0)
   106da:	6442                	ld	s0,16(sp)
   106dc:	64a2                	ld	s1,8(sp)
   106de:	6105                	addi	sp,sp,32
   106e0:	8082                	ret

00000000000106e2 <_read_r>:
   106e2:	1101                	addi	sp,sp,-32
   106e4:	872e                	mv	a4,a1
   106e6:	e822                	sd	s0,16(sp)
   106e8:	e426                	sd	s1,8(sp)
   106ea:	85b2                	mv	a1,a2
   106ec:	842a                	mv	s0,a0
   106ee:	8636                	mv	a2,a3
   106f0:	853a                	mv	a0,a4
   106f2:	ec06                	sd	ra,24(sp)
   106f4:	2401a023          	sw	zero,576(gp) # 1ade8 <errno>
   106f8:	016070ef          	jal	1770e <_read>
   106fc:	57fd                	li	a5,-1
   106fe:	00f50763          	beq	a0,a5,1070c <_read_r+0x2a>
   10702:	60e2                	ld	ra,24(sp)
   10704:	6442                	ld	s0,16(sp)
   10706:	64a2                	ld	s1,8(sp)
   10708:	6105                	addi	sp,sp,32
   1070a:	8082                	ret
   1070c:	2401a783          	lw	a5,576(gp) # 1ade8 <errno>
   10710:	dbed                	beqz	a5,10702 <_read_r+0x20>
   10712:	60e2                	ld	ra,24(sp)
   10714:	c01c                	sw	a5,0(s0)
   10716:	6442                	ld	s0,16(sp)
   10718:	64a2                	ld	s1,8(sp)
   1071a:	6105                	addi	sp,sp,32
   1071c:	8082                	ret

000000000001071e <_write_r>:
   1071e:	1101                	addi	sp,sp,-32
   10720:	872e                	mv	a4,a1
   10722:	e822                	sd	s0,16(sp)
   10724:	e426                	sd	s1,8(sp)
   10726:	85b2                	mv	a1,a2
   10728:	842a                	mv	s0,a0
   1072a:	8636                	mv	a2,a3
   1072c:	853a                	mv	a0,a4
   1072e:	ec06                	sd	ra,24(sp)
   10730:	2401a023          	sw	zero,576(gp) # 1ade8 <errno>
   10734:	05a070ef          	jal	1778e <_write>
   10738:	57fd                	li	a5,-1
   1073a:	00f50763          	beq	a0,a5,10748 <_write_r+0x2a>
   1073e:	60e2                	ld	ra,24(sp)
   10740:	6442                	ld	s0,16(sp)
   10742:	64a2                	ld	s1,8(sp)
   10744:	6105                	addi	sp,sp,32
   10746:	8082                	ret
   10748:	2401a783          	lw	a5,576(gp) # 1ade8 <errno>
   1074c:	dbed                	beqz	a5,1073e <_write_r+0x20>
   1074e:	60e2                	ld	ra,24(sp)
   10750:	c01c                	sw	a5,0(s0)
   10752:	6442                	ld	s0,16(sp)
   10754:	64a2                	ld	s1,8(sp)
   10756:	6105                	addi	sp,sp,32
   10758:	8082                	ret

000000000001075a <__libc_init_array>:
   1075a:	1101                	addi	sp,sp,-32
   1075c:	e822                	sd	s0,16(sp)
   1075e:	67e9                	lui	a5,0x1a
   10760:	6469                	lui	s0,0x1a
   10762:	e04a                	sd	s2,0(sp)
   10764:	20c78793          	addi	a5,a5,524 # 1a20c <__preinit_array_end>
   10768:	20c40713          	addi	a4,s0,524 # 1a20c <__preinit_array_end>
   1076c:	ec06                	sd	ra,24(sp)
   1076e:	e426                	sd	s1,8(sp)
   10770:	40e78933          	sub	s2,a5,a4
   10774:	00e78d63          	beq	a5,a4,1078e <__libc_init_array+0x34>
   10778:	40395913          	srai	s2,s2,0x3
   1077c:	20c40413          	addi	s0,s0,524
   10780:	4481                	li	s1,0
   10782:	601c                	ld	a5,0(s0)
   10784:	0485                	addi	s1,s1,1
   10786:	0421                	addi	s0,s0,8
   10788:	9782                	jalr	a5
   1078a:	ff24ece3          	bltu	s1,s2,10782 <__libc_init_array+0x28>
   1078e:	6469                	lui	s0,0x1a
   10790:	67e9                	lui	a5,0x1a
   10792:	22078793          	addi	a5,a5,544 # 1a220 <__do_global_dtors_aux_fini_array_entry>
   10796:	21040713          	addi	a4,s0,528 # 1a210 <__init_array_start>
   1079a:	40e78933          	sub	s2,a5,a4
   1079e:	40395913          	srai	s2,s2,0x3
   107a2:	00e78b63          	beq	a5,a4,107b8 <__libc_init_array+0x5e>
   107a6:	21040413          	addi	s0,s0,528
   107aa:	4481                	li	s1,0
   107ac:	601c                	ld	a5,0(s0)
   107ae:	0485                	addi	s1,s1,1
   107b0:	0421                	addi	s0,s0,8
   107b2:	9782                	jalr	a5
   107b4:	ff24ece3          	bltu	s1,s2,107ac <__libc_init_array+0x52>
   107b8:	60e2                	ld	ra,24(sp)
   107ba:	6442                	ld	s0,16(sp)
   107bc:	64a2                	ld	s1,8(sp)
   107be:	6902                	ld	s2,0(sp)
   107c0:	6105                	addi	sp,sp,32
   107c2:	8082                	ret

00000000000107c4 <memset>:
   107c4:	433d                	li	t1,15
   107c6:	872a                	mv	a4,a0
   107c8:	02c37163          	bgeu	t1,a2,107ea <memset+0x26>
   107cc:	00f77793          	andi	a5,a4,15
   107d0:	e3c1                	bnez	a5,10850 <memset+0x8c>
   107d2:	e1bd                	bnez	a1,10838 <memset+0x74>
   107d4:	ff067693          	andi	a3,a2,-16
   107d8:	8a3d                	andi	a2,a2,15
   107da:	96ba                	add	a3,a3,a4
   107dc:	e30c                	sd	a1,0(a4)
   107de:	e70c                	sd	a1,8(a4)
   107e0:	0741                	addi	a4,a4,16
   107e2:	fed76de3          	bltu	a4,a3,107dc <memset+0x18>
   107e6:	e211                	bnez	a2,107ea <memset+0x26>
   107e8:	8082                	ret
   107ea:	40c306b3          	sub	a3,t1,a2
   107ee:	068a                	slli	a3,a3,0x2
   107f0:	00000297          	auipc	t0,0x0
   107f4:	9696                	add	a3,a3,t0
   107f6:	00a68067          	jr	10(a3)
   107fa:	00b70723          	sb	a1,14(a4)
   107fe:	00b706a3          	sb	a1,13(a4)
   10802:	00b70623          	sb	a1,12(a4)
   10806:	00b705a3          	sb	a1,11(a4)
   1080a:	00b70523          	sb	a1,10(a4)
   1080e:	00b704a3          	sb	a1,9(a4)
   10812:	00b70423          	sb	a1,8(a4)
   10816:	00b703a3          	sb	a1,7(a4)
   1081a:	00b70323          	sb	a1,6(a4)
   1081e:	00b702a3          	sb	a1,5(a4)
   10822:	00b70223          	sb	a1,4(a4)
   10826:	00b701a3          	sb	a1,3(a4)
   1082a:	00b70123          	sb	a1,2(a4)
   1082e:	00b700a3          	sb	a1,1(a4)
   10832:	00b70023          	sb	a1,0(a4)
   10836:	8082                	ret
   10838:	0ff5f593          	zext.b	a1,a1
   1083c:	00859693          	slli	a3,a1,0x8
   10840:	8dd5                	or	a1,a1,a3
   10842:	01059693          	slli	a3,a1,0x10
   10846:	8dd5                	or	a1,a1,a3
   10848:	02059693          	slli	a3,a1,0x20
   1084c:	8dd5                	or	a1,a1,a3
   1084e:	b759                	j	107d4 <memset+0x10>
   10850:	00279693          	slli	a3,a5,0x2
   10854:	00000297          	auipc	t0,0x0
   10858:	9696                	add	a3,a3,t0
   1085a:	8286                	mv	t0,ra
   1085c:	fa2680e7          	jalr	-94(a3)
   10860:	8096                	mv	ra,t0
   10862:	17c1                	addi	a5,a5,-16
   10864:	8f1d                	sub	a4,a4,a5
   10866:	963e                	add	a2,a2,a5
   10868:	f8c371e3          	bgeu	t1,a2,107ea <memset+0x26>
   1086c:	b79d                	j	107d2 <memset+0xe>

000000000001086e <__call_exitprocs>:
   1086e:	715d                	addi	sp,sp,-80
   10870:	f052                	sd	s4,32(sp)
   10872:	f84a                	sd	s2,48(sp)
   10874:	2481b903          	ld	s2,584(gp) # 1adf0 <__atexit>
   10878:	e486                	sd	ra,72(sp)
   1087a:	06090d63          	beqz	s2,108f4 <__call_exitprocs+0x86>
   1087e:	f44e                	sd	s3,40(sp)
   10880:	ec56                	sd	s5,24(sp)
   10882:	e85a                	sd	s6,16(sp)
   10884:	e45e                	sd	s7,8(sp)
   10886:	e0a2                	sd	s0,64(sp)
   10888:	fc26                	sd	s1,56(sp)
   1088a:	e062                	sd	s8,0(sp)
   1088c:	8b2a                	mv	s6,a0
   1088e:	8bae                	mv	s7,a1
   10890:	59fd                	li	s3,-1
   10892:	4a85                	li	s5,1
   10894:	00892483          	lw	s1,8(s2)
   10898:	fff4841b          	addiw	s0,s1,-1
   1089c:	04044563          	bltz	s0,108e6 <__call_exitprocs+0x78>
   108a0:	048e                	slli	s1,s1,0x3
   108a2:	94ca                	add	s1,s1,s2
   108a4:	040b9d63          	bnez	s7,108fe <__call_exitprocs+0x90>
   108a8:	00892783          	lw	a5,8(s2)
   108ac:	6498                	ld	a4,8(s1)
   108ae:	37fd                	addiw	a5,a5,-1
   108b0:	08878263          	beq	a5,s0,10934 <__call_exitprocs+0xc6>
   108b4:	0004b423          	sd	zero,8(s1)
   108b8:	c31d                	beqz	a4,108de <__call_exitprocs+0x70>
   108ba:	31092783          	lw	a5,784(s2)
   108be:	008a96bb          	sllw	a3,s5,s0
   108c2:	00892c03          	lw	s8,8(s2)
   108c6:	8ff5                	and	a5,a5,a3
   108c8:	2781                	sext.w	a5,a5
   108ca:	e3b9                	bnez	a5,10910 <__call_exitprocs+0xa2>
   108cc:	9702                	jalr	a4
   108ce:	00892703          	lw	a4,8(s2)
   108d2:	2481b783          	ld	a5,584(gp) # 1adf0 <__atexit>
   108d6:	05871c63          	bne	a4,s8,1092e <__call_exitprocs+0xc0>
   108da:	05279a63          	bne	a5,s2,1092e <__call_exitprocs+0xc0>
   108de:	347d                	addiw	s0,s0,-1
   108e0:	14e1                	addi	s1,s1,-8
   108e2:	fd3411e3          	bne	s0,s3,108a4 <__call_exitprocs+0x36>
   108e6:	6406                	ld	s0,64(sp)
   108e8:	74e2                	ld	s1,56(sp)
   108ea:	79a2                	ld	s3,40(sp)
   108ec:	6ae2                	ld	s5,24(sp)
   108ee:	6b42                	ld	s6,16(sp)
   108f0:	6ba2                	ld	s7,8(sp)
   108f2:	6c02                	ld	s8,0(sp)
   108f4:	60a6                	ld	ra,72(sp)
   108f6:	7942                	ld	s2,48(sp)
   108f8:	7a02                	ld	s4,32(sp)
   108fa:	6161                	addi	sp,sp,80
   108fc:	8082                	ret
   108fe:	2084b783          	ld	a5,520(s1)
   10902:	fb7783e3          	beq	a5,s7,108a8 <__call_exitprocs+0x3a>
   10906:	347d                	addiw	s0,s0,-1
   10908:	14e1                	addi	s1,s1,-8
   1090a:	ff341ae3          	bne	s0,s3,108fe <__call_exitprocs+0x90>
   1090e:	bfe1                	j	108e6 <__call_exitprocs+0x78>
   10910:	31492783          	lw	a5,788(s2)
   10914:	1084b583          	ld	a1,264(s1)
   10918:	8ff5                	and	a5,a5,a3
   1091a:	2781                	sext.w	a5,a5
   1091c:	ef99                	bnez	a5,1093a <__call_exitprocs+0xcc>
   1091e:	855a                	mv	a0,s6
   10920:	9702                	jalr	a4
   10922:	00892703          	lw	a4,8(s2)
   10926:	2481b783          	ld	a5,584(gp) # 1adf0 <__atexit>
   1092a:	fb8708e3          	beq	a4,s8,108da <__call_exitprocs+0x6c>
   1092e:	dfc5                	beqz	a5,108e6 <__call_exitprocs+0x78>
   10930:	893e                	mv	s2,a5
   10932:	b78d                	j	10894 <__call_exitprocs+0x26>
   10934:	00892423          	sw	s0,8(s2)
   10938:	b741                	j	108b8 <__call_exitprocs+0x4a>
   1093a:	852e                	mv	a0,a1
   1093c:	9702                	jalr	a4
   1093e:	bf41                	j	108ce <__call_exitprocs+0x60>

0000000000010940 <atexit>:
   10940:	85aa                	mv	a1,a0
   10942:	4681                	li	a3,0
   10944:	4601                	li	a2,0
   10946:	4501                	li	a0,0
   10948:	1660306f          	j	13aae <__register_exitproc>

000000000001094c <_malloc_trim_r>:
   1094c:	7179                	addi	sp,sp,-48
   1094e:	e44e                	sd	s3,8(sp)
   10950:	69e9                	lui	s3,0x1a
   10952:	f022                	sd	s0,32(sp)
   10954:	ec26                	sd	s1,24(sp)
   10956:	e84a                	sd	s2,16(sp)
   10958:	e052                	sd	s4,0(sp)
   1095a:	f406                	sd	ra,40(sp)
   1095c:	8a2e                	mv	s4,a1
   1095e:	892a                	mv	s2,a0
   10960:	39898993          	addi	s3,s3,920 # 1a398 <__malloc_av_>
   10964:	0fd000ef          	jal	11260 <__malloc_lock>
   10968:	0109b703          	ld	a4,16(s3)
   1096c:	6785                	lui	a5,0x1
   1096e:	fdf78793          	addi	a5,a5,-33 # fdf <exit-0xf109>
   10972:	6704                	ld	s1,8(a4)
   10974:	6705                	lui	a4,0x1
   10976:	98f1                	andi	s1,s1,-4
   10978:	00f48433          	add	s0,s1,a5
   1097c:	41440433          	sub	s0,s0,s4
   10980:	8031                	srli	s0,s0,0xc
   10982:	147d                	addi	s0,s0,-1
   10984:	0432                	slli	s0,s0,0xc
   10986:	00e44b63          	blt	s0,a4,1099c <_malloc_trim_r+0x50>
   1098a:	4581                	li	a1,0
   1098c:	854a                	mv	a0,s2
   1098e:	54d020ef          	jal	136da <_sbrk_r>
   10992:	0109b783          	ld	a5,16(s3)
   10996:	97a6                	add	a5,a5,s1
   10998:	00f50e63          	beq	a0,a5,109b4 <_malloc_trim_r+0x68>
   1099c:	854a                	mv	a0,s2
   1099e:	0c5000ef          	jal	11262 <__malloc_unlock>
   109a2:	70a2                	ld	ra,40(sp)
   109a4:	7402                	ld	s0,32(sp)
   109a6:	64e2                	ld	s1,24(sp)
   109a8:	6942                	ld	s2,16(sp)
   109aa:	69a2                	ld	s3,8(sp)
   109ac:	6a02                	ld	s4,0(sp)
   109ae:	4501                	li	a0,0
   109b0:	6145                	addi	sp,sp,48
   109b2:	8082                	ret
   109b4:	408005b3          	neg	a1,s0
   109b8:	854a                	mv	a0,s2
   109ba:	521020ef          	jal	136da <_sbrk_r>
   109be:	57fd                	li	a5,-1
   109c0:	02f50963          	beq	a0,a5,109f2 <_malloc_trim_r+0xa6>
   109c4:	4c018793          	addi	a5,gp,1216 # 1b068 <__malloc_current_mallinfo>
   109c8:	4398                	lw	a4,0(a5)
   109ca:	0109b683          	ld	a3,16(s3)
   109ce:	8c81                	sub	s1,s1,s0
   109d0:	0014e493          	ori	s1,s1,1
   109d4:	9f01                	subw	a4,a4,s0
   109d6:	854a                	mv	a0,s2
   109d8:	e684                	sd	s1,8(a3)
   109da:	c398                	sw	a4,0(a5)
   109dc:	087000ef          	jal	11262 <__malloc_unlock>
   109e0:	70a2                	ld	ra,40(sp)
   109e2:	7402                	ld	s0,32(sp)
   109e4:	64e2                	ld	s1,24(sp)
   109e6:	6942                	ld	s2,16(sp)
   109e8:	69a2                	ld	s3,8(sp)
   109ea:	6a02                	ld	s4,0(sp)
   109ec:	4505                	li	a0,1
   109ee:	6145                	addi	sp,sp,48
   109f0:	8082                	ret
   109f2:	4581                	li	a1,0
   109f4:	854a                	mv	a0,s2
   109f6:	4e5020ef          	jal	136da <_sbrk_r>
   109fa:	0109b703          	ld	a4,16(s3)
   109fe:	46fd                	li	a3,31
   10a00:	40e507b3          	sub	a5,a0,a4
   10a04:	f8f6dce3          	bge	a3,a5,1099c <_malloc_trim_r+0x50>
   10a08:	2281b683          	ld	a3,552(gp) # 1add0 <__malloc_sbrk_base>
   10a0c:	0017e793          	ori	a5,a5,1
   10a10:	e71c                	sd	a5,8(a4)
   10a12:	8d15                	sub	a0,a0,a3
   10a14:	4ca1a023          	sw	a0,1216(gp) # 1b068 <__malloc_current_mallinfo>
   10a18:	b751                	j	1099c <_malloc_trim_r+0x50>

0000000000010a1a <_free_r>:
   10a1a:	12058163          	beqz	a1,10b3c <_free_r+0x122>
   10a1e:	1101                	addi	sp,sp,-32
   10a20:	e822                	sd	s0,16(sp)
   10a22:	e426                	sd	s1,8(sp)
   10a24:	842e                	mv	s0,a1
   10a26:	84aa                	mv	s1,a0
   10a28:	ec06                	sd	ra,24(sp)
   10a2a:	037000ef          	jal	11260 <__malloc_lock>
   10a2e:	ff843503          	ld	a0,-8(s0)
   10a32:	ff040713          	addi	a4,s0,-16
   10a36:	65e9                	lui	a1,0x1a
   10a38:	ffe57793          	andi	a5,a0,-2
   10a3c:	00f70633          	add	a2,a4,a5
   10a40:	39858593          	addi	a1,a1,920 # 1a398 <__malloc_av_>
   10a44:	6614                	ld	a3,8(a2)
   10a46:	0105b803          	ld	a6,16(a1)
   10a4a:	9af1                	andi	a3,a3,-4
   10a4c:	12c80a63          	beq	a6,a2,10b80 <_free_r+0x166>
   10a50:	e614                	sd	a3,8(a2)
   10a52:	8905                	andi	a0,a0,1
   10a54:	00d60833          	add	a6,a2,a3
   10a58:	ed3d                	bnez	a0,10ad6 <_free_r+0xbc>
   10a5a:	ff043303          	ld	t1,-16(s0)
   10a5e:	00883803          	ld	a6,8(a6)
   10a62:	6569                	lui	a0,0x1a
   10a64:	40670733          	sub	a4,a4,t1
   10a68:	01073883          	ld	a7,16(a4) # 1010 <exit-0xf0d8>
   10a6c:	3a850513          	addi	a0,a0,936 # 1a3a8 <__malloc_av_+0x10>
   10a70:	979a                	add	a5,a5,t1
   10a72:	00187813          	andi	a6,a6,1
   10a76:	0ea88863          	beq	a7,a0,10b66 <_free_r+0x14c>
   10a7a:	01873303          	ld	t1,24(a4)
   10a7e:	0068bc23          	sd	t1,24(a7)
   10a82:	01133823          	sd	a7,16(t1)
   10a86:	12080663          	beqz	a6,10bb2 <_free_r+0x198>
   10a8a:	0017e693          	ori	a3,a5,1
   10a8e:	e714                	sd	a3,8(a4)
   10a90:	e21c                	sd	a5,0(a2)
   10a92:	1ff00693          	li	a3,511
   10a96:	04f6ed63          	bltu	a3,a5,10af0 <_free_r+0xd6>
   10a9a:	838d                	srli	a5,a5,0x3
   10a9c:	0017869b          	addiw	a3,a5,1
   10aa0:	0016969b          	slliw	a3,a3,0x1
   10aa4:	068e                	slli	a3,a3,0x3
   10aa6:	0085b803          	ld	a6,8(a1)
   10aaa:	96ae                	add	a3,a3,a1
   10aac:	6288                	ld	a0,0(a3)
   10aae:	4027d61b          	sraiw	a2,a5,0x2
   10ab2:	4785                	li	a5,1
   10ab4:	00c797b3          	sll	a5,a5,a2
   10ab8:	0107e7b3          	or	a5,a5,a6
   10abc:	ff068613          	addi	a2,a3,-16
   10ac0:	ef10                	sd	a2,24(a4)
   10ac2:	eb08                	sd	a0,16(a4)
   10ac4:	e59c                	sd	a5,8(a1)
   10ac6:	e298                	sd	a4,0(a3)
   10ac8:	ed18                	sd	a4,24(a0)
   10aca:	6442                	ld	s0,16(sp)
   10acc:	60e2                	ld	ra,24(sp)
   10ace:	8526                	mv	a0,s1
   10ad0:	64a2                	ld	s1,8(sp)
   10ad2:	6105                	addi	sp,sp,32
   10ad4:	a779                	j	11262 <__malloc_unlock>
   10ad6:	00883503          	ld	a0,8(a6)
   10ada:	8905                	andi	a0,a0,1
   10adc:	c12d                	beqz	a0,10b3e <_free_r+0x124>
   10ade:	0017e693          	ori	a3,a5,1
   10ae2:	fed43c23          	sd	a3,-8(s0)
   10ae6:	e21c                	sd	a5,0(a2)
   10ae8:	1ff00693          	li	a3,511
   10aec:	faf6f7e3          	bgeu	a3,a5,10a9a <_free_r+0x80>
   10af0:	0097d693          	srli	a3,a5,0x9
   10af4:	4611                	li	a2,4
   10af6:	0cd66063          	bltu	a2,a3,10bb6 <_free_r+0x19c>
   10afa:	0067d693          	srli	a3,a5,0x6
   10afe:	0396851b          	addiw	a0,a3,57
   10b02:	0015151b          	slliw	a0,a0,0x1
   10b06:	0386861b          	addiw	a2,a3,56
   10b0a:	050e                	slli	a0,a0,0x3
   10b0c:	952e                	add	a0,a0,a1
   10b0e:	6114                	ld	a3,0(a0)
   10b10:	1541                	addi	a0,a0,-16
   10b12:	00d51663          	bne	a0,a3,10b1e <_free_r+0x104>
   10b16:	a0dd                	j	10bfc <_free_r+0x1e2>
   10b18:	6a94                	ld	a3,16(a3)
   10b1a:	00d50663          	beq	a0,a3,10b26 <_free_r+0x10c>
   10b1e:	6690                	ld	a2,8(a3)
   10b20:	9a71                	andi	a2,a2,-4
   10b22:	fec7ebe3          	bltu	a5,a2,10b18 <_free_r+0xfe>
   10b26:	6e88                	ld	a0,24(a3)
   10b28:	ef08                	sd	a0,24(a4)
   10b2a:	eb14                	sd	a3,16(a4)
   10b2c:	6442                	ld	s0,16(sp)
   10b2e:	e918                	sd	a4,16(a0)
   10b30:	60e2                	ld	ra,24(sp)
   10b32:	8526                	mv	a0,s1
   10b34:	64a2                	ld	s1,8(sp)
   10b36:	ee98                	sd	a4,24(a3)
   10b38:	6105                	addi	sp,sp,32
   10b3a:	a725                	j	11262 <__malloc_unlock>
   10b3c:	8082                	ret
   10b3e:	6569                	lui	a0,0x1a
   10b40:	97b6                	add	a5,a5,a3
   10b42:	3a850513          	addi	a0,a0,936 # 1a3a8 <__malloc_av_+0x10>
   10b46:	6a14                	ld	a3,16(a2)
   10b48:	0aa68063          	beq	a3,a0,10be8 <_free_r+0x1ce>
   10b4c:	01863803          	ld	a6,24(a2)
   10b50:	0017e513          	ori	a0,a5,1
   10b54:	00f70633          	add	a2,a4,a5
   10b58:	0106bc23          	sd	a6,24(a3)
   10b5c:	00d83823          	sd	a3,16(a6)
   10b60:	e708                	sd	a0,8(a4)
   10b62:	e21c                	sd	a5,0(a2)
   10b64:	b73d                	j	10a92 <_free_r+0x78>
   10b66:	0e081763          	bnez	a6,10c54 <_free_r+0x23a>
   10b6a:	6a0c                	ld	a1,16(a2)
   10b6c:	6e10                	ld	a2,24(a2)
   10b6e:	96be                	add	a3,a3,a5
   10b70:	0016e793          	ori	a5,a3,1
   10b74:	ed90                	sd	a2,24(a1)
   10b76:	ea0c                	sd	a1,16(a2)
   10b78:	e71c                	sd	a5,8(a4)
   10b7a:	9736                	add	a4,a4,a3
   10b7c:	e314                	sd	a3,0(a4)
   10b7e:	b7b1                	j	10aca <_free_r+0xb0>
   10b80:	8905                	andi	a0,a0,1
   10b82:	96be                	add	a3,a3,a5
   10b84:	e909                	bnez	a0,10b96 <_free_r+0x17c>
   10b86:	ff043503          	ld	a0,-16(s0)
   10b8a:	8f09                	sub	a4,a4,a0
   10b8c:	6f1c                	ld	a5,24(a4)
   10b8e:	6b10                	ld	a2,16(a4)
   10b90:	96aa                	add	a3,a3,a0
   10b92:	ee1c                	sd	a5,24(a2)
   10b94:	eb90                	sd	a2,16(a5)
   10b96:	0016e613          	ori	a2,a3,1
   10b9a:	2301b783          	ld	a5,560(gp) # 1add8 <__malloc_trim_threshold>
   10b9e:	e710                	sd	a2,8(a4)
   10ba0:	e998                	sd	a4,16(a1)
   10ba2:	f2f6e4e3          	bltu	a3,a5,10aca <_free_r+0xb0>
   10ba6:	2601b583          	ld	a1,608(gp) # 1ae08 <__malloc_top_pad>
   10baa:	8526                	mv	a0,s1
   10bac:	da1ff0ef          	jal	1094c <_malloc_trim_r>
   10bb0:	bf29                	j	10aca <_free_r+0xb0>
   10bb2:	97b6                	add	a5,a5,a3
   10bb4:	bf49                	j	10b46 <_free_r+0x12c>
   10bb6:	4651                	li	a2,20
   10bb8:	02d67063          	bgeu	a2,a3,10bd8 <_free_r+0x1be>
   10bbc:	05400613          	li	a2,84
   10bc0:	04d66963          	bltu	a2,a3,10c12 <_free_r+0x1f8>
   10bc4:	00c7d693          	srli	a3,a5,0xc
   10bc8:	06f6851b          	addiw	a0,a3,111
   10bcc:	0015151b          	slliw	a0,a0,0x1
   10bd0:	06e6861b          	addiw	a2,a3,110
   10bd4:	050e                	slli	a0,a0,0x3
   10bd6:	bf1d                	j	10b0c <_free_r+0xf2>
   10bd8:	05c6851b          	addiw	a0,a3,92
   10bdc:	0015151b          	slliw	a0,a0,0x1
   10be0:	05b6861b          	addiw	a2,a3,91
   10be4:	050e                	slli	a0,a0,0x3
   10be6:	b71d                	j	10b0c <_free_r+0xf2>
   10be8:	f598                	sd	a4,40(a1)
   10bea:	f198                	sd	a4,32(a1)
   10bec:	0017e693          	ori	a3,a5,1
   10bf0:	ef08                	sd	a0,24(a4)
   10bf2:	eb08                	sd	a0,16(a4)
   10bf4:	e714                	sd	a3,8(a4)
   10bf6:	973e                	add	a4,a4,a5
   10bf8:	e31c                	sd	a5,0(a4)
   10bfa:	bdc1                	j	10aca <_free_r+0xb0>
   10bfc:	0085b803          	ld	a6,8(a1)
   10c00:	4026561b          	sraiw	a2,a2,0x2
   10c04:	4785                	li	a5,1
   10c06:	00c797b3          	sll	a5,a5,a2
   10c0a:	0107e7b3          	or	a5,a5,a6
   10c0e:	e59c                	sd	a5,8(a1)
   10c10:	bf21                	j	10b28 <_free_r+0x10e>
   10c12:	15400613          	li	a2,340
   10c16:	00d66c63          	bltu	a2,a3,10c2e <_free_r+0x214>
   10c1a:	00f7d693          	srli	a3,a5,0xf
   10c1e:	0786851b          	addiw	a0,a3,120
   10c22:	0015151b          	slliw	a0,a0,0x1
   10c26:	0776861b          	addiw	a2,a3,119
   10c2a:	050e                	slli	a0,a0,0x3
   10c2c:	b5c5                	j	10b0c <_free_r+0xf2>
   10c2e:	55400613          	li	a2,1364
   10c32:	00d66c63          	bltu	a2,a3,10c4a <_free_r+0x230>
   10c36:	0127d693          	srli	a3,a5,0x12
   10c3a:	07d6851b          	addiw	a0,a3,125
   10c3e:	0015151b          	slliw	a0,a0,0x1
   10c42:	07c6861b          	addiw	a2,a3,124
   10c46:	050e                	slli	a0,a0,0x3
   10c48:	b5d1                	j	10b0c <_free_r+0xf2>
   10c4a:	7f000513          	li	a0,2032
   10c4e:	07e00613          	li	a2,126
   10c52:	bd6d                	j	10b0c <_free_r+0xf2>
   10c54:	0017e693          	ori	a3,a5,1
   10c58:	e714                	sd	a3,8(a4)
   10c5a:	e21c                	sd	a5,0(a2)
   10c5c:	b5bd                	j	10aca <_free_r+0xb0>

0000000000010c5e <_malloc_r>:
   10c5e:	711d                	addi	sp,sp,-96
   10c60:	e4a6                	sd	s1,72(sp)
   10c62:	e0ca                	sd	s2,64(sp)
   10c64:	ec86                	sd	ra,88(sp)
   10c66:	e8a2                	sd	s0,80(sp)
   10c68:	fc4e                	sd	s3,56(sp)
   10c6a:	01758493          	addi	s1,a1,23
   10c6e:	02e00793          	li	a5,46
   10c72:	892a                	mv	s2,a0
   10c74:	0497ed63          	bltu	a5,s1,10cce <_malloc_r+0x70>
   10c78:	02000793          	li	a5,32
   10c7c:	18b7e963          	bltu	a5,a1,10e0e <_malloc_r+0x1b0>
   10c80:	5e0000ef          	jal	11260 <__malloc_lock>
   10c84:	05000793          	li	a5,80
   10c88:	4591                	li	a1,4
   10c8a:	02000493          	li	s1,32
   10c8e:	69e9                	lui	s3,0x1a
   10c90:	39898993          	addi	s3,s3,920 # 1a398 <__malloc_av_>
   10c94:	97ce                	add	a5,a5,s3
   10c96:	6780                	ld	s0,8(a5)
   10c98:	ff078713          	addi	a4,a5,-16
   10c9c:	26e40d63          	beq	s0,a4,10f16 <_malloc_r+0x2b8>
   10ca0:	641c                	ld	a5,8(s0)
   10ca2:	6c14                	ld	a3,24(s0)
   10ca4:	6810                	ld	a2,16(s0)
   10ca6:	9bf1                	andi	a5,a5,-4
   10ca8:	97a2                	add	a5,a5,s0
   10caa:	6798                	ld	a4,8(a5)
   10cac:	ee14                	sd	a3,24(a2)
   10cae:	ea90                	sd	a2,16(a3)
   10cb0:	00176713          	ori	a4,a4,1
   10cb4:	854a                	mv	a0,s2
   10cb6:	e798                	sd	a4,8(a5)
   10cb8:	5aa000ef          	jal	11262 <__malloc_unlock>
   10cbc:	01040513          	addi	a0,s0,16
   10cc0:	60e6                	ld	ra,88(sp)
   10cc2:	6446                	ld	s0,80(sp)
   10cc4:	64a6                	ld	s1,72(sp)
   10cc6:	6906                	ld	s2,64(sp)
   10cc8:	79e2                	ld	s3,56(sp)
   10cca:	6125                	addi	sp,sp,96
   10ccc:	8082                	ret
   10cce:	800007b7          	lui	a5,0x80000
   10cd2:	98c1                	andi	s1,s1,-16
   10cd4:	fff7c793          	not	a5,a5
   10cd8:	1297eb63          	bltu	a5,s1,10e0e <_malloc_r+0x1b0>
   10cdc:	12b4e963          	bltu	s1,a1,10e0e <_malloc_r+0x1b0>
   10ce0:	580000ef          	jal	11260 <__malloc_lock>
   10ce4:	1f700793          	li	a5,503
   10ce8:	3297f263          	bgeu	a5,s1,1100c <_malloc_r+0x3ae>
   10cec:	0094d793          	srli	a5,s1,0x9
   10cf0:	12078463          	beqz	a5,10e18 <_malloc_r+0x1ba>
   10cf4:	4711                	li	a4,4
   10cf6:	26f76763          	bltu	a4,a5,10f64 <_malloc_r+0x306>
   10cfa:	0064d793          	srli	a5,s1,0x6
   10cfe:	0397859b          	addiw	a1,a5,57 # ffffffff80000039 <__BSS_END__+0xffffffff7ffe4c91>
   10d02:	0015961b          	slliw	a2,a1,0x1
   10d06:	0387881b          	addiw	a6,a5,56
   10d0a:	060e                	slli	a2,a2,0x3
   10d0c:	69e9                	lui	s3,0x1a
   10d0e:	39898993          	addi	s3,s3,920 # 1a398 <__malloc_av_>
   10d12:	964e                	add	a2,a2,s3
   10d14:	6600                	ld	s0,8(a2)
   10d16:	1641                	addi	a2,a2,-16
   10d18:	02860163          	beq	a2,s0,10d3a <_malloc_r+0xdc>
   10d1c:	457d                	li	a0,31
   10d1e:	a039                	j	10d2c <_malloc_r+0xce>
   10d20:	6c14                	ld	a3,24(s0)
   10d22:	1e075863          	bgez	a4,10f12 <_malloc_r+0x2b4>
   10d26:	00d60a63          	beq	a2,a3,10d3a <_malloc_r+0xdc>
   10d2a:	8436                	mv	s0,a3
   10d2c:	641c                	ld	a5,8(s0)
   10d2e:	9bf1                	andi	a5,a5,-4
   10d30:	40978733          	sub	a4,a5,s1
   10d34:	fee556e3          	bge	a0,a4,10d20 <_malloc_r+0xc2>
   10d38:	85c2                	mv	a1,a6
   10d3a:	0209b403          	ld	s0,32(s3)
   10d3e:	6869                	lui	a6,0x1a
   10d40:	3a880813          	addi	a6,a6,936 # 1a3a8 <__malloc_av_+0x10>
   10d44:	1d040463          	beq	s0,a6,10f0c <_malloc_r+0x2ae>
   10d48:	641c                	ld	a5,8(s0)
   10d4a:	46fd                	li	a3,31
   10d4c:	9bf1                	andi	a5,a5,-4
   10d4e:	40978733          	sub	a4,a5,s1
   10d52:	28e6c663          	blt	a3,a4,10fde <_malloc_r+0x380>
   10d56:	0309b423          	sd	a6,40(s3)
   10d5a:	0309b023          	sd	a6,32(s3)
   10d5e:	26075563          	bgez	a4,10fc8 <_malloc_r+0x36a>
   10d62:	1ff00713          	li	a4,511
   10d66:	0089b503          	ld	a0,8(s3)
   10d6a:	1af76b63          	bltu	a4,a5,10f20 <_malloc_r+0x2c2>
   10d6e:	838d                	srli	a5,a5,0x3
   10d70:	0017871b          	addiw	a4,a5,1
   10d74:	0017171b          	slliw	a4,a4,0x1
   10d78:	070e                	slli	a4,a4,0x3
   10d7a:	974e                	add	a4,a4,s3
   10d7c:	6310                	ld	a2,0(a4)
   10d7e:	4027d79b          	sraiw	a5,a5,0x2
   10d82:	4685                	li	a3,1
   10d84:	00f697b3          	sll	a5,a3,a5
   10d88:	8d5d                	or	a0,a0,a5
   10d8a:	ff070793          	addi	a5,a4,-16
   10d8e:	ec1c                	sd	a5,24(s0)
   10d90:	e810                	sd	a2,16(s0)
   10d92:	00a9b423          	sd	a0,8(s3)
   10d96:	e300                	sd	s0,0(a4)
   10d98:	ee00                	sd	s0,24(a2)
   10d9a:	4025d79b          	sraiw	a5,a1,0x2
   10d9e:	4605                	li	a2,1
   10da0:	00f61633          	sll	a2,a2,a5
   10da4:	08c56163          	bltu	a0,a2,10e26 <_malloc_r+0x1c8>
   10da8:	00a677b3          	and	a5,a2,a0
   10dac:	ef81                	bnez	a5,10dc4 <_malloc_r+0x166>
   10dae:	0606                	slli	a2,a2,0x1
   10db0:	99f1                	andi	a1,a1,-4
   10db2:	00a677b3          	and	a5,a2,a0
   10db6:	2591                	addiw	a1,a1,4
   10db8:	e791                	bnez	a5,10dc4 <_malloc_r+0x166>
   10dba:	0606                	slli	a2,a2,0x1
   10dbc:	00a677b3          	and	a5,a2,a0
   10dc0:	2591                	addiw	a1,a1,4
   10dc2:	dfe5                	beqz	a5,10dba <_malloc_r+0x15c>
   10dc4:	48fd                	li	a7,31
   10dc6:	0015831b          	addiw	t1,a1,1
   10dca:	0013131b          	slliw	t1,t1,0x1
   10dce:	030e                	slli	t1,t1,0x3
   10dd0:	1341                	addi	t1,t1,-16
   10dd2:	934e                	add	t1,t1,s3
   10dd4:	851a                	mv	a0,t1
   10dd6:	6d1c                	ld	a5,24(a0)
   10dd8:	8e2e                	mv	t3,a1
   10dda:	1af50663          	beq	a0,a5,10f86 <_malloc_r+0x328>
   10dde:	6798                	ld	a4,8(a5)
   10de0:	843e                	mv	s0,a5
   10de2:	6f9c                	ld	a5,24(a5)
   10de4:	9b71                	andi	a4,a4,-4
   10de6:	409706b3          	sub	a3,a4,s1
   10dea:	1ad8c563          	blt	a7,a3,10f94 <_malloc_r+0x336>
   10dee:	fe06c6e3          	bltz	a3,10dda <_malloc_r+0x17c>
   10df2:	9722                	add	a4,a4,s0
   10df4:	6714                	ld	a3,8(a4)
   10df6:	6810                	ld	a2,16(s0)
   10df8:	854a                	mv	a0,s2
   10dfa:	0016e693          	ori	a3,a3,1
   10dfe:	e714                	sd	a3,8(a4)
   10e00:	ee1c                	sd	a5,24(a2)
   10e02:	eb90                	sd	a2,16(a5)
   10e04:	45e000ef          	jal	11262 <__malloc_unlock>
   10e08:	01040513          	addi	a0,s0,16
   10e0c:	bd55                	j	10cc0 <_malloc_r+0x62>
   10e0e:	47b1                	li	a5,12
   10e10:	00f92023          	sw	a5,0(s2)
   10e14:	4501                	li	a0,0
   10e16:	b56d                	j	10cc0 <_malloc_r+0x62>
   10e18:	40000613          	li	a2,1024
   10e1c:	04000593          	li	a1,64
   10e20:	03f00813          	li	a6,63
   10e24:	b5e5                	j	10d0c <_malloc_r+0xae>
   10e26:	0109b403          	ld	s0,16(s3)
   10e2a:	f456                	sd	s5,40(sp)
   10e2c:	641c                	ld	a5,8(s0)
   10e2e:	ffc7fa93          	andi	s5,a5,-4
   10e32:	009ae763          	bltu	s5,s1,10e40 <_malloc_r+0x1e2>
   10e36:	409a8733          	sub	a4,s5,s1
   10e3a:	47fd                	li	a5,31
   10e3c:	0ae7c263          	blt	a5,a4,10ee0 <_malloc_r+0x282>
   10e40:	e466                	sd	s9,8(sp)
   10e42:	f852                	sd	s4,48(sp)
   10e44:	2281b703          	ld	a4,552(gp) # 1add0 <__malloc_sbrk_base>
   10e48:	2601ba03          	ld	s4,608(gp) # 1ae08 <__malloc_top_pad>
   10e4c:	e862                	sd	s8,16(sp)
   10e4e:	f05a                	sd	s6,32(sp)
   10e50:	57fd                	li	a5,-1
   10e52:	01540c33          	add	s8,s0,s5
   10e56:	9a26                	add	s4,s4,s1
   10e58:	2ef70863          	beq	a4,a5,11148 <_malloc_r+0x4ea>
   10e5c:	6785                	lui	a5,0x1
   10e5e:	07fd                	addi	a5,a5,31 # 101f <exit-0xf0c9>
   10e60:	9a3e                	add	s4,s4,a5
   10e62:	77fd                	lui	a5,0xfffff
   10e64:	00fa7a33          	and	s4,s4,a5
   10e68:	85d2                	mv	a1,s4
   10e6a:	854a                	mv	a0,s2
   10e6c:	06f020ef          	jal	136da <_sbrk_r>
   10e70:	57fd                	li	a5,-1
   10e72:	8b2a                	mv	s6,a0
   10e74:	36f50063          	beq	a0,a5,111d4 <_malloc_r+0x576>
   10e78:	ec5e                	sd	s7,24(sp)
   10e7a:	1b856c63          	bltu	a0,s8,11032 <_malloc_r+0x3d4>
   10e7e:	4c018b93          	addi	s7,gp,1216 # 1b068 <__malloc_current_mallinfo>
   10e82:	000ba783          	lw	a5,0(s7)
   10e86:	0147873b          	addw	a4,a5,s4
   10e8a:	00eba023          	sw	a4,0(s7)
   10e8e:	86ba                	mv	a3,a4
   10e90:	20ac1763          	bne	s8,a0,1109e <_malloc_r+0x440>
   10e94:	03451793          	slli	a5,a0,0x34
   10e98:	20079363          	bnez	a5,1109e <_malloc_r+0x440>
   10e9c:	0109bb03          	ld	s6,16(s3)
   10ea0:	014a87b3          	add	a5,s5,s4
   10ea4:	0017e793          	ori	a5,a5,1
   10ea8:	00fb3423          	sd	a5,8(s6)
   10eac:	2581b603          	ld	a2,600(gp) # 1ae00 <__malloc_max_sbrked_mem>
   10eb0:	00e67463          	bgeu	a2,a4,10eb8 <_malloc_r+0x25a>
   10eb4:	24e1bc23          	sd	a4,600(gp) # 1ae00 <__malloc_max_sbrked_mem>
   10eb8:	2501b603          	ld	a2,592(gp) # 1adf8 <__malloc_max_total_mem>
   10ebc:	00e67463          	bgeu	a2,a4,10ec4 <_malloc_r+0x266>
   10ec0:	24e1b823          	sd	a4,592(gp) # 1adf8 <__malloc_max_total_mem>
   10ec4:	6be2                	ld	s7,24(sp)
   10ec6:	845a                	mv	s0,s6
   10ec8:	9bf1                	andi	a5,a5,-4
   10eca:	40978733          	sub	a4,a5,s1
   10ece:	2a97ed63          	bltu	a5,s1,11188 <_malloc_r+0x52a>
   10ed2:	47fd                	li	a5,31
   10ed4:	2ae7da63          	bge	a5,a4,11188 <_malloc_r+0x52a>
   10ed8:	7a42                	ld	s4,48(sp)
   10eda:	7b02                	ld	s6,32(sp)
   10edc:	6c42                	ld	s8,16(sp)
   10ede:	6ca2                	ld	s9,8(sp)
   10ee0:	0014e793          	ori	a5,s1,1
   10ee4:	e41c                	sd	a5,8(s0)
   10ee6:	94a2                	add	s1,s1,s0
   10ee8:	0099b823          	sd	s1,16(s3)
   10eec:	00176713          	ori	a4,a4,1
   10ef0:	854a                	mv	a0,s2
   10ef2:	e498                	sd	a4,8(s1)
   10ef4:	36e000ef          	jal	11262 <__malloc_unlock>
   10ef8:	60e6                	ld	ra,88(sp)
   10efa:	01040513          	addi	a0,s0,16
   10efe:	6446                	ld	s0,80(sp)
   10f00:	7aa2                	ld	s5,40(sp)
   10f02:	64a6                	ld	s1,72(sp)
   10f04:	6906                	ld	s2,64(sp)
   10f06:	79e2                	ld	s3,56(sp)
   10f08:	6125                	addi	sp,sp,96
   10f0a:	8082                	ret
   10f0c:	0089b503          	ld	a0,8(s3)
   10f10:	b569                	j	10d9a <_malloc_r+0x13c>
   10f12:	6810                	ld	a2,16(s0)
   10f14:	bb51                	j	10ca8 <_malloc_r+0x4a>
   10f16:	6f80                	ld	s0,24(a5)
   10f18:	2589                	addiw	a1,a1,2
   10f1a:	e28780e3          	beq	a5,s0,10d3a <_malloc_r+0xdc>
   10f1e:	b349                	j	10ca0 <_malloc_r+0x42>
   10f20:	0097d713          	srli	a4,a5,0x9
   10f24:	4691                	li	a3,4
   10f26:	0ee6fc63          	bgeu	a3,a4,1101e <_malloc_r+0x3c0>
   10f2a:	46d1                	li	a3,20
   10f2c:	26e6e863          	bltu	a3,a4,1119c <_malloc_r+0x53e>
   10f30:	05c7061b          	addiw	a2,a4,92
   10f34:	0016161b          	slliw	a2,a2,0x1
   10f38:	05b7069b          	addiw	a3,a4,91
   10f3c:	060e                	slli	a2,a2,0x3
   10f3e:	964e                	add	a2,a2,s3
   10f40:	6218                	ld	a4,0(a2)
   10f42:	1641                	addi	a2,a2,-16
   10f44:	00e61663          	bne	a2,a4,10f50 <_malloc_r+0x2f2>
   10f48:	a419                	j	1114e <_malloc_r+0x4f0>
   10f4a:	6b18                	ld	a4,16(a4)
   10f4c:	00e60663          	beq	a2,a4,10f58 <_malloc_r+0x2fa>
   10f50:	6714                	ld	a3,8(a4)
   10f52:	9af1                	andi	a3,a3,-4
   10f54:	fed7ebe3          	bltu	a5,a3,10f4a <_malloc_r+0x2ec>
   10f58:	6f10                	ld	a2,24(a4)
   10f5a:	ec10                	sd	a2,24(s0)
   10f5c:	e818                	sd	a4,16(s0)
   10f5e:	ea00                	sd	s0,16(a2)
   10f60:	ef00                	sd	s0,24(a4)
   10f62:	bd25                	j	10d9a <_malloc_r+0x13c>
   10f64:	4751                	li	a4,20
   10f66:	0cf77d63          	bgeu	a4,a5,11040 <_malloc_r+0x3e2>
   10f6a:	05400713          	li	a4,84
   10f6e:	24f76563          	bltu	a4,a5,111b8 <_malloc_r+0x55a>
   10f72:	00c4d793          	srli	a5,s1,0xc
   10f76:	06f7859b          	addiw	a1,a5,111 # fffffffffffff06f <__BSS_END__+0xfffffffffffe3cc7>
   10f7a:	0015961b          	slliw	a2,a1,0x1
   10f7e:	06e7881b          	addiw	a6,a5,110
   10f82:	060e                	slli	a2,a2,0x3
   10f84:	b361                	j	10d0c <_malloc_r+0xae>
   10f86:	2e05                	addiw	t3,t3,1
   10f88:	003e7793          	andi	a5,t3,3
   10f8c:	0541                	addi	a0,a0,16
   10f8e:	c7f1                	beqz	a5,1105a <_malloc_r+0x3fc>
   10f90:	6d1c                	ld	a5,24(a0)
   10f92:	b5a1                	j	10dda <_malloc_r+0x17c>
   10f94:	6810                	ld	a2,16(s0)
   10f96:	0014e593          	ori	a1,s1,1
   10f9a:	e40c                	sd	a1,8(s0)
   10f9c:	ee1c                	sd	a5,24(a2)
   10f9e:	eb90                	sd	a2,16(a5)
   10fa0:	94a2                	add	s1,s1,s0
   10fa2:	0299b423          	sd	s1,40(s3)
   10fa6:	0299b023          	sd	s1,32(s3)
   10faa:	0016e793          	ori	a5,a3,1
   10fae:	0104bc23          	sd	a6,24(s1)
   10fb2:	0104b823          	sd	a6,16(s1)
   10fb6:	e49c                	sd	a5,8(s1)
   10fb8:	9722                	add	a4,a4,s0
   10fba:	854a                	mv	a0,s2
   10fbc:	e314                	sd	a3,0(a4)
   10fbe:	2a4000ef          	jal	11262 <__malloc_unlock>
   10fc2:	01040513          	addi	a0,s0,16
   10fc6:	b9ed                	j	10cc0 <_malloc_r+0x62>
   10fc8:	97a2                	add	a5,a5,s0
   10fca:	6798                	ld	a4,8(a5)
   10fcc:	854a                	mv	a0,s2
   10fce:	00176713          	ori	a4,a4,1
   10fd2:	e798                	sd	a4,8(a5)
   10fd4:	28e000ef          	jal	11262 <__malloc_unlock>
   10fd8:	01040513          	addi	a0,s0,16
   10fdc:	b1d5                	j	10cc0 <_malloc_r+0x62>
   10fde:	0014e693          	ori	a3,s1,1
   10fe2:	e414                	sd	a3,8(s0)
   10fe4:	94a2                	add	s1,s1,s0
   10fe6:	0299b423          	sd	s1,40(s3)
   10fea:	0299b023          	sd	s1,32(s3)
   10fee:	00176693          	ori	a3,a4,1
   10ff2:	0104bc23          	sd	a6,24(s1)
   10ff6:	0104b823          	sd	a6,16(s1)
   10ffa:	e494                	sd	a3,8(s1)
   10ffc:	97a2                	add	a5,a5,s0
   10ffe:	854a                	mv	a0,s2
   11000:	e398                	sd	a4,0(a5)
   11002:	260000ef          	jal	11262 <__malloc_unlock>
   11006:	01040513          	addi	a0,s0,16
   1100a:	b95d                	j	10cc0 <_malloc_r+0x62>
   1100c:	0034d593          	srli	a1,s1,0x3
   11010:	0015879b          	addiw	a5,a1,1
   11014:	0017979b          	slliw	a5,a5,0x1
   11018:	2581                	sext.w	a1,a1
   1101a:	078e                	slli	a5,a5,0x3
   1101c:	b98d                	j	10c8e <_malloc_r+0x30>
   1101e:	0067d713          	srli	a4,a5,0x6
   11022:	0397061b          	addiw	a2,a4,57
   11026:	0016161b          	slliw	a2,a2,0x1
   1102a:	0387069b          	addiw	a3,a4,56
   1102e:	060e                	slli	a2,a2,0x3
   11030:	b739                	j	10f3e <_malloc_r+0x2e0>
   11032:	05340e63          	beq	s0,s3,1108e <_malloc_r+0x430>
   11036:	0109b403          	ld	s0,16(s3)
   1103a:	6be2                	ld	s7,24(sp)
   1103c:	641c                	ld	a5,8(s0)
   1103e:	b569                	j	10ec8 <_malloc_r+0x26a>
   11040:	05c7859b          	addiw	a1,a5,92
   11044:	0015961b          	slliw	a2,a1,0x1
   11048:	05b7881b          	addiw	a6,a5,91
   1104c:	060e                	slli	a2,a2,0x3
   1104e:	b97d                	j	10d0c <_malloc_r+0xae>
   11050:	01033783          	ld	a5,16(t1)
   11054:	35fd                	addiw	a1,a1,-1
   11056:	20679263          	bne	a5,t1,1125a <_malloc_r+0x5fc>
   1105a:	0035f793          	andi	a5,a1,3
   1105e:	1341                	addi	t1,t1,-16
   11060:	fbe5                	bnez	a5,11050 <_malloc_r+0x3f2>
   11062:	0089b703          	ld	a4,8(s3)
   11066:	fff64793          	not	a5,a2
   1106a:	8ff9                	and	a5,a5,a4
   1106c:	00f9b423          	sd	a5,8(s3)
   11070:	0606                	slli	a2,a2,0x1
   11072:	dac7eae3          	bltu	a5,a2,10e26 <_malloc_r+0x1c8>
   11076:	da0608e3          	beqz	a2,10e26 <_malloc_r+0x1c8>
   1107a:	00f67733          	and	a4,a2,a5
   1107e:	e711                	bnez	a4,1108a <_malloc_r+0x42c>
   11080:	0606                	slli	a2,a2,0x1
   11082:	00f67733          	and	a4,a2,a5
   11086:	2e11                	addiw	t3,t3,4
   11088:	df65                	beqz	a4,11080 <_malloc_r+0x422>
   1108a:	85f2                	mv	a1,t3
   1108c:	bb2d                	j	10dc6 <_malloc_r+0x168>
   1108e:	4c018b93          	addi	s7,gp,1216 # 1b068 <__malloc_current_mallinfo>
   11092:	000ba783          	lw	a5,0(s7)
   11096:	014786bb          	addw	a3,a5,s4
   1109a:	00dba023          	sw	a3,0(s7)
   1109e:	2281b703          	ld	a4,552(gp) # 1add0 <__malloc_sbrk_base>
   110a2:	57fd                	li	a5,-1
   110a4:	12f70c63          	beq	a4,a5,111dc <_malloc_r+0x57e>
   110a8:	418b07b3          	sub	a5,s6,s8
   110ac:	9fb5                	addw	a5,a5,a3
   110ae:	00fba023          	sw	a5,0(s7)
   110b2:	00fb7c93          	andi	s9,s6,15
   110b6:	0a0c8563          	beqz	s9,11160 <_malloc_r+0x502>
   110ba:	419b0b33          	sub	s6,s6,s9
   110be:	6705                	lui	a4,0x1
   110c0:	0741                	addi	a4,a4,16 # 1010 <exit-0xf0d8>
   110c2:	0b41                	addi	s6,s6,16
   110c4:	41970c33          	sub	s8,a4,s9
   110c8:	9a5a                	add	s4,s4,s6
   110ca:	414c0c33          	sub	s8,s8,s4
   110ce:	1c52                	slli	s8,s8,0x34
   110d0:	034c5c13          	srli	s8,s8,0x34
   110d4:	85e2                	mv	a1,s8
   110d6:	854a                	mv	a0,s2
   110d8:	602020ef          	jal	136da <_sbrk_r>
   110dc:	57fd                	li	a5,-1
   110de:	12f50e63          	beq	a0,a5,1121a <_malloc_r+0x5bc>
   110e2:	41650533          	sub	a0,a0,s6
   110e6:	000c069b          	sext.w	a3,s8
   110ea:	01850a33          	add	s4,a0,s8
   110ee:	000ba703          	lw	a4,0(s7)
   110f2:	0169b823          	sd	s6,16(s3)
   110f6:	001a6793          	ori	a5,s4,1
   110fa:	9f35                	addw	a4,a4,a3
   110fc:	00eba023          	sw	a4,0(s7)
   11100:	00fb3423          	sd	a5,8(s6)
   11104:	db3404e3          	beq	s0,s3,10eac <_malloc_r+0x24e>
   11108:	467d                	li	a2,31
   1110a:	07567b63          	bgeu	a2,s5,11180 <_malloc_r+0x522>
   1110e:	6414                	ld	a3,8(s0)
   11110:	fe8a8793          	addi	a5,s5,-24
   11114:	9bc1                	andi	a5,a5,-16
   11116:	8a85                	andi	a3,a3,1
   11118:	8edd                	or	a3,a3,a5
   1111a:	e414                	sd	a3,8(s0)
   1111c:	45a5                	li	a1,9
   1111e:	00f406b3          	add	a3,s0,a5
   11122:	e68c                	sd	a1,8(a3)
   11124:	ea8c                	sd	a1,16(a3)
   11126:	00f66563          	bltu	a2,a5,11130 <_malloc_r+0x4d2>
   1112a:	008b3783          	ld	a5,8(s6)
   1112e:	bbbd                	j	10eac <_malloc_r+0x24e>
   11130:	01040593          	addi	a1,s0,16
   11134:	854a                	mv	a0,s2
   11136:	8e5ff0ef          	jal	10a1a <_free_r>
   1113a:	0109bb03          	ld	s6,16(s3)
   1113e:	000ba703          	lw	a4,0(s7)
   11142:	008b3783          	ld	a5,8(s6)
   11146:	b39d                	j	10eac <_malloc_r+0x24e>
   11148:	020a0a13          	addi	s4,s4,32
   1114c:	bb31                	j	10e68 <_malloc_r+0x20a>
   1114e:	4026d69b          	sraiw	a3,a3,0x2
   11152:	4785                	li	a5,1
   11154:	00d797b3          	sll	a5,a5,a3
   11158:	8d5d                	or	a0,a0,a5
   1115a:	00a9b423          	sd	a0,8(s3)
   1115e:	bbf5                	j	10f5a <_malloc_r+0x2fc>
   11160:	014b0c33          	add	s8,s6,s4
   11164:	41800c33          	neg	s8,s8
   11168:	1c52                	slli	s8,s8,0x34
   1116a:	034c5c13          	srli	s8,s8,0x34
   1116e:	85e2                	mv	a1,s8
   11170:	854a                	mv	a0,s2
   11172:	568020ef          	jal	136da <_sbrk_r>
   11176:	57fd                	li	a5,-1
   11178:	4681                	li	a3,0
   1117a:	f6f514e3          	bne	a0,a5,110e2 <_malloc_r+0x484>
   1117e:	bf85                	j	110ee <_malloc_r+0x490>
   11180:	6be2                	ld	s7,24(sp)
   11182:	4785                	li	a5,1
   11184:	00fb3423          	sd	a5,8(s6)
   11188:	854a                	mv	a0,s2
   1118a:	0d8000ef          	jal	11262 <__malloc_unlock>
   1118e:	4501                	li	a0,0
   11190:	7a42                	ld	s4,48(sp)
   11192:	7aa2                	ld	s5,40(sp)
   11194:	7b02                	ld	s6,32(sp)
   11196:	6c42                	ld	s8,16(sp)
   11198:	6ca2                	ld	s9,8(sp)
   1119a:	b61d                	j	10cc0 <_malloc_r+0x62>
   1119c:	05400693          	li	a3,84
   111a0:	04e6e163          	bltu	a3,a4,111e2 <_malloc_r+0x584>
   111a4:	00c7d713          	srli	a4,a5,0xc
   111a8:	06f7061b          	addiw	a2,a4,111
   111ac:	0016161b          	slliw	a2,a2,0x1
   111b0:	06e7069b          	addiw	a3,a4,110
   111b4:	060e                	slli	a2,a2,0x3
   111b6:	b361                	j	10f3e <_malloc_r+0x2e0>
   111b8:	15400713          	li	a4,340
   111bc:	04f76163          	bltu	a4,a5,111fe <_malloc_r+0x5a0>
   111c0:	00f4d793          	srli	a5,s1,0xf
   111c4:	0787859b          	addiw	a1,a5,120
   111c8:	0015961b          	slliw	a2,a1,0x1
   111cc:	0777881b          	addiw	a6,a5,119
   111d0:	060e                	slli	a2,a2,0x3
   111d2:	be2d                	j	10d0c <_malloc_r+0xae>
   111d4:	0109b403          	ld	s0,16(s3)
   111d8:	641c                	ld	a5,8(s0)
   111da:	b1fd                	j	10ec8 <_malloc_r+0x26a>
   111dc:	2361b423          	sd	s6,552(gp) # 1add0 <__malloc_sbrk_base>
   111e0:	bdc9                	j	110b2 <_malloc_r+0x454>
   111e2:	15400693          	li	a3,340
   111e6:	04e6e063          	bltu	a3,a4,11226 <_malloc_r+0x5c8>
   111ea:	00f7d713          	srli	a4,a5,0xf
   111ee:	0787061b          	addiw	a2,a4,120
   111f2:	0016161b          	slliw	a2,a2,0x1
   111f6:	0777069b          	addiw	a3,a4,119
   111fa:	060e                	slli	a2,a2,0x3
   111fc:	b389                	j	10f3e <_malloc_r+0x2e0>
   111fe:	55400713          	li	a4,1364
   11202:	04f76063          	bltu	a4,a5,11242 <_malloc_r+0x5e4>
   11206:	0124d793          	srli	a5,s1,0x12
   1120a:	07d7859b          	addiw	a1,a5,125
   1120e:	0015961b          	slliw	a2,a1,0x1
   11212:	07c7881b          	addiw	a6,a5,124
   11216:	060e                	slli	a2,a2,0x3
   11218:	bcd5                	j	10d0c <_malloc_r+0xae>
   1121a:	1cc1                	addi	s9,s9,-16
   1121c:	9a66                	add	s4,s4,s9
   1121e:	416a0a33          	sub	s4,s4,s6
   11222:	4681                	li	a3,0
   11224:	b5e9                	j	110ee <_malloc_r+0x490>
   11226:	55400693          	li	a3,1364
   1122a:	02e6e363          	bltu	a3,a4,11250 <_malloc_r+0x5f2>
   1122e:	0127d713          	srli	a4,a5,0x12
   11232:	07d7061b          	addiw	a2,a4,125
   11236:	0016161b          	slliw	a2,a2,0x1
   1123a:	07c7069b          	addiw	a3,a4,124
   1123e:	060e                	slli	a2,a2,0x3
   11240:	b9fd                	j	10f3e <_malloc_r+0x2e0>
   11242:	7f000613          	li	a2,2032
   11246:	07f00593          	li	a1,127
   1124a:	07e00813          	li	a6,126
   1124e:	bc7d                	j	10d0c <_malloc_r+0xae>
   11250:	7f000613          	li	a2,2032
   11254:	07e00693          	li	a3,126
   11258:	b1dd                	j	10f3e <_malloc_r+0x2e0>
   1125a:	0089b783          	ld	a5,8(s3)
   1125e:	bd09                	j	11070 <_malloc_r+0x412>

0000000000011260 <__malloc_lock>:
   11260:	8082                	ret

0000000000011262 <__malloc_unlock>:
   11262:	8082                	ret

0000000000011264 <_vfprintf_r>:
   11264:	db010113          	addi	sp,sp,-592
   11268:	24113423          	sd	ra,584(sp)
   1126c:	24813023          	sd	s0,576(sp)
   11270:	23213823          	sd	s2,560(sp)
   11274:	ffe6                	sd	s9,504(sp)
   11276:	892e                	mv	s2,a1
   11278:	8cb2                	mv	s9,a2
   1127a:	f036                	sd	a3,32(sp)
   1127c:	842a                	mv	s0,a0
   1127e:	e42a                	sd	a0,8(sp)
   11280:	44e020ef          	jal	136ce <_localeconv_r>
   11284:	611c                	ld	a5,0(a0)
   11286:	853e                	mv	a0,a5
   11288:	ecbe                	sd	a5,88(sp)
   1128a:	6d2020ef          	jal	1395c <strlen>
   1128e:	e8aa                	sd	a0,80(sp)
   11290:	e982                	sd	zero,208(sp)
   11292:	ed82                	sd	zero,216(sp)
   11294:	c409                	beqz	s0,1129e <_vfprintf_r+0x3a>
   11296:	6438                	ld	a4,72(s0)
   11298:	e319                	bnez	a4,1129e <_vfprintf_r+0x3a>
   1129a:	2240106f          	j	124be <_vfprintf_r+0x125a>
   1129e:	01091683          	lh	a3,16(s2)
   112a2:	0ac92703          	lw	a4,172(s2)
   112a6:	03269613          	slli	a2,a3,0x32
   112aa:	00064b63          	bltz	a2,112c0 <_vfprintf_r+0x5c>
   112ae:	7679                	lui	a2,0xffffe
   112b0:	167d                	addi	a2,a2,-1 # ffffffffffffdfff <__BSS_END__+0xfffffffffffe2c57>
   112b2:	6589                	lui	a1,0x2
   112b4:	8ecd                	or	a3,a3,a1
   112b6:	8f71                	and	a4,a4,a2
   112b8:	00d91823          	sh	a3,16(s2)
   112bc:	0ae92623          	sw	a4,172(s2)
   112c0:	03271693          	slli	a3,a4,0x32
   112c4:	0006d463          	bgez	a3,112cc <_vfprintf_r+0x68>
   112c8:	7a20106f          	j	12a6a <_vfprintf_r+0x1806>
   112cc:	01091703          	lh	a4,16(s2)
   112d0:	00877693          	andi	a3,a4,8
   112d4:	24068e63          	beqz	a3,11530 <_vfprintf_r+0x2cc>
   112d8:	01893683          	ld	a3,24(s2)
   112dc:	24068a63          	beqz	a3,11530 <_vfprintf_r+0x2cc>
   112e0:	8b69                	andi	a4,a4,26
   112e2:	46a9                	li	a3,10
   112e4:	26d70363          	beq	a4,a3,1154a <_vfprintf_r+0x2e6>
   112e8:	23413023          	sd	s4,544(sp)
   112ec:	21513c23          	sd	s5,536(sp)
   112f0:	fbea                	sd	s10,496(sp)
   112f2:	6765                	lui	a4,0x19
   112f4:	22913c23          	sd	s1,568(sp)
   112f8:	23313423          	sd	s3,552(sp)
   112fc:	21613823          	sd	s6,528(sp)
   11300:	21713423          	sd	s7,520(sp)
   11304:	21813023          	sd	s8,512(sp)
   11308:	f7ee                	sd	s11,488(sp)
   1130a:	8d66                	mv	s10,s9
   1130c:	ba870793          	addi	a5,a4,-1112 # 18ba8 <__clzdi2+0x1d2>
   11310:	000d4703          	lbu	a4,0(s10)
   11314:	16010a13          	addi	s4,sp,352
   11318:	6ae5                	lui	s5,0x19
   1131a:	f1d2                	sd	s4,224(sp)
   1131c:	f982                	sd	zero,240(sp)
   1131e:	d582                	sw	zero,232(sp)
   11320:	fc02                	sd	zero,56(sp)
   11322:	f082                	sd	zero,96(sp)
   11324:	f882                	sd	zero,112(sp)
   11326:	e102                	sd	zero,128(sp)
   11328:	e502                	sd	zero,136(sp)
   1132a:	fc82                	sd	zero,120(sp)
   1132c:	e802                	sd	zero,16(sp)
   1132e:	f43e                	sd	a5,40(sp)
   11330:	8452                	mv	s0,s4
   11332:	d18a8a93          	addi	s5,s5,-744 # 18d18 <zeroes.0>
   11336:	1a070163          	beqz	a4,114d8 <_vfprintf_r+0x274>
   1133a:	89ea                	mv	s3,s10
   1133c:	02500693          	li	a3,37
   11340:	2cd70d63          	beq	a4,a3,1161a <_vfprintf_r+0x3b6>
   11344:	0019c703          	lbu	a4,1(s3)
   11348:	0985                	addi	s3,s3,1
   1134a:	fb7d                	bnez	a4,11340 <_vfprintf_r+0xdc>
   1134c:	41a984bb          	subw	s1,s3,s10
   11350:	18048463          	beqz	s1,114d8 <_vfprintf_r+0x274>
   11354:	572e                	lw	a4,232(sp)
   11356:	76ce                	ld	a3,240(sp)
   11358:	01a43023          	sd	s10,0(s0)
   1135c:	2705                	addiw	a4,a4,1
   1135e:	96a6                	add	a3,a3,s1
   11360:	e404                	sd	s1,8(s0)
   11362:	f9b6                	sd	a3,240(sp)
   11364:	d5ba                	sw	a4,232(sp)
   11366:	0007069b          	sext.w	a3,a4
   1136a:	471d                	li	a4,7
   1136c:	0441                	addi	s0,s0,16
   1136e:	2ad74d63          	blt	a4,a3,11628 <_vfprintf_r+0x3c4>
   11372:	67c2                	ld	a5,16(sp)
   11374:	0009c703          	lbu	a4,0(s3)
   11378:	9fa5                	addw	a5,a5,s1
   1137a:	e83e                	sd	a5,16(sp)
   1137c:	14070e63          	beqz	a4,114d8 <_vfprintf_r+0x274>
   11380:	0019c303          	lbu	t1,1(s3)
   11384:	0a0107a3          	sb	zero,175(sp)
   11388:	0985                	addi	s3,s3,1
   1138a:	5b7d                	li	s6,-1
   1138c:	4b81                	li	s7,0
   1138e:	4d81                	li	s11,0
   11390:	05a00493          	li	s1,90
   11394:	0985                	addi	s3,s3,1
   11396:	2301                	sext.w	t1,t1
   11398:	fe03079b          	addiw	a5,t1,-32
   1139c:	0007871b          	sext.w	a4,a5
   113a0:	04e4e563          	bltu	s1,a4,113ea <_vfprintf_r+0x186>
   113a4:	02079713          	slli	a4,a5,0x20
   113a8:	01e75793          	srli	a5,a4,0x1e
   113ac:	7722                	ld	a4,40(sp)
   113ae:	97ba                	add	a5,a5,a4
   113b0:	439c                	lw	a5,0(a5)
   113b2:	8782                	jr	a5
   113b4:	4b81                	li	s7,0
   113b6:	46a5                	li	a3,9
   113b8:	0009c703          	lbu	a4,0(s3)
   113bc:	002b979b          	slliw	a5,s7,0x2
   113c0:	01778bbb          	addw	s7,a5,s7
   113c4:	fd03031b          	addiw	t1,t1,-48
   113c8:	001b9b9b          	slliw	s7,s7,0x1
   113cc:	fd07079b          	addiw	a5,a4,-48
   113d0:	01730bbb          	addw	s7,t1,s7
   113d4:	0985                	addi	s3,s3,1
   113d6:	0007031b          	sext.w	t1,a4
   113da:	fcf6ffe3          	bgeu	a3,a5,113b8 <_vfprintf_r+0x154>
   113de:	fe03079b          	addiw	a5,t1,-32
   113e2:	0007871b          	sext.w	a4,a5
   113e6:	fae4ffe3          	bgeu	s1,a4,113a4 <_vfprintf_r+0x140>
   113ea:	0e030763          	beqz	t1,114d8 <_vfprintf_r+0x274>
   113ee:	0e610c23          	sb	t1,248(sp)
   113f2:	0a0107a3          	sb	zero,175(sp)
   113f6:	4c05                	li	s8,1
   113f8:	4685                	li	a3,1
   113fa:	0f810d13          	addi	s10,sp,248
   113fe:	ec02                	sd	zero,24(sp)
   11400:	4b01                	li	s6,0
   11402:	e482                	sd	zero,72(sp)
   11404:	e082                	sd	zero,64(sp)
   11406:	f802                	sd	zero,48(sp)
   11408:	002df293          	andi	t0,s11,2
   1140c:	00028363          	beqz	t0,11412 <_vfprintf_r+0x1ae>
   11410:	2c09                	addiw	s8,s8,2
   11412:	084dfc93          	andi	s9,s11,132
   11416:	74ce                	ld	s1,240(sp)
   11418:	000c9663          	bnez	s9,11424 <_vfprintf_r+0x1c0>
   1141c:	418b873b          	subw	a4,s7,s8
   11420:	2ee044e3          	bgtz	a4,11f08 <_vfprintf_r+0xca4>
   11424:	0af14703          	lbu	a4,175(sp)
   11428:	c30d                	beqz	a4,1144a <_vfprintf_r+0x1e6>
   1142a:	572e                	lw	a4,232(sp)
   1142c:	0af10613          	addi	a2,sp,175
   11430:	e010                	sd	a2,0(s0)
   11432:	2705                	addiw	a4,a4,1
   11434:	4605                	li	a2,1
   11436:	0485                	addi	s1,s1,1
   11438:	e410                	sd	a2,8(s0)
   1143a:	d5ba                	sw	a4,232(sp)
   1143c:	0007061b          	sext.w	a2,a4
   11440:	f9a6                	sd	s1,240(sp)
   11442:	471d                	li	a4,7
   11444:	0441                	addi	s0,s0,16
   11446:	4ec74b63          	blt	a4,a2,1193c <_vfprintf_r+0x6d8>
   1144a:	02028163          	beqz	t0,1146c <_vfprintf_r+0x208>
   1144e:	572e                	lw	a4,232(sp)
   11450:	4609                	li	a2,2
   11452:	0489                	addi	s1,s1,2
   11454:	2705                	addiw	a4,a4,1
   11456:	191c                	addi	a5,sp,176
   11458:	e410                	sd	a2,8(s0)
   1145a:	e01c                	sd	a5,0(s0)
   1145c:	0007061b          	sext.w	a2,a4
   11460:	d5ba                	sw	a4,232(sp)
   11462:	f9a6                	sd	s1,240(sp)
   11464:	471d                	li	a4,7
   11466:	0441                	addi	s0,s0,16
   11468:	32c74fe3          	blt	a4,a2,11fa6 <_vfprintf_r+0xd42>
   1146c:	08000713          	li	a4,128
   11470:	10ec8ce3          	beq	s9,a4,11d88 <_vfprintf_r+0xb24>
   11474:	40db0b3b          	subw	s6,s6,a3
   11478:	1b604be3          	bgtz	s6,11e2e <_vfprintf_r+0xbca>
   1147c:	100df713          	andi	a4,s11,256
   11480:	020710e3          	bnez	a4,11ca0 <_vfprintf_r+0xa3c>
   11484:	572e                	lw	a4,232(sp)
   11486:	94b6                	add	s1,s1,a3
   11488:	01a43023          	sd	s10,0(s0)
   1148c:	2705                	addiw	a4,a4,1
   1148e:	e414                	sd	a3,8(s0)
   11490:	f9a6                	sd	s1,240(sp)
   11492:	d5ba                	sw	a4,232(sp)
   11494:	479d                	li	a5,7
   11496:	54e7cf63          	blt	a5,a4,119f4 <_vfprintf_r+0x790>
   1149a:	0441                	addi	s0,s0,16
   1149c:	004dfe13          	andi	t3,s11,4
   114a0:	000e0663          	beqz	t3,114ac <_vfprintf_r+0x248>
   114a4:	418b8b3b          	subw	s6,s7,s8
   114a8:	31604de3          	bgtz	s6,11fc2 <_vfprintf_r+0xd5e>
   114ac:	87de                	mv	a5,s7
   114ae:	018bd363          	bge	s7,s8,114b4 <_vfprintf_r+0x250>
   114b2:	87e2                	mv	a5,s8
   114b4:	6742                	ld	a4,16(sp)
   114b6:	9fb9                	addw	a5,a5,a4
   114b8:	e83e                	sd	a5,16(sp)
   114ba:	200497e3          	bnez	s1,11ec8 <_vfprintf_r+0xc64>
   114be:	67e2                	ld	a5,24(sp)
   114c0:	d582                	sw	zero,232(sp)
   114c2:	c789                	beqz	a5,114cc <_vfprintf_r+0x268>
   114c4:	65e2                	ld	a1,24(sp)
   114c6:	6522                	ld	a0,8(sp)
   114c8:	d52ff0ef          	jal	10a1a <_free_r>
   114cc:	8452                	mv	s0,s4
   114ce:	8d4e                	mv	s10,s3
   114d0:	000d4703          	lbu	a4,0(s10)
   114d4:	e60713e3          	bnez	a4,1133a <_vfprintf_r+0xd6>
   114d8:	77ce                	ld	a5,240(sp)
   114da:	c399                	beqz	a5,114e0 <_vfprintf_r+0x27c>
   114dc:	3a20106f          	j	1287e <_vfprintf_r+0x161a>
   114e0:	01095783          	lhu	a5,16(s2)
   114e4:	23813483          	ld	s1,568(sp)
   114e8:	22813983          	ld	s3,552(sp)
   114ec:	0407f793          	andi	a5,a5,64
   114f0:	22013a03          	ld	s4,544(sp)
   114f4:	21813a83          	ld	s5,536(sp)
   114f8:	21013b03          	ld	s6,528(sp)
   114fc:	20813b83          	ld	s7,520(sp)
   11500:	20013c03          	ld	s8,512(sp)
   11504:	7d5e                	ld	s10,496(sp)
   11506:	7dbe                	ld	s11,488(sp)
   11508:	c399                	beqz	a5,1150e <_vfprintf_r+0x2aa>
   1150a:	5600106f          	j	12a6a <_vfprintf_r+0x1806>
   1150e:	24813083          	ld	ra,584(sp)
   11512:	24013403          	ld	s0,576(sp)
   11516:	6542                	ld	a0,16(sp)
   11518:	23013903          	ld	s2,560(sp)
   1151c:	7cfe                	ld	s9,504(sp)
   1151e:	25010113          	addi	sp,sp,592
   11522:	8082                	ret
   11524:	010ded93          	ori	s11,s11,16
   11528:	0009c303          	lbu	t1,0(s3)
   1152c:	2d81                	sext.w	s11,s11
   1152e:	b59d                	j	11394 <_vfprintf_r+0x130>
   11530:	6522                	ld	a0,8(sp)
   11532:	85ca                	mv	a1,s2
   11534:	779010ef          	jal	134ac <__swsetup_r>
   11538:	c119                	beqz	a0,1153e <_vfprintf_r+0x2da>
   1153a:	5300106f          	j	12a6a <_vfprintf_r+0x1806>
   1153e:	01091703          	lh	a4,16(s2)
   11542:	46a9                	li	a3,10
   11544:	8b69                	andi	a4,a4,26
   11546:	dad711e3          	bne	a4,a3,112e8 <_vfprintf_r+0x84>
   1154a:	01291703          	lh	a4,18(s2)
   1154e:	d8074de3          	bltz	a4,112e8 <_vfprintf_r+0x84>
   11552:	7682                	ld	a3,32(sp)
   11554:	6522                	ld	a0,8(sp)
   11556:	8666                	mv	a2,s9
   11558:	85ca                	mv	a1,s2
   1155a:	05d010ef          	jal	12db6 <__sbprintf>
   1155e:	e82a                	sd	a0,16(sp)
   11560:	b77d                	j	1150e <_vfprintf_r+0x2aa>
   11562:	010dee13          	ori	t3,s11,16
   11566:	000e0d9b          	sext.w	s11,t3
   1156a:	7682                	ld	a3,32(sp)
   1156c:	020df793          	andi	a5,s11,32
   11570:	00868713          	addi	a4,a3,8
   11574:	4a078763          	beqz	a5,11a22 <_vfprintf_r+0x7be>
   11578:	629c                	ld	a5,0(a3)
   1157a:	84be                	mv	s1,a5
   1157c:	4c07c463          	bltz	a5,11a44 <_vfprintf_r+0x7e0>
   11580:	4c0b45e3          	bltz	s6,1224a <_vfprintf_r+0xfe6>
   11584:	f7fdfc93          	andi	s9,s11,-129
   11588:	2c81                	sext.w	s9,s9
   1158a:	c099                	beqz	s1,11590 <_vfprintf_r+0x32c>
   1158c:	7790006f          	j	12504 <_vfprintf_r+0x12a0>
   11590:	000b0463          	beqz	s6,11598 <_vfprintf_r+0x334>
   11594:	6740106f          	j	12c08 <_vfprintf_r+0x19a4>
   11598:	4681                	li	a3,0
   1159a:	f03a                	sd	a4,32(sp)
   1159c:	8de6                	mv	s11,s9
   1159e:	15c10d13          	addi	s10,sp,348
   115a2:	0af14703          	lbu	a4,175(sp)
   115a6:	885a                	mv	a6,s6
   115a8:	00db5363          	bge	s6,a3,115ae <_vfprintf_r+0x34a>
   115ac:	8836                	mv	a6,a3
   115ae:	ec02                	sd	zero,24(sp)
   115b0:	e482                	sd	zero,72(sp)
   115b2:	e082                	sd	zero,64(sp)
   115b4:	f802                	sd	zero,48(sp)
   115b6:	00080c1b          	sext.w	s8,a6
   115ba:	e40707e3          	beqz	a4,11408 <_vfprintf_r+0x1a4>
   115be:	2c05                	addiw	s8,s8,1
   115c0:	b5a1                	j	11408 <_vfprintf_r+0x1a4>
   115c2:	010dee13          	ori	t3,s11,16
   115c6:	000e0d9b          	sext.w	s11,t3
   115ca:	7682                	ld	a3,32(sp)
   115cc:	020df793          	andi	a5,s11,32
   115d0:	00868713          	addi	a4,a3,8
   115d4:	42078a63          	beqz	a5,11a08 <_vfprintf_r+0x7a4>
   115d8:	6284                	ld	s1,0(a3)
   115da:	bffdfc93          	andi	s9,s11,-1025
   115de:	2c81                	sext.w	s9,s9
   115e0:	f03a                	sd	a4,32(sp)
   115e2:	4781                	li	a5,0
   115e4:	4701                	li	a4,0
   115e6:	0ae107a3          	sb	a4,175(sp)
   115ea:	460b4863          	bltz	s6,11a5a <_vfprintf_r+0x7f6>
   115ee:	f7fcfe13          	andi	t3,s9,-129
   115f2:	000e0d9b          	sext.w	s11,t3
   115f6:	0e0498e3          	bnez	s1,11ee6 <_vfprintf_r+0xc82>
   115fa:	740b1e63          	bnez	s6,11d56 <_vfprintf_r+0xaf2>
   115fe:	3c079ae3          	bnez	a5,121d2 <_vfprintf_r+0xf6e>
   11602:	001cf693          	andi	a3,s9,1
   11606:	15c10d13          	addi	s10,sp,348
   1160a:	dec1                	beqz	a3,115a2 <_vfprintf_r+0x33e>
   1160c:	03000793          	li	a5,48
   11610:	14f10da3          	sb	a5,347(sp)
   11614:	15b10d13          	addi	s10,sp,347
   11618:	b769                	j	115a2 <_vfprintf_r+0x33e>
   1161a:	41a984bb          	subw	s1,s3,s10
   1161e:	d2049be3          	bnez	s1,11354 <_vfprintf_r+0xf0>
   11622:	0009c703          	lbu	a4,0(s3)
   11626:	bb99                	j	1137c <_vfprintf_r+0x118>
   11628:	6522                	ld	a0,8(sp)
   1162a:	1190                	addi	a2,sp,224
   1162c:	85ca                	mv	a1,s2
   1162e:	021010ef          	jal	12e4e <__sprint_r>
   11632:	ea0517e3          	bnez	a0,114e0 <_vfprintf_r+0x27c>
   11636:	8452                	mv	s0,s4
   11638:	bb2d                	j	11372 <_vfprintf_r+0x10e>
   1163a:	008df713          	andi	a4,s11,8
   1163e:	3e0713e3          	bnez	a4,12224 <_vfprintf_r+0xfc0>
   11642:	7782                	ld	a5,32(sp)
   11644:	ec1a                	sd	t1,24(sp)
   11646:	2388                	fld	fa0,0(a5)
   11648:	00878c13          	addi	s8,a5,8
   1164c:	2ca070ef          	jal	18916 <__extenddftf2>
   11650:	6362                	ld	t1,24(sp)
   11652:	872a                	mv	a4,a0
   11654:	f062                	sd	s8,32(sp)
   11656:	0988                	addi	a0,sp,208
   11658:	ec1a                	sd	t1,24(sp)
   1165a:	e9ba                	sd	a4,208(sp)
   1165c:	edae                	sd	a1,216(sp)
   1165e:	628020ef          	jal	13c86 <_ldcheck>
   11662:	dd2a                	sw	a0,184(sp)
   11664:	4709                	li	a4,2
   11666:	6362                	ld	t1,24(sp)
   11668:	6ae500e3          	beq	a0,a4,12508 <_vfprintf_r+0x12a4>
   1166c:	4705                	li	a4,1
   1166e:	00e51463          	bne	a0,a4,11676 <_vfprintf_r+0x412>
   11672:	7bb0006f          	j	1262c <_vfprintf_r+0x13c8>
   11676:	06100713          	li	a4,97
   1167a:	56e300e3          	beq	t1,a4,123da <_vfprintf_r+0x1176>
   1167e:	04100713          	li	a4,65
   11682:	05800793          	li	a5,88
   11686:	54e30ce3          	beq	t1,a4,123de <_vfprintf_r+0x117a>
   1168a:	577d                	li	a4,-1
   1168c:	00eb1463          	bne	s6,a4,11694 <_vfprintf_r+0x430>
   11690:	5700106f          	j	12c00 <_vfprintf_r+0x199c>
   11694:	fdf37713          	andi	a4,t1,-33
   11698:	04700693          	li	a3,71
   1169c:	ec02                	sd	zero,24(sp)
   1169e:	00d71463          	bne	a4,a3,116a6 <_vfprintf_r+0x442>
   116a2:	5720106f          	j	12c14 <_vfprintf_r+0x19b0>
   116a6:	67ce                	ld	a5,208(sp)
   116a8:	6cee                	ld	s9,216(sp)
   116aa:	100de713          	ori	a4,s11,256
   116ae:	f83e                	sd	a5,48(sp)
   116b0:	f482                	sd	zero,104(sp)
   116b2:	0007049b          	sext.w	s1,a4
   116b6:	000cd463          	bgez	s9,116be <_vfprintf_r+0x45a>
   116ba:	3720106f          	j	12a2c <_vfprintf_r+0x17c8>
   116be:	fbf3069b          	addiw	a3,t1,-65
   116c2:	02500713          	li	a4,37
   116c6:	00d77463          	bgeu	a4,a3,116ce <_vfprintf_r+0x46a>
   116ca:	3ce0106f          	j	12a98 <_vfprintf_r+0x1834>
   116ce:	4705                	li	a4,1
   116d0:	4c05                	li	s8,1
   116d2:	1716                	slli	a4,a4,0x25
   116d4:	00dc16b3          	sll	a3,s8,a3
   116d8:	02070713          	addi	a4,a4,32
   116dc:	8f75                	and	a4,a4,a3
   116de:	c319                	beqz	a4,116e4 <_vfprintf_r+0x480>
   116e0:	2680106f          	j	12948 <_vfprintf_r+0x16e4>
   116e4:	4705                	li	a4,1
   116e6:	1712                	slli	a4,a4,0x24
   116e8:	0741                	addi	a4,a4,16
   116ea:	8f75                	and	a4,a4,a3
   116ec:	c319                	beqz	a4,116f2 <_vfprintf_r+0x48e>
   116ee:	4d20106f          	j	12bc0 <_vfprintf_r+0x195c>
   116f2:	4705                	li	a4,1
   116f4:	1702                	slli	a4,a4,0x20
   116f6:	0705                	addi	a4,a4,1
   116f8:	8ef9                	and	a3,a3,a4
   116fa:	fc1a                	sd	t1,56(sp)
   116fc:	e299                	bnez	a3,11702 <_vfprintf_r+0x49e>
   116fe:	1d40106f          	j	128d2 <_vfprintf_r+0x166e>
   11702:	7542                	ld	a0,48(sp)
   11704:	1930                	addi	a2,sp,184
   11706:	85e6                	mv	a1,s9
   11708:	2f6020ef          	jal	139fe <frexpl>
   1170c:	00fff6b7          	lui	a3,0xfff
   11710:	4601                	li	a2,0
   11712:	169a                	slli	a3,a3,0x26
   11714:	2d8060ef          	jal	179ec <__multf3>
   11718:	4601                	li	a2,0
   1171a:	4681                	li	a3,0
   1171c:	8caa                	mv	s9,a0
   1171e:	84ae                	mv	s1,a1
   11720:	0e8060ef          	jal	17808 <__eqtf2>
   11724:	7362                	ld	t1,56(sp)
   11726:	e111                	bnez	a0,1172a <_vfprintf_r+0x4c6>
   11728:	dd62                	sw	s8,184(sp)
   1172a:	06100713          	li	a4,97
   1172e:	00e31463          	bne	t1,a4,11736 <_vfprintf_r+0x4d2>
   11732:	5ea0106f          	j	12d1c <_vfprintf_r+0x1ab8>
   11736:	6765                	lui	a4,0x19
   11738:	a5870793          	addi	a5,a4,-1448 # 18a58 <__clzdi2+0x82>
   1173c:	f83e                	sd	a5,48(sp)
   1173e:	020b1713          	slli	a4,s6,0x20
   11742:	9301                	srli	a4,a4,0x20
   11744:	0705                	addi	a4,a4,1
   11746:	040036b7          	lui	a3,0x4003
   1174a:	000b081b          	sext.w	a6,s6
   1174e:	00ed07b3          	add	a5,s10,a4
   11752:	1692                	slli	a3,a3,0x24
   11754:	fc4e                	sd	s3,56(sp)
   11756:	f8a2                	sd	s0,112(sp)
   11758:	8c4a                	mv	s8,s2
   1175a:	7b42                	ld	s6,48(sp)
   1175c:	e942                	sd	a6,144(sp)
   1175e:	e09a                	sd	t1,64(sp)
   11760:	e4de                	sd	s7,72(sp)
   11762:	89ea                	mv	s3,s10
   11764:	893e                	mv	s2,a5
   11766:	8436                	mv	s0,a3
   11768:	a801                	j	11778 <_vfprintf_r+0x514>
   1176a:	4601                	li	a2,0
   1176c:	4681                	li	a3,0
   1176e:	09a060ef          	jal	17808 <__eqtf2>
   11772:	e119                	bnez	a0,11778 <_vfprintf_r+0x514>
   11774:	5400106f          	j	12cb4 <_vfprintf_r+0x1a50>
   11778:	4601                	li	a2,0
   1177a:	86a2                	mv	a3,s0
   1177c:	8566                	mv	a0,s9
   1177e:	85a6                	mv	a1,s1
   11780:	26c060ef          	jal	179ec <__multf3>
   11784:	84ae                	mv	s1,a1
   11786:	8caa                	mv	s9,a0
   11788:	0a2070ef          	jal	1882a <__fixtfsi>
   1178c:	00050b9b          	sext.w	s7,a0
   11790:	130070ef          	jal	188c0 <__floatsitf>
   11794:	86ae                	mv	a3,a1
   11796:	862a                	mv	a2,a0
   11798:	85a6                	mv	a1,s1
   1179a:	8566                	mv	a0,s9
   1179c:	047060ef          	jal	17fe2 <__subtf3>
   117a0:	017b06b3          	add	a3,s6,s7
   117a4:	0006c683          	lbu	a3,0(a3) # 4003000 <__BSS_END__+0x3fe7c58>
   117a8:	88ce                	mv	a7,s3
   117aa:	0985                	addi	s3,s3,1
   117ac:	fed98fa3          	sb	a3,-1(s3)
   117b0:	8caa                	mv	s9,a0
   117b2:	84ae                	mv	s1,a1
   117b4:	fb391be3          	bne	s2,s3,1176a <_vfprintf_r+0x506>
   117b8:	6306                	ld	t1,64(sp)
   117ba:	01fff6b7          	lui	a3,0x1fff
   117be:	1696                	slli	a3,a3,0x25
   117c0:	4601                	li	a2,0
   117c2:	e91a                	sd	t1,144(sp)
   117c4:	e0c6                	sd	a7,64(sp)
   117c6:	8b5e                	mv	s6,s7
   117c8:	6ba6                	ld	s7,72(sp)
   117ca:	e4b6                	sd	a3,72(sp)
   117cc:	0e4060ef          	jal	178b0 <__getf2>
   117d0:	8962                	mv	s2,s8
   117d2:	7446                	ld	s0,112(sp)
   117d4:	8c4e                	mv	s8,s3
   117d6:	6886                	ld	a7,64(sp)
   117d8:	79e2                	ld	s3,56(sp)
   117da:	634a                	ld	t1,144(sp)
   117dc:	02a04063          	bgtz	a0,117fc <_vfprintf_r+0x598>
   117e0:	66a6                	ld	a3,72(sp)
   117e2:	4601                	li	a2,0
   117e4:	8566                	mv	a0,s9
   117e6:	85a6                	mv	a1,s1
   117e8:	fc1a                	sd	t1,56(sp)
   117ea:	01e060ef          	jal	17808 <__eqtf2>
   117ee:	7362                	ld	t1,56(sp)
   117f0:	e539                	bnez	a0,1183e <_vfprintf_r+0x5da>
   117f2:	001b7b13          	andi	s6,s6,1
   117f6:	6886                	ld	a7,64(sp)
   117f8:	040b0363          	beqz	s6,1183e <_vfprintf_r+0x5da>
   117fc:	77c2                	ld	a5,48(sp)
   117fe:	e5c6                	sd	a7,200(sp)
   11800:	fffc4603          	lbu	a2,-1(s8)
   11804:	00f7c583          	lbu	a1,15(a5)
   11808:	86e2                	mv	a3,s8
   1180a:	00c59e63          	bne	a1,a2,11826 <_vfprintf_r+0x5c2>
   1180e:	03000513          	li	a0,48
   11812:	fea68fa3          	sb	a0,-1(a3) # 1ffefff <__BSS_END__+0x1fe3c57>
   11816:	66ae                	ld	a3,200(sp)
   11818:	fff68793          	addi	a5,a3,-1
   1181c:	e5be                	sd	a5,200(sp)
   1181e:	fff6c603          	lbu	a2,-1(a3)
   11822:	fec588e3          	beq	a1,a2,11812 <_vfprintf_r+0x5ae>
   11826:	0016059b          	addiw	a1,a2,1
   1182a:	03900513          	li	a0,57
   1182e:	0ff5f593          	zext.b	a1,a1
   11832:	00a61463          	bne	a2,a0,1183a <_vfprintf_r+0x5d6>
   11836:	0f40106f          	j	1292a <_vfprintf_r+0x16c6>
   1183a:	feb68fa3          	sb	a1,-1(a3)
   1183e:	86e2                	mv	a3,s8
   11840:	57ea                	lw	a5,184(sp)
   11842:	41a6873b          	subw	a4,a3,s10
   11846:	fc3a                	sd	a4,56(sp)
   11848:	fff7871b          	addiw	a4,a5,-1
   1184c:	f83e                	sd	a5,48(sp)
   1184e:	06100613          	li	a2,97
   11852:	dd3a                	sw	a4,184(sp)
   11854:	00c31463          	bne	t1,a2,1185c <_vfprintf_r+0x5f8>
   11858:	4d80106f          	j	12d30 <_vfprintf_r+0x1acc>
   1185c:	04100613          	li	a2,65
   11860:	05000693          	li	a3,80
   11864:	00c30463          	beq	t1,a2,1186c <_vfprintf_r+0x608>
   11868:	0b80106f          	j	12920 <_vfprintf_r+0x16bc>
   1186c:	4605                	li	a2,1
   1186e:	0cd10023          	sb	a3,192(sp)
   11872:	02b00693          	li	a3,43
   11876:	00075763          	bgez	a4,11884 <_vfprintf_r+0x620>
   1187a:	77c2                	ld	a5,48(sp)
   1187c:	4705                	li	a4,1
   1187e:	02d00693          	li	a3,45
   11882:	9f1d                	subw	a4,a4,a5
   11884:	0cd100a3          	sb	a3,193(sp)
   11888:	46a5                	li	a3,9
   1188a:	00e6c463          	blt	a3,a4,11892 <_vfprintf_r+0x62e>
   1188e:	33a0106f          	j	12bc8 <_vfprintf_r+0x1964>
   11892:	0cf10893          	addi	a7,sp,207
   11896:	8546                	mv	a0,a7
   11898:	4829                	li	a6,10
   1189a:	06300f13          	li	t5,99
   1189e:	030767bb          	remw	a5,a4,a6
   118a2:	86aa                	mv	a3,a0
   118a4:	863a                	mv	a2,a4
   118a6:	157d                	addi	a0,a0,-1
   118a8:	0307879b          	addiw	a5,a5,48
   118ac:	fef68fa3          	sb	a5,-1(a3)
   118b0:	0307473b          	divw	a4,a4,a6
   118b4:	fecf45e3          	blt	t5,a2,1189e <_vfprintf_r+0x63a>
   118b8:	0307059b          	addiw	a1,a4,48
   118bc:	feb50fa3          	sb	a1,-1(a0)
   118c0:	ffe68713          	addi	a4,a3,-2
   118c4:	01176463          	bltu	a4,a7,118cc <_vfprintf_r+0x668>
   118c8:	4a00106f          	j	12d68 <_vfprintf_r+0x1b04>
   118cc:	0c210613          	addi	a2,sp,194
   118d0:	00074783          	lbu	a5,0(a4)
   118d4:	0705                	addi	a4,a4,1
   118d6:	0605                	addi	a2,a2,1
   118d8:	fef60fa3          	sb	a5,-1(a2)
   118dc:	ff171ae3          	bne	a4,a7,118d0 <_vfprintf_r+0x66c>
   118e0:	139c                	addi	a5,sp,480
   118e2:	40d786b3          	sub	a3,a5,a3
   118e6:	ef36879b          	addiw	a5,a3,-269
   118ea:	f8be                	sd	a5,112(sp)
   118ec:	7746                	ld	a4,112(sp)
   118ee:	77e2                	ld	a5,56(sp)
   118f0:	4605                	li	a2,1
   118f2:	00e786bb          	addw	a3,a5,a4
   118f6:	8736                	mv	a4,a3
   118f8:	00f64463          	blt	a2,a5,11900 <_vfprintf_r+0x69c>
   118fc:	2f60106f          	j	12bf2 <_vfprintf_r+0x198e>
   11900:	67c6                	ld	a5,80(sp)
   11902:	00f706bb          	addw	a3,a4,a5
   11906:	fff6c813          	not	a6,a3
   1190a:	bffdfe13          	andi	t3,s11,-1025
   1190e:	43f85813          	srai	a6,a6,0x3f
   11912:	2e01                	sext.w	t3,t3
   11914:	0106f833          	and	a6,a3,a6
   11918:	100e6d93          	ori	s11,t3,256
   1191c:	00080c1b          	sext.w	s8,a6
   11920:	e482                	sd	zero,72(sp)
   11922:	e082                	sd	zero,64(sp)
   11924:	f802                	sd	zero,48(sp)
   11926:	77a6                	ld	a5,104(sp)
   11928:	e399                	bnez	a5,1192e <_vfprintf_r+0x6ca>
   1192a:	00e0106f          	j	12938 <_vfprintf_r+0x16d4>
   1192e:	02d00713          	li	a4,45
   11932:	0ae107a3          	sb	a4,175(sp)
   11936:	4b01                	li	s6,0
   11938:	2c05                	addiw	s8,s8,1
   1193a:	b4f9                	j	11408 <_vfprintf_r+0x1a4>
   1193c:	6522                	ld	a0,8(sp)
   1193e:	1190                	addi	a2,sp,224
   11940:	85ca                	mv	a1,s2
   11942:	ed36                	sd	a3,152(sp)
   11944:	e91a                	sd	t1,144(sp)
   11946:	f496                	sd	t0,104(sp)
   11948:	506010ef          	jal	12e4e <__sprint_r>
   1194c:	58051563          	bnez	a0,11ed6 <_vfprintf_r+0xc72>
   11950:	74ce                	ld	s1,240(sp)
   11952:	66ea                	ld	a3,152(sp)
   11954:	634a                	ld	t1,144(sp)
   11956:	72a6                	ld	t0,104(sp)
   11958:	8452                	mv	s0,s4
   1195a:	bcc5                	j	1144a <_vfprintf_r+0x1e6>
   1195c:	572e                	lw	a4,232(sp)
   1195e:	77e2                	ld	a5,56(sp)
   11960:	4685                	li	a3,1
   11962:	00170b1b          	addiw	s6,a4,1
   11966:	01a43023          	sd	s10,0(s0)
   1196a:	0485                	addi	s1,s1,1
   1196c:	875a                	mv	a4,s6
   1196e:	01040c93          	addi	s9,s0,16
   11972:	7cf6d363          	bge	a3,a5,12138 <_vfprintf_r+0xed4>
   11976:	4685                	li	a3,1
   11978:	d5ba                	sw	a4,232(sp)
   1197a:	e414                	sd	a3,8(s0)
   1197c:	f9a6                	sd	s1,240(sp)
   1197e:	471d                	li	a4,7
   11980:	2b6744e3          	blt	a4,s6,12428 <_vfprintf_r+0x11c4>
   11984:	67c6                	ld	a5,80(sp)
   11986:	66e6                	ld	a3,88(sp)
   11988:	2b05                	addiw	s6,s6,1
   1198a:	94be                	add	s1,s1,a5
   1198c:	00dcb023          	sd	a3,0(s9)
   11990:	00fcb423          	sd	a5,8(s9)
   11994:	f9a6                	sd	s1,240(sp)
   11996:	d5da                	sw	s6,232(sp)
   11998:	471d                	li	a4,7
   1199a:	0cc1                	addi	s9,s9,16
   1199c:	2b6742e3          	blt	a4,s6,12440 <_vfprintf_r+0x11dc>
   119a0:	77e2                	ld	a5,56(sp)
   119a2:	654e                	ld	a0,208(sp)
   119a4:	65ee                	ld	a1,216(sp)
   119a6:	4601                	li	a2,0
   119a8:	4681                	li	a3,0
   119aa:	fff7841b          	addiw	s0,a5,-1
   119ae:	65b050ef          	jal	17808 <__eqtf2>
   119b2:	7a050863          	beqz	a0,12162 <_vfprintf_r+0xefe>
   119b6:	001d0793          	addi	a5,s10,1
   119ba:	2b05                	addiw	s6,s6,1
   119bc:	94a2                	add	s1,s1,s0
   119be:	00fcb023          	sd	a5,0(s9)
   119c2:	008cb423          	sd	s0,8(s9)
   119c6:	f9a6                	sd	s1,240(sp)
   119c8:	d5da                	sw	s6,232(sp)
   119ca:	479d                	li	a5,7
   119cc:	7967c063          	blt	a5,s6,1214c <_vfprintf_r+0xee8>
   119d0:	0cc1                	addi	s9,s9,16
   119d2:	7746                	ld	a4,112(sp)
   119d4:	2b05                	addiw	s6,s6,1
   119d6:	019c                	addi	a5,sp,192
   119d8:	94ba                	add	s1,s1,a4
   119da:	00fcb023          	sd	a5,0(s9)
   119de:	00ecb423          	sd	a4,8(s9)
   119e2:	f9a6                	sd	s1,240(sp)
   119e4:	000b071b          	sext.w	a4,s6
   119e8:	d5da                	sw	s6,232(sp)
   119ea:	479d                	li	a5,7
   119ec:	010c8413          	addi	s0,s9,16
   119f0:	aae7d6e3          	bge	a5,a4,1149c <_vfprintf_r+0x238>
   119f4:	6522                	ld	a0,8(sp)
   119f6:	1190                	addi	a2,sp,224
   119f8:	85ca                	mv	a1,s2
   119fa:	454010ef          	jal	12e4e <__sprint_r>
   119fe:	4c051c63          	bnez	a0,11ed6 <_vfprintf_r+0xc72>
   11a02:	74ce                	ld	s1,240(sp)
   11a04:	8452                	mv	s0,s4
   11a06:	bc59                	j	1149c <_vfprintf_r+0x238>
   11a08:	010df793          	andi	a5,s11,16
   11a0c:	7e079263          	bnez	a5,121f0 <_vfprintf_r+0xf8c>
   11a10:	7682                	ld	a3,32(sp)
   11a12:	040df793          	andi	a5,s11,64
   11a16:	4284                	lw	s1,0(a3)
   11a18:	3e0780e3          	beqz	a5,125f8 <_vfprintf_r+0x1394>
   11a1c:	14c2                	slli	s1,s1,0x30
   11a1e:	90c1                	srli	s1,s1,0x30
   11a20:	be6d                	j	115da <_vfprintf_r+0x376>
   11a22:	010df793          	andi	a5,s11,16
   11a26:	00079de3          	bnez	a5,12240 <_vfprintf_r+0xfdc>
   11a2a:	7682                	ld	a3,32(sp)
   11a2c:	040df793          	andi	a5,s11,64
   11a30:	4284                	lw	s1,0(a3)
   11a32:	3c078be3          	beqz	a5,12608 <_vfprintf_r+0x13a4>
   11a36:	0104949b          	slliw	s1,s1,0x10
   11a3a:	4104d49b          	sraiw	s1,s1,0x10
   11a3e:	87a6                	mv	a5,s1
   11a40:	b407d0e3          	bgez	a5,11580 <_vfprintf_r+0x31c>
   11a44:	f03a                	sd	a4,32(sp)
   11a46:	02d00713          	li	a4,45
   11a4a:	0ae107a3          	sb	a4,175(sp)
   11a4e:	409004b3          	neg	s1,s1
   11a52:	8cee                	mv	s9,s11
   11a54:	4785                	li	a5,1
   11a56:	b80b5ce3          	bgez	s6,115ee <_vfprintf_r+0x38a>
   11a5a:	4705                	li	a4,1
   11a5c:	48e78963          	beq	a5,a4,11eee <_vfprintf_r+0xc8a>
   11a60:	4709                	li	a4,2
   11a62:	30e78163          	beq	a5,a4,11d64 <_vfprintf_r+0xb00>
   11a66:	0af4                	addi	a3,sp,348
   11a68:	8d36                	mv	s10,a3
   11a6a:	0074f713          	andi	a4,s1,7
   11a6e:	03070713          	addi	a4,a4,48
   11a72:	feed0fa3          	sb	a4,-1(s10)
   11a76:	808d                	srli	s1,s1,0x3
   11a78:	866a                	mv	a2,s10
   11a7a:	1d7d                	addi	s10,s10,-1
   11a7c:	f4fd                	bnez	s1,11a6a <_vfprintf_r+0x806>
   11a7e:	001cf593          	andi	a1,s9,1
   11a82:	2e058e63          	beqz	a1,11d7e <_vfprintf_r+0xb1a>
   11a86:	03000593          	li	a1,48
   11a8a:	2eb70a63          	beq	a4,a1,11d7e <_vfprintf_r+0xb1a>
   11a8e:	1679                	addi	a2,a2,-2
   11a90:	febd0fa3          	sb	a1,-1(s10)
   11a94:	9e91                	subw	a3,a3,a2
   11a96:	8de6                	mv	s11,s9
   11a98:	8d32                	mv	s10,a2
   11a9a:	b621                	j	115a2 <_vfprintf_r+0x33e>
   11a9c:	7782                	ld	a5,32(sp)
   11a9e:	0a0107a3          	sb	zero,175(sp)
   11aa2:	0007bd03          	ld	s10,0(a5)
   11aa6:	00878493          	addi	s1,a5,8
   11aaa:	080d0ae3          	beqz	s10,1233e <_vfprintf_r+0x10da>
   11aae:	280b4fe3          	bltz	s6,1254c <_vfprintf_r+0x12e8>
   11ab2:	865a                	mv	a2,s6
   11ab4:	4581                	li	a1,0
   11ab6:	856a                	mv	a0,s10
   11ab8:	f01a                	sd	t1,32(sp)
   11aba:	2cd010ef          	jal	13586 <memchr>
   11abe:	ec2a                	sd	a0,24(sp)
   11ac0:	7302                	ld	t1,32(sp)
   11ac2:	e119                	bnez	a0,11ac8 <_vfprintf_r+0x864>
   11ac4:	7b90006f          	j	12a7c <_vfprintf_r+0x1818>
   11ac8:	67e2                	ld	a5,24(sp)
   11aca:	0af14703          	lbu	a4,175(sp)
   11ace:	f026                	sd	s1,32(sp)
   11ad0:	41a786bb          	subw	a3,a5,s10
   11ad4:	fff6c813          	not	a6,a3
   11ad8:	43f85813          	srai	a6,a6,0x3f
   11adc:	ec02                	sd	zero,24(sp)
   11ade:	e482                	sd	zero,72(sp)
   11ae0:	e082                	sd	zero,64(sp)
   11ae2:	f802                	sd	zero,48(sp)
   11ae4:	00d87c33          	and	s8,a6,a3
   11ae8:	4b01                	li	s6,0
   11aea:	ac071ae3          	bnez	a4,115be <_vfprintf_r+0x35a>
   11aee:	ba29                	j	11408 <_vfprintf_r+0x1a4>
   11af0:	7702                	ld	a4,32(sp)
   11af2:	0a0107a3          	sb	zero,175(sp)
   11af6:	4c05                	li	s8,1
   11af8:	431c                	lw	a5,0(a4)
   11afa:	0721                	addi	a4,a4,8
   11afc:	f03a                	sd	a4,32(sp)
   11afe:	0ef10c23          	sb	a5,248(sp)
   11b02:	4685                	li	a3,1
   11b04:	0f810d13          	addi	s10,sp,248
   11b08:	b8dd                	j	113fe <_vfprintf_r+0x19a>
   11b0a:	7782                	ld	a5,32(sp)
   11b0c:	0007ab83          	lw	s7,0(a5)
   11b10:	07a1                	addi	a5,a5,8
   11b12:	6c0bda63          	bgez	s7,121e6 <_vfprintf_r+0xf82>
   11b16:	41700bbb          	negw	s7,s7
   11b1a:	f03e                	sd	a5,32(sp)
   11b1c:	004ded93          	ori	s11,s11,4
   11b20:	0009c303          	lbu	t1,0(s3)
   11b24:	2d81                	sext.w	s11,s11
   11b26:	b0bd                	j	11394 <_vfprintf_r+0x130>
   11b28:	02b00793          	li	a5,43
   11b2c:	0009c303          	lbu	t1,0(s3)
   11b30:	0af107a3          	sb	a5,175(sp)
   11b34:	b085                	j	11394 <_vfprintf_r+0x130>
   11b36:	080ded93          	ori	s11,s11,128
   11b3a:	0009c303          	lbu	t1,0(s3)
   11b3e:	2d81                	sext.w	s11,s11
   11b40:	b891                	j	11394 <_vfprintf_r+0x130>
   11b42:	0009c303          	lbu	t1,0(s3)
   11b46:	02a00693          	li	a3,42
   11b4a:	00198713          	addi	a4,s3,1
   11b4e:	00d31463          	bne	t1,a3,11b56 <_vfprintf_r+0x8f2>
   11b52:	21e0106f          	j	12d70 <_vfprintf_r+0x1b0c>
   11b56:	fd03079b          	addiw	a5,t1,-48
   11b5a:	45a5                	li	a1,9
   11b5c:	4681                	li	a3,0
   11b5e:	4625                	li	a2,9
   11b60:	89ba                	mv	s3,a4
   11b62:	4b01                	li	s6,0
   11b64:	82f5eae3          	bltu	a1,a5,11398 <_vfprintf_r+0x134>
   11b68:	00074303          	lbu	t1,0(a4)
   11b6c:	00269b1b          	slliw	s6,a3,0x2
   11b70:	00db0b3b          	addw	s6,s6,a3
   11b74:	001b1b1b          	slliw	s6,s6,0x1
   11b78:	00fb06bb          	addw	a3,s6,a5
   11b7c:	fd03079b          	addiw	a5,t1,-48
   11b80:	8b36                	mv	s6,a3
   11b82:	0705                	addi	a4,a4,1
   11b84:	fef672e3          	bgeu	a2,a5,11b68 <_vfprintf_r+0x904>
   11b88:	7206c563          	bltz	a3,122b2 <_vfprintf_r+0x104e>
   11b8c:	89ba                	mv	s3,a4
   11b8e:	80bff06f          	j	11398 <_vfprintf_r+0x134>
   11b92:	010dec93          	ori	s9,s11,16
   11b96:	2c81                	sext.w	s9,s9
   11b98:	7682                	ld	a3,32(sp)
   11b9a:	020cf793          	andi	a5,s9,32
   11b9e:	00868713          	addi	a4,a3,8
   11ba2:	60078963          	beqz	a5,121b4 <_vfprintf_r+0xf50>
   11ba6:	6284                	ld	s1,0(a3)
   11ba8:	4785                	li	a5,1
   11baa:	f03a                	sd	a4,32(sp)
   11bac:	bc25                	j	115e4 <_vfprintf_r+0x380>
   11bae:	001ded93          	ori	s11,s11,1
   11bb2:	0009c303          	lbu	t1,0(s3)
   11bb6:	2d81                	sext.w	s11,s11
   11bb8:	fdcff06f          	j	11394 <_vfprintf_r+0x130>
   11bbc:	0af14783          	lbu	a5,175(sp)
   11bc0:	0009c303          	lbu	t1,0(s3)
   11bc4:	fc079863          	bnez	a5,11394 <_vfprintf_r+0x130>
   11bc8:	02000793          	li	a5,32
   11bcc:	0af107a3          	sb	a5,175(sp)
   11bd0:	fc4ff06f          	j	11394 <_vfprintf_r+0x130>
   11bd4:	6c22                	ld	s8,8(sp)
   11bd6:	8562                	mv	a0,s8
   11bd8:	2f7010ef          	jal	136ce <_localeconv_r>
   11bdc:	651c                	ld	a5,8(a0)
   11bde:	853e                	mv	a0,a5
   11be0:	fcbe                	sd	a5,120(sp)
   11be2:	57b010ef          	jal	1395c <strlen>
   11be6:	87aa                	mv	a5,a0
   11be8:	8562                	mv	a0,s8
   11bea:	e53e                	sd	a5,136(sp)
   11bec:	8c3e                	mv	s8,a5
   11bee:	2e1010ef          	jal	136ce <_localeconv_r>
   11bf2:	691c                	ld	a5,16(a0)
   11bf4:	0009c303          	lbu	t1,0(s3)
   11bf8:	e13e                	sd	a5,128(sp)
   11bfa:	f80c0d63          	beqz	s8,11394 <_vfprintf_r+0x130>
   11bfe:	f8078b63          	beqz	a5,11394 <_vfprintf_r+0x130>
   11c02:	0007c783          	lbu	a5,0(a5)
   11c06:	f8078763          	beqz	a5,11394 <_vfprintf_r+0x130>
   11c0a:	400ded93          	ori	s11,s11,1024
   11c0e:	2d81                	sext.w	s11,s11
   11c10:	f84ff06f          	j	11394 <_vfprintf_r+0x130>
   11c14:	008ded93          	ori	s11,s11,8
   11c18:	0009c303          	lbu	t1,0(s3)
   11c1c:	2d81                	sext.w	s11,s11
   11c1e:	f76ff06f          	j	11394 <_vfprintf_r+0x130>
   11c22:	020ded93          	ori	s11,s11,32
   11c26:	0009c303          	lbu	t1,0(s3)
   11c2a:	2d81                	sext.w	s11,s11
   11c2c:	f68ff06f          	j	11394 <_vfprintf_r+0x130>
   11c30:	7702                	ld	a4,32(sp)
   11c32:	67a1                	lui	a5,0x8
   11c34:	83078793          	addi	a5,a5,-2000 # 7830 <exit-0x88b8>
   11c38:	0af11823          	sh	a5,176(sp)
   11c3c:	00870793          	addi	a5,a4,8
   11c40:	f03e                	sd	a5,32(sp)
   11c42:	67e5                	lui	a5,0x19
   11c44:	a4078793          	addi	a5,a5,-1472 # 18a40 <__clzdi2+0x6a>
   11c48:	002dec93          	ori	s9,s11,2
   11c4c:	f0be                	sd	a5,96(sp)
   11c4e:	6304                	ld	s1,0(a4)
   11c50:	2c81                	sext.w	s9,s9
   11c52:	4789                	li	a5,2
   11c54:	07800313          	li	t1,120
   11c58:	b271                	j	115e4 <_vfprintf_r+0x380>
   11c5a:	7702                	ld	a4,32(sp)
   11c5c:	020df793          	andi	a5,s11,32
   11c60:	6318                	ld	a4,0(a4)
   11c62:	5a078163          	beqz	a5,12204 <_vfprintf_r+0xfa0>
   11c66:	67c2                	ld	a5,16(sp)
   11c68:	e31c                	sd	a5,0(a4)
   11c6a:	7782                	ld	a5,32(sp)
   11c6c:	8d4e                	mv	s10,s3
   11c6e:	07a1                	addi	a5,a5,8
   11c70:	f03e                	sd	a5,32(sp)
   11c72:	b8b9                	j	114d0 <_vfprintf_r+0x26c>
   11c74:	0009c303          	lbu	t1,0(s3)
   11c78:	06c00793          	li	a5,108
   11c7c:	68f30f63          	beq	t1,a5,1231a <_vfprintf_r+0x10b6>
   11c80:	010ded93          	ori	s11,s11,16
   11c84:	2d81                	sext.w	s11,s11
   11c86:	f0eff06f          	j	11394 <_vfprintf_r+0x130>
   11c8a:	0009c303          	lbu	t1,0(s3)
   11c8e:	06800793          	li	a5,104
   11c92:	66f30c63          	beq	t1,a5,1230a <_vfprintf_r+0x10a6>
   11c96:	040ded93          	ori	s11,s11,64
   11c9a:	2d81                	sext.w	s11,s11
   11c9c:	ef8ff06f          	j	11394 <_vfprintf_r+0x130>
   11ca0:	06500713          	li	a4,101
   11ca4:	ca675ce3          	bge	a4,t1,1195c <_vfprintf_r+0x6f8>
   11ca8:	654e                	ld	a0,208(sp)
   11caa:	65ee                	ld	a1,216(sp)
   11cac:	4601                	li	a2,0
   11cae:	4681                	li	a3,0
   11cb0:	359050ef          	jal	17808 <__eqtf2>
   11cb4:	38051463          	bnez	a0,1203c <_vfprintf_r+0xdd8>
   11cb8:	57ae                	lw	a5,232(sp)
   11cba:	6765                	lui	a4,0x19
   11cbc:	a7870713          	addi	a4,a4,-1416 # 18a78 <__clzdi2+0xa2>
   11cc0:	2785                	addiw	a5,a5,1
   11cc2:	e018                	sd	a4,0(s0)
   11cc4:	0485                	addi	s1,s1,1
   11cc6:	4705                	li	a4,1
   11cc8:	e418                	sd	a4,8(s0)
   11cca:	d5be                	sw	a5,232(sp)
   11ccc:	0007871b          	sext.w	a4,a5
   11cd0:	f9a6                	sd	s1,240(sp)
   11cd2:	479d                	li	a5,7
   11cd4:	0441                	addi	s0,s0,16
   11cd6:	7ee7c963          	blt	a5,a4,124c8 <_vfprintf_r+0x1264>
   11cda:	57ea                	lw	a5,184(sp)
   11cdc:	7762                	ld	a4,56(sp)
   11cde:	4ee7df63          	bge	a5,a4,121dc <_vfprintf_r+0xf78>
   11ce2:	6746                	ld	a4,80(sp)
   11ce4:	57ae                	lw	a5,232(sp)
   11ce6:	66e6                	ld	a3,88(sp)
   11ce8:	94ba                	add	s1,s1,a4
   11cea:	2785                	addiw	a5,a5,1
   11cec:	e418                	sd	a4,8(s0)
   11cee:	e014                	sd	a3,0(s0)
   11cf0:	0007871b          	sext.w	a4,a5
   11cf4:	d5be                	sw	a5,232(sp)
   11cf6:	f9a6                	sd	s1,240(sp)
   11cf8:	479d                	li	a5,7
   11cfa:	0441                	addi	s0,s0,16
   11cfc:	62e7c763          	blt	a5,a4,1232a <_vfprintf_r+0x10c6>
   11d00:	77e2                	ld	a5,56(sp)
   11d02:	fff78b1b          	addiw	s6,a5,-1
   11d06:	f9605b63          	blez	s6,1149c <_vfprintf_r+0x238>
   11d0a:	68e5                	lui	a7,0x19
   11d0c:	4741                	li	a4,16
   11d0e:	57ae                	lw	a5,232(sp)
   11d10:	d1888893          	addi	a7,a7,-744 # 18d18 <zeroes.0>
   11d14:	7d675863          	bge	a4,s6,124e4 <_vfprintf_r+0x1280>
   11d18:	f84e                	sd	s3,48(sp)
   11d1a:	4cc1                	li	s9,16
   11d1c:	89da                	mv	s3,s6
   11d1e:	4d1d                	li	s10,7
   11d20:	8b46                	mv	s6,a7
   11d22:	a021                	j	11d2a <_vfprintf_r+0xac6>
   11d24:	39c1                	addiw	s3,s3,-16
   11d26:	7b3cdc63          	bge	s9,s3,124de <_vfprintf_r+0x127a>
   11d2a:	2785                	addiw	a5,a5,1
   11d2c:	04c1                	addi	s1,s1,16
   11d2e:	01643023          	sd	s6,0(s0)
   11d32:	01943423          	sd	s9,8(s0)
   11d36:	f9a6                	sd	s1,240(sp)
   11d38:	d5be                	sw	a5,232(sp)
   11d3a:	0441                	addi	s0,s0,16
   11d3c:	fefd54e3          	bge	s10,a5,11d24 <_vfprintf_r+0xac0>
   11d40:	6522                	ld	a0,8(sp)
   11d42:	1190                	addi	a2,sp,224
   11d44:	85ca                	mv	a1,s2
   11d46:	108010ef          	jal	12e4e <__sprint_r>
   11d4a:	18051663          	bnez	a0,11ed6 <_vfprintf_r+0xc72>
   11d4e:	74ce                	ld	s1,240(sp)
   11d50:	57ae                	lw	a5,232(sp)
   11d52:	8452                	mv	s0,s4
   11d54:	bfc1                	j	11d24 <_vfprintf_r+0xac0>
   11d56:	4705                	li	a4,1
   11d58:	58e78fe3          	beq	a5,a4,12af6 <_vfprintf_r+0x1892>
   11d5c:	4709                	li	a4,2
   11d5e:	8cee                	mv	s9,s11
   11d60:	d0e793e3          	bne	a5,a4,11a66 <_vfprintf_r+0x802>
   11d64:	7706                	ld	a4,96(sp)
   11d66:	0af4                	addi	a3,sp,348
   11d68:	8d36                	mv	s10,a3
   11d6a:	00f4f793          	andi	a5,s1,15
   11d6e:	97ba                	add	a5,a5,a4
   11d70:	0007c783          	lbu	a5,0(a5)
   11d74:	8091                	srli	s1,s1,0x4
   11d76:	1d7d                	addi	s10,s10,-1
   11d78:	00fd0023          	sb	a5,0(s10)
   11d7c:	f4fd                	bnez	s1,11d6a <_vfprintf_r+0xb06>
   11d7e:	41a686bb          	subw	a3,a3,s10
   11d82:	8de6                	mv	s11,s9
   11d84:	81fff06f          	j	115a2 <_vfprintf_r+0x33e>
   11d88:	418b8cbb          	subw	s9,s7,s8
   11d8c:	ef905463          	blez	s9,11474 <_vfprintf_r+0x210>
   11d90:	68e5                	lui	a7,0x19
   11d92:	45c1                	li	a1,16
   11d94:	562e                	lw	a2,232(sp)
   11d96:	d1888893          	addi	a7,a7,-744 # 18d18 <zeroes.0>
   11d9a:	0595df63          	bge	a1,s9,11df8 <_vfprintf_r+0xb94>
   11d9e:	87a2                	mv	a5,s0
   11da0:	8726                	mv	a4,s1
   11da2:	8466                	mv	s0,s9
   11da4:	4f41                	li	t5,16
   11da6:	8ce2                	mv	s9,s8
   11da8:	4f9d                	li	t6,7
   11daa:	f49a                	sd	t1,104(sp)
   11dac:	8c36                	mv	s8,a3
   11dae:	84c6                	mv	s1,a7
   11db0:	a021                	j	11db8 <_vfprintf_r+0xb54>
   11db2:	3441                	addiw	s0,s0,-16
   11db4:	028f5b63          	bge	t5,s0,11dea <_vfprintf_r+0xb86>
   11db8:	2605                	addiw	a2,a2,1
   11dba:	0741                	addi	a4,a4,16
   11dbc:	e384                	sd	s1,0(a5)
   11dbe:	01e7b423          	sd	t5,8(a5)
   11dc2:	f9ba                	sd	a4,240(sp)
   11dc4:	d5b2                	sw	a2,232(sp)
   11dc6:	07c1                	addi	a5,a5,16
   11dc8:	fecfd5e3          	bge	t6,a2,11db2 <_vfprintf_r+0xb4e>
   11dcc:	6522                	ld	a0,8(sp)
   11dce:	1190                	addi	a2,sp,224
   11dd0:	85ca                	mv	a1,s2
   11dd2:	07c010ef          	jal	12e4e <__sprint_r>
   11dd6:	10051063          	bnez	a0,11ed6 <_vfprintf_r+0xc72>
   11dda:	4f41                	li	t5,16
   11ddc:	3441                	addiw	s0,s0,-16
   11dde:	774e                	ld	a4,240(sp)
   11de0:	562e                	lw	a2,232(sp)
   11de2:	87d2                	mv	a5,s4
   11de4:	4f9d                	li	t6,7
   11de6:	fc8f49e3          	blt	t5,s0,11db8 <_vfprintf_r+0xb54>
   11dea:	7326                	ld	t1,104(sp)
   11dec:	86e2                	mv	a3,s8
   11dee:	88a6                	mv	a7,s1
   11df0:	8c66                	mv	s8,s9
   11df2:	84ba                	mv	s1,a4
   11df4:	8ca2                	mv	s9,s0
   11df6:	843e                	mv	s0,a5
   11df8:	0016059b          	addiw	a1,a2,1
   11dfc:	94e6                	add	s1,s1,s9
   11dfe:	01143023          	sd	a7,0(s0)
   11e02:	01943423          	sd	s9,8(s0)
   11e06:	f9a6                	sd	s1,240(sp)
   11e08:	d5ae                	sw	a1,232(sp)
   11e0a:	471d                	li	a4,7
   11e0c:	0441                	addi	s0,s0,16
   11e0e:	e6b75363          	bge	a4,a1,11474 <_vfprintf_r+0x210>
   11e12:	6522                	ld	a0,8(sp)
   11e14:	1190                	addi	a2,sp,224
   11e16:	85ca                	mv	a1,s2
   11e18:	e936                	sd	a3,144(sp)
   11e1a:	f49a                	sd	t1,104(sp)
   11e1c:	032010ef          	jal	12e4e <__sprint_r>
   11e20:	e95d                	bnez	a0,11ed6 <_vfprintf_r+0xc72>
   11e22:	74ce                	ld	s1,240(sp)
   11e24:	66ca                	ld	a3,144(sp)
   11e26:	7326                	ld	t1,104(sp)
   11e28:	8452                	mv	s0,s4
   11e2a:	e4aff06f          	j	11474 <_vfprintf_r+0x210>
   11e2e:	68e5                	lui	a7,0x19
   11e30:	4741                	li	a4,16
   11e32:	562e                	lw	a2,232(sp)
   11e34:	d1888893          	addi	a7,a7,-744 # 18d18 <zeroes.0>
   11e38:	05675d63          	bge	a4,s6,11e92 <_vfprintf_r+0xc2e>
   11e3c:	85a6                	mv	a1,s1
   11e3e:	87a2                	mv	a5,s0
   11e40:	84b6                	mv	s1,a3
   11e42:	845a                	mv	s0,s6
   11e44:	4741                	li	a4,16
   11e46:	4c9d                	li	s9,7
   11e48:	f49a                	sd	t1,104(sp)
   11e4a:	8b56                	mv	s6,s5
   11e4c:	86ae                	mv	a3,a1
   11e4e:	a021                	j	11e56 <_vfprintf_r+0xbf2>
   11e50:	3441                	addiw	s0,s0,-16
   11e52:	02875963          	bge	a4,s0,11e84 <_vfprintf_r+0xc20>
   11e56:	2605                	addiw	a2,a2,1
   11e58:	06c1                	addi	a3,a3,16
   11e5a:	0157b023          	sd	s5,0(a5)
   11e5e:	e798                	sd	a4,8(a5)
   11e60:	f9b6                	sd	a3,240(sp)
   11e62:	d5b2                	sw	a2,232(sp)
   11e64:	07c1                	addi	a5,a5,16
   11e66:	feccd5e3          	bge	s9,a2,11e50 <_vfprintf_r+0xbec>
   11e6a:	6522                	ld	a0,8(sp)
   11e6c:	1190                	addi	a2,sp,224
   11e6e:	85ca                	mv	a1,s2
   11e70:	7df000ef          	jal	12e4e <__sprint_r>
   11e74:	e12d                	bnez	a0,11ed6 <_vfprintf_r+0xc72>
   11e76:	4741                	li	a4,16
   11e78:	3441                	addiw	s0,s0,-16
   11e7a:	76ce                	ld	a3,240(sp)
   11e7c:	562e                	lw	a2,232(sp)
   11e7e:	87d2                	mv	a5,s4
   11e80:	fc874be3          	blt	a4,s0,11e56 <_vfprintf_r+0xbf2>
   11e84:	7326                	ld	t1,104(sp)
   11e86:	8736                	mv	a4,a3
   11e88:	88da                	mv	a7,s6
   11e8a:	86a6                	mv	a3,s1
   11e8c:	8b22                	mv	s6,s0
   11e8e:	84ba                	mv	s1,a4
   11e90:	843e                	mv	s0,a5
   11e92:	0016059b          	addiw	a1,a2,1
   11e96:	94da                	add	s1,s1,s6
   11e98:	01143023          	sd	a7,0(s0)
   11e9c:	01643423          	sd	s6,8(s0)
   11ea0:	f9a6                	sd	s1,240(sp)
   11ea2:	d5ae                	sw	a1,232(sp)
   11ea4:	471d                	li	a4,7
   11ea6:	0441                	addi	s0,s0,16
   11ea8:	dcb75a63          	bge	a4,a1,1147c <_vfprintf_r+0x218>
   11eac:	6522                	ld	a0,8(sp)
   11eae:	1190                	addi	a2,sp,224
   11eb0:	85ca                	mv	a1,s2
   11eb2:	e936                	sd	a3,144(sp)
   11eb4:	f49a                	sd	t1,104(sp)
   11eb6:	799000ef          	jal	12e4e <__sprint_r>
   11eba:	ed11                	bnez	a0,11ed6 <_vfprintf_r+0xc72>
   11ebc:	74ce                	ld	s1,240(sp)
   11ebe:	66ca                	ld	a3,144(sp)
   11ec0:	7326                	ld	t1,104(sp)
   11ec2:	8452                	mv	s0,s4
   11ec4:	db8ff06f          	j	1147c <_vfprintf_r+0x218>
   11ec8:	6522                	ld	a0,8(sp)
   11eca:	1190                	addi	a2,sp,224
   11ecc:	85ca                	mv	a1,s2
   11ece:	781000ef          	jal	12e4e <__sprint_r>
   11ed2:	de050663          	beqz	a0,114be <_vfprintf_r+0x25a>
   11ed6:	65e2                	ld	a1,24(sp)
   11ed8:	e0058463          	beqz	a1,114e0 <_vfprintf_r+0x27c>
   11edc:	6522                	ld	a0,8(sp)
   11ede:	b3dfe0ef          	jal	10a1a <_free_r>
   11ee2:	dfeff06f          	j	114e0 <_vfprintf_r+0x27c>
   11ee6:	4705                	li	a4,1
   11ee8:	8cee                	mv	s9,s11
   11eea:	b6e79be3          	bne	a5,a4,11a60 <_vfprintf_r+0x7fc>
   11eee:	47a5                	li	a5,9
   11ef0:	3697e263          	bltu	a5,s1,12254 <_vfprintf_r+0xff0>
   11ef4:	0304849b          	addiw	s1,s1,48
   11ef8:	14910da3          	sb	s1,347(sp)
   11efc:	8de6                	mv	s11,s9
   11efe:	4685                	li	a3,1
   11f00:	15b10d13          	addi	s10,sp,347
   11f04:	e9eff06f          	j	115a2 <_vfprintf_r+0x33e>
   11f08:	68e5                	lui	a7,0x19
   11f0a:	45c1                	li	a1,16
   11f0c:	562e                	lw	a2,232(sp)
   11f0e:	d2888893          	addi	a7,a7,-728 # 18d28 <blanks.1>
   11f12:	04e5de63          	bge	a1,a4,11f6e <_vfprintf_r+0xd0a>
   11f16:	ed36                	sd	a3,152(sp)
   11f18:	87a2                	mv	a5,s0
   11f1a:	86a6                	mv	a3,s1
   11f1c:	4f41                	li	t5,16
   11f1e:	439d                	li	t2,7
   11f20:	f496                	sd	t0,104(sp)
   11f22:	e91a                	sd	t1,144(sp)
   11f24:	843a                	mv	s0,a4
   11f26:	84c6                	mv	s1,a7
   11f28:	a021                	j	11f30 <_vfprintf_r+0xccc>
   11f2a:	3441                	addiw	s0,s0,-16
   11f2c:	028f5a63          	bge	t5,s0,11f60 <_vfprintf_r+0xcfc>
   11f30:	2605                	addiw	a2,a2,1
   11f32:	06c1                	addi	a3,a3,16
   11f34:	e384                	sd	s1,0(a5)
   11f36:	01e7b423          	sd	t5,8(a5)
   11f3a:	f9b6                	sd	a3,240(sp)
   11f3c:	d5b2                	sw	a2,232(sp)
   11f3e:	07c1                	addi	a5,a5,16
   11f40:	fec3d5e3          	bge	t2,a2,11f2a <_vfprintf_r+0xcc6>
   11f44:	6522                	ld	a0,8(sp)
   11f46:	1190                	addi	a2,sp,224
   11f48:	85ca                	mv	a1,s2
   11f4a:	705000ef          	jal	12e4e <__sprint_r>
   11f4e:	f541                	bnez	a0,11ed6 <_vfprintf_r+0xc72>
   11f50:	4f41                	li	t5,16
   11f52:	3441                	addiw	s0,s0,-16
   11f54:	76ce                	ld	a3,240(sp)
   11f56:	562e                	lw	a2,232(sp)
   11f58:	87d2                	mv	a5,s4
   11f5a:	439d                	li	t2,7
   11f5c:	fc8f4ae3          	blt	t5,s0,11f30 <_vfprintf_r+0xccc>
   11f60:	88a6                	mv	a7,s1
   11f62:	72a6                	ld	t0,104(sp)
   11f64:	84b6                	mv	s1,a3
   11f66:	634a                	ld	t1,144(sp)
   11f68:	66ea                	ld	a3,152(sp)
   11f6a:	8722                	mv	a4,s0
   11f6c:	843e                	mv	s0,a5
   11f6e:	94ba                	add	s1,s1,a4
   11f70:	0016059b          	addiw	a1,a2,1
   11f74:	e418                	sd	a4,8(s0)
   11f76:	01143023          	sd	a7,0(s0)
   11f7a:	f9a6                	sd	s1,240(sp)
   11f7c:	d5ae                	sw	a1,232(sp)
   11f7e:	471d                	li	a4,7
   11f80:	0441                	addi	s0,s0,16
   11f82:	cab75163          	bge	a4,a1,11424 <_vfprintf_r+0x1c0>
   11f86:	6522                	ld	a0,8(sp)
   11f88:	1190                	addi	a2,sp,224
   11f8a:	85ca                	mv	a1,s2
   11f8c:	ed36                	sd	a3,152(sp)
   11f8e:	e91a                	sd	t1,144(sp)
   11f90:	f496                	sd	t0,104(sp)
   11f92:	6bd000ef          	jal	12e4e <__sprint_r>
   11f96:	f121                	bnez	a0,11ed6 <_vfprintf_r+0xc72>
   11f98:	74ce                	ld	s1,240(sp)
   11f9a:	66ea                	ld	a3,152(sp)
   11f9c:	634a                	ld	t1,144(sp)
   11f9e:	72a6                	ld	t0,104(sp)
   11fa0:	8452                	mv	s0,s4
   11fa2:	c82ff06f          	j	11424 <_vfprintf_r+0x1c0>
   11fa6:	6522                	ld	a0,8(sp)
   11fa8:	1190                	addi	a2,sp,224
   11faa:	85ca                	mv	a1,s2
   11fac:	e936                	sd	a3,144(sp)
   11fae:	f49a                	sd	t1,104(sp)
   11fb0:	69f000ef          	jal	12e4e <__sprint_r>
   11fb4:	f10d                	bnez	a0,11ed6 <_vfprintf_r+0xc72>
   11fb6:	74ce                	ld	s1,240(sp)
   11fb8:	66ca                	ld	a3,144(sp)
   11fba:	7326                	ld	t1,104(sp)
   11fbc:	8452                	mv	s0,s4
   11fbe:	caeff06f          	j	1146c <_vfprintf_r+0x208>
   11fc2:	68e5                	lui	a7,0x19
   11fc4:	d2888893          	addi	a7,a7,-728 # 18d28 <blanks.1>
   11fc8:	4741                	li	a4,16
   11fca:	57ae                	lw	a5,232(sp)
   11fcc:	4cc1                	li	s9,16
   11fce:	4d1d                	li	s10,7
   11fd0:	8dc6                	mv	s11,a7
   11fd2:	01674663          	blt	a4,s6,11fde <_vfprintf_r+0xd7a>
   11fd6:	a82d                	j	12010 <_vfprintf_r+0xdac>
   11fd8:	3b41                	addiw	s6,s6,-16
   11fda:	036cda63          	bge	s9,s6,1200e <_vfprintf_r+0xdaa>
   11fde:	2785                	addiw	a5,a5,1
   11fe0:	04c1                	addi	s1,s1,16
   11fe2:	01b43023          	sd	s11,0(s0)
   11fe6:	01943423          	sd	s9,8(s0)
   11fea:	f9a6                	sd	s1,240(sp)
   11fec:	d5be                	sw	a5,232(sp)
   11fee:	0441                	addi	s0,s0,16
   11ff0:	fefd54e3          	bge	s10,a5,11fd8 <_vfprintf_r+0xd74>
   11ff4:	6522                	ld	a0,8(sp)
   11ff6:	1190                	addi	a2,sp,224
   11ff8:	85ca                	mv	a1,s2
   11ffa:	655000ef          	jal	12e4e <__sprint_r>
   11ffe:	ec051ce3          	bnez	a0,11ed6 <_vfprintf_r+0xc72>
   12002:	3b41                	addiw	s6,s6,-16
   12004:	74ce                	ld	s1,240(sp)
   12006:	57ae                	lw	a5,232(sp)
   12008:	8452                	mv	s0,s4
   1200a:	fd6ccae3          	blt	s9,s6,11fde <_vfprintf_r+0xd7a>
   1200e:	88ee                	mv	a7,s11
   12010:	0017871b          	addiw	a4,a5,1
   12014:	94da                	add	s1,s1,s6
   12016:	01143023          	sd	a7,0(s0)
   1201a:	01643423          	sd	s6,8(s0)
   1201e:	f9a6                	sd	s1,240(sp)
   12020:	d5ba                	sw	a4,232(sp)
   12022:	479d                	li	a5,7
   12024:	c8e7d463          	bge	a5,a4,114ac <_vfprintf_r+0x248>
   12028:	6522                	ld	a0,8(sp)
   1202a:	1190                	addi	a2,sp,224
   1202c:	85ca                	mv	a1,s2
   1202e:	621000ef          	jal	12e4e <__sprint_r>
   12032:	ea0512e3          	bnez	a0,11ed6 <_vfprintf_r+0xc72>
   12036:	74ce                	ld	s1,240(sp)
   12038:	c74ff06f          	j	114ac <_vfprintf_r+0x248>
   1203c:	576a                	lw	a4,184(sp)
   1203e:	40e05d63          	blez	a4,12458 <_vfprintf_r+0x11f4>
   12042:	77c2                	ld	a5,48(sp)
   12044:	7762                	ld	a4,56(sp)
   12046:	00078b1b          	sext.w	s6,a5
   1204a:	24f74f63          	blt	a4,a5,122a8 <_vfprintf_r+0x1044>
   1204e:	03605063          	blez	s6,1206e <_vfprintf_r+0xe0a>
   12052:	572e                	lw	a4,232(sp)
   12054:	94da                	add	s1,s1,s6
   12056:	01a43023          	sd	s10,0(s0)
   1205a:	0017069b          	addiw	a3,a4,1
   1205e:	01643423          	sd	s6,8(s0)
   12062:	f9a6                	sd	s1,240(sp)
   12064:	d5b6                	sw	a3,232(sp)
   12066:	471d                	li	a4,7
   12068:	0441                	addi	s0,s0,16
   1206a:	7cd74863          	blt	a4,a3,1283a <_vfprintf_r+0x15d6>
   1206e:	fffb4713          	not	a4,s6
   12072:	77c2                	ld	a5,48(sp)
   12074:	977d                	srai	a4,a4,0x3f
   12076:	00eb7b33          	and	s6,s6,a4
   1207a:	41678b3b          	subw	s6,a5,s6
   1207e:	2d604c63          	bgtz	s6,12356 <_vfprintf_r+0x10f2>
   12082:	77c2                	ld	a5,48(sp)
   12084:	400df713          	andi	a4,s11,1024
   12088:	00fd0333          	add	t1,s10,a5
   1208c:	62071063          	bnez	a4,126ac <_vfprintf_r+0x1448>
   12090:	576a                	lw	a4,184(sp)
   12092:	77e2                	ld	a5,56(sp)
   12094:	30f74663          	blt	a4,a5,123a0 <_vfprintf_r+0x113c>
   12098:	001df693          	andi	a3,s11,1
   1209c:	30069263          	bnez	a3,123a0 <_vfprintf_r+0x113c>
   120a0:	76e2                	ld	a3,56(sp)
   120a2:	00dd07b3          	add	a5,s10,a3
   120a6:	40678b33          	sub	s6,a5,t1
   120aa:	9e99                	subw	a3,a3,a4
   120ac:	000b079b          	sext.w	a5,s6
   120b0:	00f6d363          	bge	a3,a5,120b6 <_vfprintf_r+0xe52>
   120b4:	8b36                	mv	s6,a3
   120b6:	2b01                	sext.w	s6,s6
   120b8:	03605063          	blez	s6,120d8 <_vfprintf_r+0xe74>
   120bc:	57ae                	lw	a5,232(sp)
   120be:	94da                	add	s1,s1,s6
   120c0:	00643023          	sd	t1,0(s0)
   120c4:	0017871b          	addiw	a4,a5,1
   120c8:	01643423          	sd	s6,8(s0)
   120cc:	f9a6                	sd	s1,240(sp)
   120ce:	d5ba                	sw	a4,232(sp)
   120d0:	479d                	li	a5,7
   120d2:	0441                	addi	s0,s0,16
   120d4:	1ee7cee3          	blt	a5,a4,12ad0 <_vfprintf_r+0x186c>
   120d8:	fffb4793          	not	a5,s6
   120dc:	97fd                	srai	a5,a5,0x3f
   120de:	00fb7b33          	and	s6,s6,a5
   120e2:	41668b3b          	subw	s6,a3,s6
   120e6:	bb605b63          	blez	s6,1149c <_vfprintf_r+0x238>
   120ea:	68e5                	lui	a7,0x19
   120ec:	4741                	li	a4,16
   120ee:	57ae                	lw	a5,232(sp)
   120f0:	d1888893          	addi	a7,a7,-744 # 18d18 <zeroes.0>
   120f4:	3f675863          	bge	a4,s6,124e4 <_vfprintf_r+0x1280>
   120f8:	f84e                	sd	s3,48(sp)
   120fa:	4cc1                	li	s9,16
   120fc:	89ca                	mv	s3,s2
   120fe:	4d1d                	li	s10,7
   12100:	895a                	mv	s2,s6
   12102:	8b46                	mv	s6,a7
   12104:	a021                	j	1210c <_vfprintf_r+0xea8>
   12106:	3941                	addiw	s2,s2,-16
   12108:	172cd5e3          	bge	s9,s2,12a72 <_vfprintf_r+0x180e>
   1210c:	2785                	addiw	a5,a5,1
   1210e:	04c1                	addi	s1,s1,16
   12110:	01643023          	sd	s6,0(s0)
   12114:	01943423          	sd	s9,8(s0)
   12118:	f9a6                	sd	s1,240(sp)
   1211a:	d5be                	sw	a5,232(sp)
   1211c:	0441                	addi	s0,s0,16
   1211e:	fefd54e3          	bge	s10,a5,12106 <_vfprintf_r+0xea2>
   12122:	6522                	ld	a0,8(sp)
   12124:	1190                	addi	a2,sp,224
   12126:	85ce                	mv	a1,s3
   12128:	527000ef          	jal	12e4e <__sprint_r>
   1212c:	3c0510e3          	bnez	a0,12cec <_vfprintf_r+0x1a88>
   12130:	74ce                	ld	s1,240(sp)
   12132:	57ae                	lw	a5,232(sp)
   12134:	8452                	mv	s0,s4
   12136:	bfc1                	j	12106 <_vfprintf_r+0xea2>
   12138:	001df613          	andi	a2,s11,1
   1213c:	82061de3          	bnez	a2,11976 <_vfprintf_r+0x712>
   12140:	e414                	sd	a3,8(s0)
   12142:	f9a6                	sd	s1,240(sp)
   12144:	d5da                	sw	s6,232(sp)
   12146:	479d                	li	a5,7
   12148:	8967d5e3          	bge	a5,s6,119d2 <_vfprintf_r+0x76e>
   1214c:	6522                	ld	a0,8(sp)
   1214e:	1190                	addi	a2,sp,224
   12150:	85ca                	mv	a1,s2
   12152:	4fd000ef          	jal	12e4e <__sprint_r>
   12156:	d80510e3          	bnez	a0,11ed6 <_vfprintf_r+0xc72>
   1215a:	74ce                	ld	s1,240(sp)
   1215c:	5b2e                	lw	s6,232(sp)
   1215e:	8cd2                	mv	s9,s4
   12160:	b88d                	j	119d2 <_vfprintf_r+0x76e>
   12162:	7762                	ld	a4,56(sp)
   12164:	4785                	li	a5,1
   12166:	86e7d6e3          	bge	a5,a4,119d2 <_vfprintf_r+0x76e>
   1216a:	68e5                	lui	a7,0x19
   1216c:	47c5                	li	a5,17
   1216e:	d1888893          	addi	a7,a7,-744 # 18d18 <zeroes.0>
   12172:	44e7dd63          	bge	a5,a4,125cc <_vfprintf_r+0x1368>
   12176:	f84e                	sd	s3,48(sp)
   12178:	4741                	li	a4,16
   1217a:	4d1d                	li	s10,7
   1217c:	89c6                	mv	s3,a7
   1217e:	a021                	j	12186 <_vfprintf_r+0xf22>
   12180:	3441                	addiw	s0,s0,-16
   12182:	44875363          	bge	a4,s0,125c8 <_vfprintf_r+0x1364>
   12186:	2b05                	addiw	s6,s6,1
   12188:	04c1                	addi	s1,s1,16
   1218a:	013cb023          	sd	s3,0(s9)
   1218e:	00ecb423          	sd	a4,8(s9)
   12192:	f9a6                	sd	s1,240(sp)
   12194:	d5da                	sw	s6,232(sp)
   12196:	0cc1                	addi	s9,s9,16
   12198:	ff6d54e3          	bge	s10,s6,12180 <_vfprintf_r+0xf1c>
   1219c:	6522                	ld	a0,8(sp)
   1219e:	1190                	addi	a2,sp,224
   121a0:	85ca                	mv	a1,s2
   121a2:	4ad000ef          	jal	12e4e <__sprint_r>
   121a6:	d20518e3          	bnez	a0,11ed6 <_vfprintf_r+0xc72>
   121aa:	74ce                	ld	s1,240(sp)
   121ac:	5b2e                	lw	s6,232(sp)
   121ae:	8cd2                	mv	s9,s4
   121b0:	4741                	li	a4,16
   121b2:	b7f9                	j	12180 <_vfprintf_r+0xf1c>
   121b4:	010cf793          	andi	a5,s9,16
   121b8:	e3a1                	bnez	a5,121f8 <_vfprintf_r+0xf94>
   121ba:	7682                	ld	a3,32(sp)
   121bc:	040cf793          	andi	a5,s9,64
   121c0:	4284                	lw	s1,0(a3)
   121c2:	42078163          	beqz	a5,125e4 <_vfprintf_r+0x1380>
   121c6:	14c2                	slli	s1,s1,0x30
   121c8:	90c1                	srli	s1,s1,0x30
   121ca:	f03a                	sd	a4,32(sp)
   121cc:	4785                	li	a5,1
   121ce:	c16ff06f          	j	115e4 <_vfprintf_r+0x380>
   121d2:	4681                	li	a3,0
   121d4:	15c10d13          	addi	s10,sp,348
   121d8:	bcaff06f          	j	115a2 <_vfprintf_r+0x33e>
   121dc:	001df793          	andi	a5,s11,1
   121e0:	aa078e63          	beqz	a5,1149c <_vfprintf_r+0x238>
   121e4:	bcfd                	j	11ce2 <_vfprintf_r+0xa7e>
   121e6:	0009c303          	lbu	t1,0(s3)
   121ea:	f03e                	sd	a5,32(sp)
   121ec:	9a8ff06f          	j	11394 <_vfprintf_r+0x130>
   121f0:	7782                	ld	a5,32(sp)
   121f2:	6384                	ld	s1,0(a5)
   121f4:	be6ff06f          	j	115da <_vfprintf_r+0x376>
   121f8:	7782                	ld	a5,32(sp)
   121fa:	f03a                	sd	a4,32(sp)
   121fc:	6384                	ld	s1,0(a5)
   121fe:	4785                	li	a5,1
   12200:	be4ff06f          	j	115e4 <_vfprintf_r+0x380>
   12204:	010df793          	andi	a5,s11,16
   12208:	a4079fe3          	bnez	a5,11c66 <_vfprintf_r+0xa02>
   1220c:	040df793          	andi	a5,s11,64
   12210:	66079263          	bnez	a5,12874 <_vfprintf_r+0x1610>
   12214:	200dfe13          	andi	t3,s11,512
   12218:	67c2                	ld	a5,16(sp)
   1221a:	1e0e0ae3          	beqz	t3,12c0e <_vfprintf_r+0x19aa>
   1221e:	00f70023          	sb	a5,0(a4)
   12222:	b4a1                	j	11c6a <_vfprintf_r+0xa06>
   12224:	7782                	ld	a5,32(sp)
   12226:	00f78c13          	addi	s8,a5,15
   1222a:	ff0c7c13          	andi	s8,s8,-16
   1222e:	010c0793          	addi	a5,s8,16
   12232:	000c3703          	ld	a4,0(s8)
   12236:	008c3583          	ld	a1,8(s8)
   1223a:	f03e                	sd	a5,32(sp)
   1223c:	c1aff06f          	j	11656 <_vfprintf_r+0x3f2>
   12240:	7782                	ld	a5,32(sp)
   12242:	639c                	ld	a5,0(a5)
   12244:	84be                	mv	s1,a5
   12246:	b36ff06f          	j	1157c <_vfprintf_r+0x318>
   1224a:	f03a                	sd	a4,32(sp)
   1224c:	47a5                	li	a5,9
   1224e:	8cee                	mv	s9,s11
   12250:	ca97f2e3          	bgeu	a5,s1,11ef4 <_vfprintf_r+0xc90>
   12254:	0af4                	addi	a3,sp,348
   12256:	688a                	ld	a7,128(sp)
   12258:	400cf713          	andi	a4,s9,1024
   1225c:	4601                	li	a2,0
   1225e:	85b6                	mv	a1,a3
   12260:	4da9                	li	s11,10
   12262:	4825                	li	a6,9
   12264:	0ff00c13          	li	s8,255
   12268:	a039                	j	12276 <_vfprintf_r+0x1012>
   1226a:	03b4d7b3          	divu	a5,s1,s11
   1226e:	02987663          	bgeu	a6,s1,1229a <_vfprintf_r+0x1036>
   12272:	84be                	mv	s1,a5
   12274:	85ea                	mv	a1,s10
   12276:	fff58d13          	addi	s10,a1,-1 # 1fff <exit-0xe0e9>
   1227a:	2605                	addiw	a2,a2,1
   1227c:	03b4f7b3          	remu	a5,s1,s11
   12280:	0307879b          	addiw	a5,a5,48
   12284:	fef58fa3          	sb	a5,-1(a1)
   12288:	d36d                	beqz	a4,1226a <_vfprintf_r+0x1006>
   1228a:	0008c783          	lbu	a5,0(a7)
   1228e:	fcf61ee3          	bne	a2,a5,1226a <_vfprintf_r+0x1006>
   12292:	fd878ce3          	beq	a5,s8,1226a <_vfprintf_r+0x1006>
   12296:	3e986063          	bltu	a6,s1,12676 <_vfprintf_r+0x1412>
   1229a:	fc32                	sd	a2,56(sp)
   1229c:	e146                	sd	a7,128(sp)
   1229e:	41a686bb          	subw	a3,a3,s10
   122a2:	8de6                	mv	s11,s9
   122a4:	afeff06f          	j	115a2 <_vfprintf_r+0x33e>
   122a8:	00070b1b          	sext.w	s6,a4
   122ac:	db6043e3          	bgtz	s6,12052 <_vfprintf_r+0xdee>
   122b0:	bb7d                	j	1206e <_vfprintf_r+0xe0a>
   122b2:	5b7d                	li	s6,-1
   122b4:	89ba                	mv	s3,a4
   122b6:	8e2ff06f          	j	11398 <_vfprintf_r+0x134>
   122ba:	67e5                	lui	a5,0x19
   122bc:	a5878793          	addi	a5,a5,-1448 # 18a58 <__clzdi2+0x82>
   122c0:	f0be                	sd	a5,96(sp)
   122c2:	7682                	ld	a3,32(sp)
   122c4:	020df793          	andi	a5,s11,32
   122c8:	00868713          	addi	a4,a3,8
   122cc:	14078863          	beqz	a5,1241c <_vfprintf_r+0x11b8>
   122d0:	6284                	ld	s1,0(a3)
   122d2:	001df793          	andi	a5,s11,1
   122d6:	cf81                	beqz	a5,122ee <_vfprintf_r+0x108a>
   122d8:	c899                	beqz	s1,122ee <_vfprintf_r+0x108a>
   122da:	002dee13          	ori	t3,s11,2
   122de:	03000793          	li	a5,48
   122e2:	0af10823          	sb	a5,176(sp)
   122e6:	0a6108a3          	sb	t1,177(sp)
   122ea:	000e0d9b          	sext.w	s11,t3
   122ee:	bffdfc93          	andi	s9,s11,-1025
   122f2:	2c81                	sext.w	s9,s9
   122f4:	f03a                	sd	a4,32(sp)
   122f6:	4789                	li	a5,2
   122f8:	aecff06f          	j	115e4 <_vfprintf_r+0x380>
   122fc:	8cee                	mv	s9,s11
   122fe:	b869                	j	11b98 <_vfprintf_r+0x934>
   12300:	67e5                	lui	a5,0x19
   12302:	a4078793          	addi	a5,a5,-1472 # 18a40 <__clzdi2+0x6a>
   12306:	f0be                	sd	a5,96(sp)
   12308:	bf6d                	j	122c2 <_vfprintf_r+0x105e>
   1230a:	200ded93          	ori	s11,s11,512
   1230e:	0019c303          	lbu	t1,1(s3)
   12312:	2d81                	sext.w	s11,s11
   12314:	0985                	addi	s3,s3,1
   12316:	87eff06f          	j	11394 <_vfprintf_r+0x130>
   1231a:	020ded93          	ori	s11,s11,32
   1231e:	0019c303          	lbu	t1,1(s3)
   12322:	2d81                	sext.w	s11,s11
   12324:	0985                	addi	s3,s3,1
   12326:	86eff06f          	j	11394 <_vfprintf_r+0x130>
   1232a:	6522                	ld	a0,8(sp)
   1232c:	1190                	addi	a2,sp,224
   1232e:	85ca                	mv	a1,s2
   12330:	31f000ef          	jal	12e4e <__sprint_r>
   12334:	ba0511e3          	bnez	a0,11ed6 <_vfprintf_r+0xc72>
   12338:	74ce                	ld	s1,240(sp)
   1233a:	8452                	mv	s0,s4
   1233c:	b2d1                	j	11d00 <_vfprintf_r+0xa9c>
   1233e:	4799                	li	a5,6
   12340:	000b069b          	sext.w	a3,s6
   12344:	5167e663          	bltu	a5,s6,12850 <_vfprintf_r+0x15ec>
   12348:	67e5                	lui	a5,0x19
   1234a:	8c36                	mv	s8,a3
   1234c:	f026                	sd	s1,32(sp)
   1234e:	a7078d13          	addi	s10,a5,-1424 # 18a70 <__clzdi2+0x9a>
   12352:	8acff06f          	j	113fe <_vfprintf_r+0x19a>
   12356:	68e5                	lui	a7,0x19
   12358:	46c1                	li	a3,16
   1235a:	572e                	lw	a4,232(sp)
   1235c:	d1888893          	addi	a7,a7,-744 # 18d18 <zeroes.0>
   12360:	2f66d463          	bge	a3,s6,12648 <_vfprintf_r+0x13e4>
   12364:	46c1                	li	a3,16
   12366:	431d                	li	t1,7
   12368:	8cc6                	mv	s9,a7
   1236a:	a021                	j	12372 <_vfprintf_r+0x110e>
   1236c:	3b41                	addiw	s6,s6,-16
   1236e:	2d66dc63          	bge	a3,s6,12646 <_vfprintf_r+0x13e2>
   12372:	2705                	addiw	a4,a4,1
   12374:	04c1                	addi	s1,s1,16
   12376:	01943023          	sd	s9,0(s0)
   1237a:	e414                	sd	a3,8(s0)
   1237c:	f9a6                	sd	s1,240(sp)
   1237e:	d5ba                	sw	a4,232(sp)
   12380:	0441                	addi	s0,s0,16
   12382:	fee355e3          	bge	t1,a4,1236c <_vfprintf_r+0x1108>
   12386:	6522                	ld	a0,8(sp)
   12388:	1190                	addi	a2,sp,224
   1238a:	85ca                	mv	a1,s2
   1238c:	2c3000ef          	jal	12e4e <__sprint_r>
   12390:	b40513e3          	bnez	a0,11ed6 <_vfprintf_r+0xc72>
   12394:	74ce                	ld	s1,240(sp)
   12396:	572e                	lw	a4,232(sp)
   12398:	8452                	mv	s0,s4
   1239a:	431d                	li	t1,7
   1239c:	46c1                	li	a3,16
   1239e:	b7f9                	j	1236c <_vfprintf_r+0x1108>
   123a0:	56ae                	lw	a3,232(sp)
   123a2:	67c6                	ld	a5,80(sp)
   123a4:	6666                	ld	a2,88(sp)
   123a6:	0441                	addi	s0,s0,16
   123a8:	94be                	add	s1,s1,a5
   123aa:	fec43823          	sd	a2,-16(s0)
   123ae:	0016861b          	addiw	a2,a3,1
   123b2:	fef43c23          	sd	a5,-8(s0)
   123b6:	f9a6                	sd	s1,240(sp)
   123b8:	d5b2                	sw	a2,232(sp)
   123ba:	469d                	li	a3,7
   123bc:	cec6d2e3          	bge	a3,a2,120a0 <_vfprintf_r+0xe3c>
   123c0:	6522                	ld	a0,8(sp)
   123c2:	1190                	addi	a2,sp,224
   123c4:	85ca                	mv	a1,s2
   123c6:	f81a                	sd	t1,48(sp)
   123c8:	287000ef          	jal	12e4e <__sprint_r>
   123cc:	b00515e3          	bnez	a0,11ed6 <_vfprintf_r+0xc72>
   123d0:	576a                	lw	a4,184(sp)
   123d2:	74ce                	ld	s1,240(sp)
   123d4:	7342                	ld	t1,48(sp)
   123d6:	8452                	mv	s0,s4
   123d8:	b1e1                	j	120a0 <_vfprintf_r+0xe3c>
   123da:	07800793          	li	a5,120
   123de:	03000693          	li	a3,48
   123e2:	002de713          	ori	a4,s11,2
   123e6:	0af108a3          	sb	a5,177(sp)
   123ea:	0ad10823          	sb	a3,176(sp)
   123ee:	06300793          	li	a5,99
   123f2:	2701                	sext.w	a4,a4
   123f4:	4b67cf63          	blt	a5,s6,128b2 <_vfprintf_r+0x164e>
   123f8:	67ce                	ld	a5,208(sp)
   123fa:	6cee                	ld	s9,216(sp)
   123fc:	102dee13          	ori	t3,s11,258
   12400:	f83e                	sd	a5,48(sp)
   12402:	000e049b          	sext.w	s1,t3
   12406:	600ccf63          	bltz	s9,12a24 <_vfprintf_r+0x17c0>
   1240a:	fbf3069b          	addiw	a3,t1,-65
   1240e:	8dba                	mv	s11,a4
   12410:	f482                	sd	zero,104(sp)
   12412:	ec02                	sd	zero,24(sp)
   12414:	0f810d13          	addi	s10,sp,248
   12418:	ab6ff06f          	j	116ce <_vfprintf_r+0x46a>
   1241c:	010df793          	andi	a5,s11,16
   12420:	c7d1                	beqz	a5,124ac <_vfprintf_r+0x1248>
   12422:	7782                	ld	a5,32(sp)
   12424:	6384                	ld	s1,0(a5)
   12426:	b575                	j	122d2 <_vfprintf_r+0x106e>
   12428:	6522                	ld	a0,8(sp)
   1242a:	1190                	addi	a2,sp,224
   1242c:	85ca                	mv	a1,s2
   1242e:	221000ef          	jal	12e4e <__sprint_r>
   12432:	aa0512e3          	bnez	a0,11ed6 <_vfprintf_r+0xc72>
   12436:	74ce                	ld	s1,240(sp)
   12438:	5b2e                	lw	s6,232(sp)
   1243a:	8cd2                	mv	s9,s4
   1243c:	d48ff06f          	j	11984 <_vfprintf_r+0x720>
   12440:	6522                	ld	a0,8(sp)
   12442:	1190                	addi	a2,sp,224
   12444:	85ca                	mv	a1,s2
   12446:	209000ef          	jal	12e4e <__sprint_r>
   1244a:	a80516e3          	bnez	a0,11ed6 <_vfprintf_r+0xc72>
   1244e:	74ce                	ld	s1,240(sp)
   12450:	5b2e                	lw	s6,232(sp)
   12452:	8cd2                	mv	s9,s4
   12454:	d4cff06f          	j	119a0 <_vfprintf_r+0x73c>
   12458:	56ae                	lw	a3,232(sp)
   1245a:	6665                	lui	a2,0x19
   1245c:	a7860613          	addi	a2,a2,-1416 # 18a78 <__clzdi2+0xa2>
   12460:	2685                	addiw	a3,a3,1
   12462:	e010                	sd	a2,0(s0)
   12464:	0485                	addi	s1,s1,1
   12466:	4605                	li	a2,1
   12468:	e410                	sd	a2,8(s0)
   1246a:	d5b6                	sw	a3,232(sp)
   1246c:	0006861b          	sext.w	a2,a3
   12470:	f9a6                	sd	s1,240(sp)
   12472:	469d                	li	a3,7
   12474:	0441                	addi	s0,s0,16
   12476:	3ac6c363          	blt	a3,a2,1281c <_vfprintf_r+0x15b8>
   1247a:	10071363          	bnez	a4,12580 <_vfprintf_r+0x131c>
   1247e:	77e2                	ld	a5,56(sp)
   12480:	001df713          	andi	a4,s11,1
   12484:	8f5d                	or	a4,a4,a5
   12486:	e319                	bnez	a4,1248c <_vfprintf_r+0x1228>
   12488:	814ff06f          	j	1149c <_vfprintf_r+0x238>
   1248c:	572e                	lw	a4,232(sp)
   1248e:	67c6                	ld	a5,80(sp)
   12490:	66e6                	ld	a3,88(sp)
   12492:	00978633          	add	a2,a5,s1
   12496:	e014                	sd	a3,0(s0)
   12498:	0017069b          	addiw	a3,a4,1
   1249c:	e41c                	sd	a5,8(s0)
   1249e:	f9b2                	sd	a2,240(sp)
   124a0:	d5b6                	sw	a3,232(sp)
   124a2:	471d                	li	a4,7
   124a4:	3ed74b63          	blt	a4,a3,1289a <_vfprintf_r+0x1636>
   124a8:	0441                	addi	s0,s0,16
   124aa:	a8f5                	j	125a6 <_vfprintf_r+0x1342>
   124ac:	7682                	ld	a3,32(sp)
   124ae:	040df793          	andi	a5,s11,64
   124b2:	4284                	lw	s1,0(a3)
   124b4:	16078563          	beqz	a5,1261e <_vfprintf_r+0x13ba>
   124b8:	14c2                	slli	s1,s1,0x30
   124ba:	90c1                	srli	s1,s1,0x30
   124bc:	bd19                	j	122d2 <_vfprintf_r+0x106e>
   124be:	6522                	ld	a0,8(sp)
   124c0:	f3bfd0ef          	jal	103fa <__sinit>
   124c4:	ddbfe06f          	j	1129e <_vfprintf_r+0x3a>
   124c8:	6522                	ld	a0,8(sp)
   124ca:	1190                	addi	a2,sp,224
   124cc:	85ca                	mv	a1,s2
   124ce:	181000ef          	jal	12e4e <__sprint_r>
   124d2:	a00512e3          	bnez	a0,11ed6 <_vfprintf_r+0xc72>
   124d6:	74ce                	ld	s1,240(sp)
   124d8:	8452                	mv	s0,s4
   124da:	801ff06f          	j	11cda <_vfprintf_r+0xa76>
   124de:	88da                	mv	a7,s6
   124e0:	8b4e                	mv	s6,s3
   124e2:	79c2                	ld	s3,48(sp)
   124e4:	0017871b          	addiw	a4,a5,1
   124e8:	01143023          	sd	a7,0(s0)
   124ec:	01643423          	sd	s6,8(s0)
   124f0:	94da                	add	s1,s1,s6
   124f2:	f9a6                	sd	s1,240(sp)
   124f4:	d5ba                	sw	a4,232(sp)
   124f6:	479d                	li	a5,7
   124f8:	00e7c463          	blt	a5,a4,12500 <_vfprintf_r+0x129c>
   124fc:	f9ffe06f          	j	1149a <_vfprintf_r+0x236>
   12500:	cf4ff06f          	j	119f4 <_vfprintf_r+0x790>
   12504:	f03a                	sd	a4,32(sp)
   12506:	b2e5                	j	11eee <_vfprintf_r+0xc8a>
   12508:	654e                	ld	a0,208(sp)
   1250a:	65ee                	ld	a1,216(sp)
   1250c:	4601                	li	a2,0
   1250e:	4681                	li	a3,0
   12510:	43e050ef          	jal	1794e <__letf2>
   12514:	6362                	ld	t1,24(sp)
   12516:	54054363          	bltz	a0,12a5c <_vfprintf_r+0x17f8>
   1251a:	0af14703          	lbu	a4,175(sp)
   1251e:	04700793          	li	a5,71
   12522:	3067d863          	bge	a5,t1,12832 <_vfprintf_r+0x15ce>
   12526:	67e5                	lui	a5,0x19
   12528:	a2878d13          	addi	s10,a5,-1496 # 18a28 <__clzdi2+0x52>
   1252c:	f7fdfe13          	andi	t3,s11,-129
   12530:	ec02                	sd	zero,24(sp)
   12532:	e482                	sd	zero,72(sp)
   12534:	e082                	sd	zero,64(sp)
   12536:	f802                	sd	zero,48(sp)
   12538:	000e0d9b          	sext.w	s11,t3
   1253c:	4c0d                	li	s8,3
   1253e:	468d                	li	a3,3
   12540:	4b01                	li	s6,0
   12542:	c319                	beqz	a4,12548 <_vfprintf_r+0x12e4>
   12544:	87aff06f          	j	115be <_vfprintf_r+0x35a>
   12548:	ec1fe06f          	j	11408 <_vfprintf_r+0x1a4>
   1254c:	856a                	mv	a0,s10
   1254e:	f49a                	sd	t1,104(sp)
   12550:	40c010ef          	jal	1395c <strlen>
   12554:	0005069b          	sext.w	a3,a0
   12558:	0af14703          	lbu	a4,175(sp)
   1255c:	fff6c813          	not	a6,a3
   12560:	43f85813          	srai	a6,a6,0x3f
   12564:	f026                	sd	s1,32(sp)
   12566:	ec02                	sd	zero,24(sp)
   12568:	e482                	sd	zero,72(sp)
   1256a:	e082                	sd	zero,64(sp)
   1256c:	f802                	sd	zero,48(sp)
   1256e:	7326                	ld	t1,104(sp)
   12570:	00d87c33          	and	s8,a6,a3
   12574:	4b01                	li	s6,0
   12576:	c319                	beqz	a4,1257c <_vfprintf_r+0x1318>
   12578:	846ff06f          	j	115be <_vfprintf_r+0x35a>
   1257c:	e8dfe06f          	j	11408 <_vfprintf_r+0x1a4>
   12580:	55ae                	lw	a1,232(sp)
   12582:	67c6                	ld	a5,80(sp)
   12584:	66e6                	ld	a3,88(sp)
   12586:	0441                	addi	s0,s0,16
   12588:	00978633          	add	a2,a5,s1
   1258c:	fed43823          	sd	a3,-16(s0)
   12590:	0015869b          	addiw	a3,a1,1
   12594:	fef43c23          	sd	a5,-8(s0)
   12598:	f9b2                	sd	a2,240(sp)
   1259a:	d5b6                	sw	a3,232(sp)
   1259c:	459d                	li	a1,7
   1259e:	2ed5ce63          	blt	a1,a3,1289a <_vfprintf_r+0x1636>
   125a2:	5a074163          	bltz	a4,12b44 <_vfprintf_r+0x18e0>
   125a6:	77e2                	ld	a5,56(sp)
   125a8:	0016871b          	addiw	a4,a3,1
   125ac:	01a43023          	sd	s10,0(s0)
   125b0:	00c784b3          	add	s1,a5,a2
   125b4:	e41c                	sd	a5,8(s0)
   125b6:	f9a6                	sd	s1,240(sp)
   125b8:	d5ba                	sw	a4,232(sp)
   125ba:	479d                	li	a5,7
   125bc:	00e7c463          	blt	a5,a4,125c4 <_vfprintf_r+0x1360>
   125c0:	edbfe06f          	j	1149a <_vfprintf_r+0x236>
   125c4:	c30ff06f          	j	119f4 <_vfprintf_r+0x790>
   125c8:	88ce                	mv	a7,s3
   125ca:	79c2                	ld	s3,48(sp)
   125cc:	2b05                	addiw	s6,s6,1
   125ce:	94a2                	add	s1,s1,s0
   125d0:	011cb023          	sd	a7,0(s9)
   125d4:	008cb423          	sd	s0,8(s9)
   125d8:	f9a6                	sd	s1,240(sp)
   125da:	d5da                	sw	s6,232(sp)
   125dc:	479d                	li	a5,7
   125de:	bf67d963          	bge	a5,s6,119d0 <_vfprintf_r+0x76c>
   125e2:	b6ad                	j	1214c <_vfprintf_r+0xee8>
   125e4:	200cf793          	andi	a5,s9,512
   125e8:	28078063          	beqz	a5,12868 <_vfprintf_r+0x1604>
   125ec:	0ff4f493          	zext.b	s1,s1
   125f0:	f03a                	sd	a4,32(sp)
   125f2:	4785                	li	a5,1
   125f4:	ff1fe06f          	j	115e4 <_vfprintf_r+0x380>
   125f8:	200df793          	andi	a5,s11,512
   125fc:	26078263          	beqz	a5,12860 <_vfprintf_r+0x15fc>
   12600:	0ff4f493          	zext.b	s1,s1
   12604:	fd7fe06f          	j	115da <_vfprintf_r+0x376>
   12608:	200df793          	andi	a5,s11,512
   1260c:	24078763          	beqz	a5,1285a <_vfprintf_r+0x15f6>
   12610:	0184949b          	slliw	s1,s1,0x18
   12614:	4184d49b          	sraiw	s1,s1,0x18
   12618:	87a6                	mv	a5,s1
   1261a:	f63fe06f          	j	1157c <_vfprintf_r+0x318>
   1261e:	200df793          	andi	a5,s11,512
   12622:	22078963          	beqz	a5,12854 <_vfprintf_r+0x15f0>
   12626:	0ff4f493          	zext.b	s1,s1
   1262a:	b165                	j	122d2 <_vfprintf_r+0x106e>
   1262c:	67ee                	ld	a5,216(sp)
   1262e:	2407cf63          	bltz	a5,1288c <_vfprintf_r+0x1628>
   12632:	0af14703          	lbu	a4,175(sp)
   12636:	04700793          	li	a5,71
   1263a:	4a67ca63          	blt	a5,t1,12aee <_vfprintf_r+0x188a>
   1263e:	67e5                	lui	a5,0x19
   12640:	a3078d13          	addi	s10,a5,-1488 # 18a30 <__clzdi2+0x5a>
   12644:	b5e5                	j	1252c <_vfprintf_r+0x12c8>
   12646:	88e6                	mv	a7,s9
   12648:	0017069b          	addiw	a3,a4,1
   1264c:	94da                	add	s1,s1,s6
   1264e:	01143023          	sd	a7,0(s0)
   12652:	01643423          	sd	s6,8(s0)
   12656:	f9a6                	sd	s1,240(sp)
   12658:	d5b6                	sw	a3,232(sp)
   1265a:	471d                	li	a4,7
   1265c:	0441                	addi	s0,s0,16
   1265e:	a2d752e3          	bge	a4,a3,12082 <_vfprintf_r+0xe1e>
   12662:	6522                	ld	a0,8(sp)
   12664:	1190                	addi	a2,sp,224
   12666:	85ca                	mv	a1,s2
   12668:	7e6000ef          	jal	12e4e <__sprint_r>
   1266c:	860515e3          	bnez	a0,11ed6 <_vfprintf_r+0xc72>
   12670:	74ce                	ld	s1,240(sp)
   12672:	8452                	mv	s0,s4
   12674:	b439                	j	12082 <_vfprintf_r+0xe1e>
   12676:	67aa                	ld	a5,136(sp)
   12678:	75e6                	ld	a1,120(sp)
   1267a:	e0b6                	sd	a3,64(sp)
   1267c:	40fd0d33          	sub	s10,s10,a5
   12680:	863e                	mv	a2,a5
   12682:	856a                	mv	a0,s10
   12684:	fc3a                	sd	a4,56(sp)
   12686:	f81a                	sd	t1,48(sp)
   12688:	ec46                	sd	a7,24(sp)
   1268a:	7ab000ef          	jal	13634 <strncpy>
   1268e:	68e2                	ld	a7,24(sp)
   12690:	47a9                	li	a5,10
   12692:	02f4d7b3          	divu	a5,s1,a5
   12696:	0018c603          	lbu	a2,1(a7)
   1269a:	7342                	ld	t1,48(sp)
   1269c:	7762                	ld	a4,56(sp)
   1269e:	00c03633          	snez	a2,a2
   126a2:	98b2                	add	a7,a7,a2
   126a4:	6686                	ld	a3,64(sp)
   126a6:	4601                	li	a2,0
   126a8:	4825                	li	a6,9
   126aa:	b6e1                	j	12272 <_vfprintf_r+0x100e>
   126ac:	77e2                	ld	a5,56(sp)
   126ae:	6c86                	ld	s9,64(sp)
   126b0:	68e5                	lui	a7,0x19
   126b2:	00fd05b3          	add	a1,s10,a5
   126b6:	f4ce                	sd	s3,104(sp)
   126b8:	e96e                	sd	s11,144(sp)
   126ba:	ed5e                	sd	s7,152(sp)
   126bc:	6da6                	ld	s11,72(sp)
   126be:	e0e2                	sd	s8,64(sp)
   126c0:	e4ea                	sd	s10,72(sp)
   126c2:	8626                	mv	a2,s1
   126c4:	6baa                	ld	s7,136(sp)
   126c6:	6c0a                	ld	s8,128(sp)
   126c8:	69a2                	ld	s3,8(sp)
   126ca:	469d                	li	a3,7
   126cc:	4741                	li	a4,16
   126ce:	d1888b13          	addi	s6,a7,-744 # 18d18 <zeroes.0>
   126d2:	87a2                	mv	a5,s0
   126d4:	8d1a                	mv	s10,t1
   126d6:	84ae                	mv	s1,a1
   126d8:	07905d63          	blez	s9,12752 <_vfprintf_r+0x14ee>
   126dc:	11b05163          	blez	s11,127de <_vfprintf_r+0x157a>
   126e0:	3dfd                	addiw	s11,s11,-1
   126e2:	55ae                	lw	a1,232(sp)
   126e4:	7566                	ld	a0,120(sp)
   126e6:	965e                	add	a2,a2,s7
   126e8:	0177b423          	sd	s7,8(a5)
   126ec:	e388                	sd	a0,0(a5)
   126ee:	0015851b          	addiw	a0,a1,1
   126f2:	f9b2                	sd	a2,240(sp)
   126f4:	d5aa                	sw	a0,232(sp)
   126f6:	07c1                	addi	a5,a5,16
   126f8:	0ea6c663          	blt	a3,a0,127e4 <_vfprintf_r+0x1580>
   126fc:	000c4583          	lbu	a1,0(s8)
   12700:	41a48f33          	sub	t5,s1,s10
   12704:	000f051b          	sext.w	a0,t5
   12708:	0005881b          	sext.w	a6,a1
   1270c:	00a5d363          	bge	a1,a0,12712 <_vfprintf_r+0x14ae>
   12710:	8f42                	mv	t5,a6
   12712:	000f041b          	sext.w	s0,t5
   12716:	02805263          	blez	s0,1273a <_vfprintf_r+0x14d6>
   1271a:	55ae                	lw	a1,232(sp)
   1271c:	9622                	add	a2,a2,s0
   1271e:	01a7b023          	sd	s10,0(a5)
   12722:	0015851b          	addiw	a0,a1,1
   12726:	e780                	sd	s0,8(a5)
   12728:	f9b2                	sd	a2,240(sp)
   1272a:	d5aa                	sw	a0,232(sp)
   1272c:	0ca6c863          	blt	a3,a0,127fc <_vfprintf_r+0x1598>
   12730:	000c4583          	lbu	a1,0(s8)
   12734:	07c1                	addi	a5,a5,16
   12736:	0005881b          	sext.w	a6,a1
   1273a:	fff44513          	not	a0,s0
   1273e:	957d                	srai	a0,a0,0x3f
   12740:	00a47f33          	and	t5,s0,a0
   12744:	41e8043b          	subw	s0,a6,t5
   12748:	02804763          	bgtz	s0,12776 <_vfprintf_r+0x1512>
   1274c:	9d2e                	add	s10,s10,a1
   1274e:	f99047e3          	bgtz	s9,126dc <_vfprintf_r+0x1478>
   12752:	f9b047e3          	bgtz	s11,126e0 <_vfprintf_r+0x147c>
   12756:	836a                	mv	t1,s10
   12758:	843e                	mv	s0,a5
   1275a:	6d26                	ld	s10,72(sp)
   1275c:	77e2                	ld	a5,56(sp)
   1275e:	e162                	sd	s8,128(sp)
   12760:	79a6                	ld	s3,104(sp)
   12762:	00fd0733          	add	a4,s10,a5
   12766:	6dca                	ld	s11,144(sp)
   12768:	6bea                	ld	s7,152(sp)
   1276a:	6c06                	ld	s8,64(sp)
   1276c:	84b2                	mv	s1,a2
   1276e:	926771e3          	bgeu	a4,t1,12090 <_vfprintf_r+0xe2c>
   12772:	833a                	mv	t1,a4
   12774:	ba31                	j	12090 <_vfprintf_r+0xe2c>
   12776:	6f65                	lui	t5,0x19
   12778:	55ae                	lw	a1,232(sp)
   1277a:	d18f0f13          	addi	t5,t5,-744 # 18d18 <zeroes.0>
   1277e:	04875163          	bge	a4,s0,127c0 <_vfprintf_r+0x155c>
   12782:	f85a                	sd	s6,48(sp)
   12784:	a021                	j	1278c <_vfprintf_r+0x1528>
   12786:	3441                	addiw	s0,s0,-16
   12788:	02875b63          	bge	a4,s0,127be <_vfprintf_r+0x155a>
   1278c:	2585                	addiw	a1,a1,1
   1278e:	0641                	addi	a2,a2,16
   12790:	0167b023          	sd	s6,0(a5)
   12794:	e798                	sd	a4,8(a5)
   12796:	f9b2                	sd	a2,240(sp)
   12798:	d5ae                	sw	a1,232(sp)
   1279a:	07c1                	addi	a5,a5,16
   1279c:	feb6d5e3          	bge	a3,a1,12786 <_vfprintf_r+0x1522>
   127a0:	1190                	addi	a2,sp,224
   127a2:	85ca                	mv	a1,s2
   127a4:	854e                	mv	a0,s3
   127a6:	6a8000ef          	jal	12e4e <__sprint_r>
   127aa:	f2051663          	bnez	a0,11ed6 <_vfprintf_r+0xc72>
   127ae:	4741                	li	a4,16
   127b0:	3441                	addiw	s0,s0,-16
   127b2:	764e                	ld	a2,240(sp)
   127b4:	55ae                	lw	a1,232(sp)
   127b6:	87d2                	mv	a5,s4
   127b8:	469d                	li	a3,7
   127ba:	fc8749e3          	blt	a4,s0,1278c <_vfprintf_r+0x1528>
   127be:	7f42                	ld	t5,48(sp)
   127c0:	0015851b          	addiw	a0,a1,1
   127c4:	9622                	add	a2,a2,s0
   127c6:	01e7b023          	sd	t5,0(a5)
   127ca:	e780                	sd	s0,8(a5)
   127cc:	f9b2                	sd	a2,240(sp)
   127ce:	d5aa                	sw	a0,232(sp)
   127d0:	26a6c763          	blt	a3,a0,12a3e <_vfprintf_r+0x17da>
   127d4:	000c4583          	lbu	a1,0(s8)
   127d8:	07c1                	addi	a5,a5,16
   127da:	9d2e                	add	s10,s10,a1
   127dc:	bf8d                	j	1274e <_vfprintf_r+0x14ea>
   127de:	1c7d                	addi	s8,s8,-1
   127e0:	3cfd                	addiw	s9,s9,-1
   127e2:	b701                	j	126e2 <_vfprintf_r+0x147e>
   127e4:	1190                	addi	a2,sp,224
   127e6:	85ca                	mv	a1,s2
   127e8:	854e                	mv	a0,s3
   127ea:	664000ef          	jal	12e4e <__sprint_r>
   127ee:	ee051463          	bnez	a0,11ed6 <_vfprintf_r+0xc72>
   127f2:	764e                	ld	a2,240(sp)
   127f4:	87d2                	mv	a5,s4
   127f6:	4741                	li	a4,16
   127f8:	469d                	li	a3,7
   127fa:	b709                	j	126fc <_vfprintf_r+0x1498>
   127fc:	1190                	addi	a2,sp,224
   127fe:	85ca                	mv	a1,s2
   12800:	854e                	mv	a0,s3
   12802:	64c000ef          	jal	12e4e <__sprint_r>
   12806:	ec051863          	bnez	a0,11ed6 <_vfprintf_r+0xc72>
   1280a:	000c4583          	lbu	a1,0(s8)
   1280e:	764e                	ld	a2,240(sp)
   12810:	87d2                	mv	a5,s4
   12812:	0005881b          	sext.w	a6,a1
   12816:	4741                	li	a4,16
   12818:	469d                	li	a3,7
   1281a:	b705                	j	1273a <_vfprintf_r+0x14d6>
   1281c:	6522                	ld	a0,8(sp)
   1281e:	1190                	addi	a2,sp,224
   12820:	85ca                	mv	a1,s2
   12822:	62c000ef          	jal	12e4e <__sprint_r>
   12826:	ea051863          	bnez	a0,11ed6 <_vfprintf_r+0xc72>
   1282a:	576a                	lw	a4,184(sp)
   1282c:	74ce                	ld	s1,240(sp)
   1282e:	8452                	mv	s0,s4
   12830:	b1a9                	j	1247a <_vfprintf_r+0x1216>
   12832:	67e5                	lui	a5,0x19
   12834:	a2078d13          	addi	s10,a5,-1504 # 18a20 <__clzdi2+0x4a>
   12838:	b9d5                	j	1252c <_vfprintf_r+0x12c8>
   1283a:	6522                	ld	a0,8(sp)
   1283c:	1190                	addi	a2,sp,224
   1283e:	85ca                	mv	a1,s2
   12840:	60e000ef          	jal	12e4e <__sprint_r>
   12844:	e8051963          	bnez	a0,11ed6 <_vfprintf_r+0xc72>
   12848:	74ce                	ld	s1,240(sp)
   1284a:	8452                	mv	s0,s4
   1284c:	823ff06f          	j	1206e <_vfprintf_r+0xe0a>
   12850:	4699                	li	a3,6
   12852:	bcdd                	j	12348 <_vfprintf_r+0x10e4>
   12854:	1482                	slli	s1,s1,0x20
   12856:	9081                	srli	s1,s1,0x20
   12858:	bcad                	j	122d2 <_vfprintf_r+0x106e>
   1285a:	87a6                	mv	a5,s1
   1285c:	d21fe06f          	j	1157c <_vfprintf_r+0x318>
   12860:	1482                	slli	s1,s1,0x20
   12862:	9081                	srli	s1,s1,0x20
   12864:	d77fe06f          	j	115da <_vfprintf_r+0x376>
   12868:	1482                	slli	s1,s1,0x20
   1286a:	9081                	srli	s1,s1,0x20
   1286c:	f03a                	sd	a4,32(sp)
   1286e:	4785                	li	a5,1
   12870:	d75fe06f          	j	115e4 <_vfprintf_r+0x380>
   12874:	67c2                	ld	a5,16(sp)
   12876:	00f71023          	sh	a5,0(a4)
   1287a:	bf0ff06f          	j	11c6a <_vfprintf_r+0xa06>
   1287e:	6522                	ld	a0,8(sp)
   12880:	1190                	addi	a2,sp,224
   12882:	85ca                	mv	a1,s2
   12884:	5ca000ef          	jal	12e4e <__sprint_r>
   12888:	c59fe06f          	j	114e0 <_vfprintf_r+0x27c>
   1288c:	02d00793          	li	a5,45
   12890:	0af107a3          	sb	a5,175(sp)
   12894:	02d00713          	li	a4,45
   12898:	bb79                	j	12636 <_vfprintf_r+0x13d2>
   1289a:	6522                	ld	a0,8(sp)
   1289c:	1190                	addi	a2,sp,224
   1289e:	85ca                	mv	a1,s2
   128a0:	5ae000ef          	jal	12e4e <__sprint_r>
   128a4:	e2051963          	bnez	a0,11ed6 <_vfprintf_r+0xc72>
   128a8:	576a                	lw	a4,184(sp)
   128aa:	764e                	ld	a2,240(sp)
   128ac:	56ae                	lw	a3,232(sp)
   128ae:	8452                	mv	s0,s4
   128b0:	b9cd                	j	125a2 <_vfprintf_r+0x133e>
   128b2:	6522                	ld	a0,8(sp)
   128b4:	001b059b          	addiw	a1,s6,1
   128b8:	f83a                	sd	a4,48(sp)
   128ba:	ec1a                	sd	t1,24(sp)
   128bc:	ba2fe0ef          	jal	10c5e <_malloc_r>
   128c0:	6362                	ld	t1,24(sp)
   128c2:	7742                	ld	a4,48(sp)
   128c4:	8d2a                	mv	s10,a0
   128c6:	4c050563          	beqz	a0,12d90 <_vfprintf_r+0x1b2c>
   128ca:	ec2a                	sd	a0,24(sp)
   128cc:	8dba                	mv	s11,a4
   128ce:	dd9fe06f          	j	116a6 <_vfprintf_r+0x442>
   128d2:	75c2                	ld	a1,48(sp)
   128d4:	6522                	ld	a0,8(sp)
   128d6:	875a                	mv	a4,s6
   128d8:	0c810893          	addi	a7,sp,200
   128dc:	0bc10813          	addi	a6,sp,188
   128e0:	193c                	addi	a5,sp,184
   128e2:	4689                	li	a3,2
   128e4:	8666                	mv	a2,s9
   128e6:	240010ef          	jal	13b26 <_ldtoa_r>
   128ea:	7362                	ld	t1,56(sp)
   128ec:	04700713          	li	a4,71
   128f0:	8d2a                	mv	s10,a0
   128f2:	48e31d63          	bne	t1,a4,12d8c <_vfprintf_r+0x1b28>
   128f6:	001df713          	andi	a4,s11,1
   128fa:	1c071263          	bnez	a4,12abe <_vfprintf_r+0x185a>
   128fe:	57ea                	lw	a5,184(sp)
   12900:	f83e                	sd	a5,48(sp)
   12902:	67ae                	ld	a5,200(sp)
   12904:	41a787bb          	subw	a5,a5,s10
   12908:	fc3e                	sd	a5,56(sp)
   1290a:	77c2                	ld	a5,48(sp)
   1290c:	5775                	li	a4,-3
   1290e:	00e7c463          	blt	a5,a4,12916 <_vfprintf_r+0x16b2>
   12912:	0cfb5763          	bge	s6,a5,129e0 <_vfprintf_r+0x177c>
   12916:	77c2                	ld	a5,48(sp)
   12918:	3379                	addiw	t1,t1,-2
   1291a:	fff7871b          	addiw	a4,a5,-1
   1291e:	dd3a                	sw	a4,184(sp)
   12920:	0ff37693          	zext.b	a3,t1
   12924:	4601                	li	a2,0
   12926:	f49fe06f          	j	1186e <_vfprintf_r+0x60a>
   1292a:	77c2                	ld	a5,48(sp)
   1292c:	00a7c583          	lbu	a1,10(a5)
   12930:	feb68fa3          	sb	a1,-1(a3)
   12934:	f0bfe06f          	j	1183e <_vfprintf_r+0x5da>
   12938:	0af14703          	lbu	a4,175(sp)
   1293c:	4b01                	li	s6,0
   1293e:	c319                	beqz	a4,12944 <_vfprintf_r+0x16e0>
   12940:	c7ffe06f          	j	115be <_vfprintf_r+0x35a>
   12944:	ac5fe06f          	j	11408 <_vfprintf_r+0x1a4>
   12948:	875a                	mv	a4,s6
   1294a:	468d                	li	a3,3
   1294c:	75c2                	ld	a1,48(sp)
   1294e:	6522                	ld	a0,8(sp)
   12950:	0c810893          	addi	a7,sp,200
   12954:	0bc10813          	addi	a6,sp,188
   12958:	193c                	addi	a5,sp,184
   1295a:	8666                	mv	a2,s9
   1295c:	e09a                	sd	t1,64(sp)
   1295e:	fc3a                	sd	a4,56(sp)
   12960:	1c6010ef          	jal	13b26 <_ldtoa_r>
   12964:	7762                	ld	a4,56(sp)
   12966:	6306                	ld	t1,64(sp)
   12968:	8d2a                	mv	s10,a0
   1296a:	fdf37c13          	andi	s8,t1,-33
   1296e:	04600693          	li	a3,70
   12972:	00ed0833          	add	a6,s10,a4
   12976:	00dc1a63          	bne	s8,a3,1298a <_vfprintf_r+0x1726>
   1297a:	000d4603          	lbu	a2,0(s10)
   1297e:	03000693          	li	a3,48
   12982:	2ad60063          	beq	a2,a3,12c22 <_vfprintf_r+0x19be>
   12986:	56ea                	lw	a3,184(sp)
   12988:	9836                	add	a6,a6,a3
   1298a:	7542                	ld	a0,48(sp)
   1298c:	4601                	li	a2,0
   1298e:	4681                	li	a3,0
   12990:	85e6                	mv	a1,s9
   12992:	e0c2                	sd	a6,64(sp)
   12994:	fc1a                	sd	t1,56(sp)
   12996:	673040ef          	jal	17808 <__eqtf2>
   1299a:	7362                	ld	t1,56(sp)
   1299c:	6806                	ld	a6,64(sp)
   1299e:	12050563          	beqz	a0,12ac8 <_vfprintf_r+0x1864>
   129a2:	67ae                	ld	a5,200(sp)
   129a4:	0107fc63          	bgeu	a5,a6,129bc <_vfprintf_r+0x1758>
   129a8:	03000693          	li	a3,48
   129ac:	00178713          	addi	a4,a5,1
   129b0:	e5ba                	sd	a4,200(sp)
   129b2:	00d78023          	sb	a3,0(a5)
   129b6:	67ae                	ld	a5,200(sp)
   129b8:	ff07eae3          	bltu	a5,a6,129ac <_vfprintf_r+0x1748>
   129bc:	576a                	lw	a4,184(sp)
   129be:	f83a                	sd	a4,48(sp)
   129c0:	41a787bb          	subw	a5,a5,s10
   129c4:	04700713          	li	a4,71
   129c8:	fc3e                	sd	a5,56(sp)
   129ca:	f4ec00e3          	beq	s8,a4,1290a <_vfprintf_r+0x16a6>
   129ce:	04600713          	li	a4,70
   129d2:	14ec0c63          	beq	s8,a4,12b2a <_vfprintf_r+0x18c6>
   129d6:	77c2                	ld	a5,48(sp)
   129d8:	fff7871b          	addiw	a4,a5,-1
   129dc:	dd3a                	sw	a4,184(sp)
   129de:	b789                	j	12920 <_vfprintf_r+0x16bc>
   129e0:	77e2                	ld	a5,56(sp)
   129e2:	7742                	ld	a4,48(sp)
   129e4:	10f74c63          	blt	a4,a5,12afc <_vfprintf_r+0x1898>
   129e8:	77c2                	ld	a5,48(sp)
   129ea:	001df713          	andi	a4,s11,1
   129ee:	86be                	mv	a3,a5
   129f0:	c701                	beqz	a4,129f8 <_vfprintf_r+0x1794>
   129f2:	6746                	ld	a4,80(sp)
   129f4:	00f706bb          	addw	a3,a4,a5
   129f8:	400dfe13          	andi	t3,s11,1024
   129fc:	000e0563          	beqz	t3,12a06 <_vfprintf_r+0x17a2>
   12a00:	77c2                	ld	a5,48(sp)
   12a02:	24f04463          	bgtz	a5,12c4a <_vfprintf_r+0x19e6>
   12a06:	fff6c813          	not	a6,a3
   12a0a:	43f85813          	srai	a6,a6,0x3f
   12a0e:	0106f833          	and	a6,a3,a6
   12a12:	00080c1b          	sext.w	s8,a6
   12a16:	8da6                	mv	s11,s1
   12a18:	06700313          	li	t1,103
   12a1c:	e482                	sd	zero,72(sp)
   12a1e:	e082                	sd	zero,64(sp)
   12a20:	f07fe06f          	j	11926 <_vfprintf_r+0x6c2>
   12a24:	8dba                	mv	s11,a4
   12a26:	ec02                	sd	zero,24(sp)
   12a28:	0f810d13          	addi	s10,sp,248
   12a2c:	577d                	li	a4,-1
   12a2e:	177e                	slli	a4,a4,0x3f
   12a30:	02d00793          	li	a5,45
   12a34:	00ecccb3          	xor	s9,s9,a4
   12a38:	f4be                	sd	a5,104(sp)
   12a3a:	c85fe06f          	j	116be <_vfprintf_r+0x45a>
   12a3e:	1190                	addi	a2,sp,224
   12a40:	85ca                	mv	a1,s2
   12a42:	854e                	mv	a0,s3
   12a44:	40a000ef          	jal	12e4e <__sprint_r>
   12a48:	c8051763          	bnez	a0,11ed6 <_vfprintf_r+0xc72>
   12a4c:	000c4583          	lbu	a1,0(s8)
   12a50:	764e                	ld	a2,240(sp)
   12a52:	87d2                	mv	a5,s4
   12a54:	4741                	li	a4,16
   12a56:	469d                	li	a3,7
   12a58:	9d2e                	add	s10,s10,a1
   12a5a:	b9d5                	j	1274e <_vfprintf_r+0x14ea>
   12a5c:	02d00793          	li	a5,45
   12a60:	0af107a3          	sb	a5,175(sp)
   12a64:	02d00713          	li	a4,45
   12a68:	bc5d                	j	1251e <_vfprintf_r+0x12ba>
   12a6a:	57fd                	li	a5,-1
   12a6c:	e83e                	sd	a5,16(sp)
   12a6e:	aa1fe06f          	j	1150e <_vfprintf_r+0x2aa>
   12a72:	88da                	mv	a7,s6
   12a74:	8b4a                	mv	s6,s2
   12a76:	894e                	mv	s2,s3
   12a78:	79c2                	ld	s3,48(sp)
   12a7a:	b4ad                	j	124e4 <_vfprintf_r+0x1280>
   12a7c:	0af14703          	lbu	a4,175(sp)
   12a80:	f026                	sd	s1,32(sp)
   12a82:	e482                	sd	zero,72(sp)
   12a84:	e082                	sd	zero,64(sp)
   12a86:	f802                	sd	zero,48(sp)
   12a88:	8c5a                	mv	s8,s6
   12a8a:	86da                	mv	a3,s6
   12a8c:	4b01                	li	s6,0
   12a8e:	c319                	beqz	a4,12a94 <_vfprintf_r+0x1830>
   12a90:	b2ffe06f          	j	115be <_vfprintf_r+0x35a>
   12a94:	975fe06f          	j	11408 <_vfprintf_r+0x1a4>
   12a98:	75c2                	ld	a1,48(sp)
   12a9a:	6522                	ld	a0,8(sp)
   12a9c:	875a                	mv	a4,s6
   12a9e:	0c810893          	addi	a7,sp,200
   12aa2:	0bc10813          	addi	a6,sp,188
   12aa6:	193c                	addi	a5,sp,184
   12aa8:	4689                	li	a3,2
   12aaa:	8666                	mv	a2,s9
   12aac:	fc1a                	sd	t1,56(sp)
   12aae:	078010ef          	jal	13b26 <_ldtoa_r>
   12ab2:	001df713          	andi	a4,s11,1
   12ab6:	7362                	ld	t1,56(sp)
   12ab8:	8d2a                	mv	s10,a0
   12aba:	e40702e3          	beqz	a4,128fe <_vfprintf_r+0x169a>
   12abe:	016d0833          	add	a6,s10,s6
   12ac2:	04700c13          	li	s8,71
   12ac6:	b5d1                	j	1298a <_vfprintf_r+0x1726>
   12ac8:	57ea                	lw	a5,184(sp)
   12aca:	f83e                	sd	a5,48(sp)
   12acc:	87c2                	mv	a5,a6
   12ace:	bdcd                	j	129c0 <_vfprintf_r+0x175c>
   12ad0:	6522                	ld	a0,8(sp)
   12ad2:	1190                	addi	a2,sp,224
   12ad4:	85ca                	mv	a1,s2
   12ad6:	378000ef          	jal	12e4e <__sprint_r>
   12ada:	be051e63          	bnez	a0,11ed6 <_vfprintf_r+0xc72>
   12ade:	56ea                	lw	a3,184(sp)
   12ae0:	77e2                	ld	a5,56(sp)
   12ae2:	74ce                	ld	s1,240(sp)
   12ae4:	8452                	mv	s0,s4
   12ae6:	40d786bb          	subw	a3,a5,a3
   12aea:	deeff06f          	j	120d8 <_vfprintf_r+0xe74>
   12aee:	67e5                	lui	a5,0x19
   12af0:	a3878d13          	addi	s10,a5,-1480 # 18a38 <__clzdi2+0x62>
   12af4:	bc25                	j	1252c <_vfprintf_r+0x12c8>
   12af6:	8cee                	mv	s9,s11
   12af8:	bfcff06f          	j	11ef4 <_vfprintf_r+0xc90>
   12afc:	67c6                	ld	a5,80(sp)
   12afe:	7762                	ld	a4,56(sp)
   12b00:	06700313          	li	t1,103
   12b04:	00e786bb          	addw	a3,a5,a4
   12b08:	77c2                	ld	a5,48(sp)
   12b0a:	1ef05c63          	blez	a5,12d02 <_vfprintf_r+0x1a9e>
   12b0e:	400dfe13          	andi	t3,s11,1024
   12b12:	120e1e63          	bnez	t3,12c4e <_vfprintf_r+0x19ea>
   12b16:	fff6c813          	not	a6,a3
   12b1a:	43f85813          	srai	a6,a6,0x3f
   12b1e:	0106f833          	and	a6,a3,a6
   12b22:	00080c1b          	sext.w	s8,a6
   12b26:	8da6                	mv	s11,s1
   12b28:	bdd5                	j	12a1c <_vfprintf_r+0x17b8>
   12b2a:	77c2                	ld	a5,48(sp)
   12b2c:	001df713          	andi	a4,s11,1
   12b30:	00eb6733          	or	a4,s6,a4
   12b34:	20f05263          	blez	a5,12d38 <_vfprintf_r+0x1ad4>
   12b38:	1a071e63          	bnez	a4,12cf4 <_vfprintf_r+0x1a90>
   12b3c:	76c2                	ld	a3,48(sp)
   12b3e:	06600313          	li	t1,102
   12b42:	b7f1                	j	12b0e <_vfprintf_r+0x18aa>
   12b44:	68e5                	lui	a7,0x19
   12b46:	55c1                	li	a1,-16
   12b48:	40e00b3b          	negw	s6,a4
   12b4c:	d1888893          	addi	a7,a7,-744 # 18d18 <zeroes.0>
   12b50:	04b75263          	bge	a4,a1,12b94 <_vfprintf_r+0x1930>
   12b54:	f84e                	sd	s3,48(sp)
   12b56:	4cc1                	li	s9,16
   12b58:	449d                	li	s1,7
   12b5a:	89c6                	mv	s3,a7
   12b5c:	a021                	j	12b64 <_vfprintf_r+0x1900>
   12b5e:	3b41                	addiw	s6,s6,-16
   12b60:	036cd863          	bge	s9,s6,12b90 <_vfprintf_r+0x192c>
   12b64:	2685                	addiw	a3,a3,1
   12b66:	0641                	addi	a2,a2,16
   12b68:	01343023          	sd	s3,0(s0)
   12b6c:	01943423          	sd	s9,8(s0)
   12b70:	f9b2                	sd	a2,240(sp)
   12b72:	d5b6                	sw	a3,232(sp)
   12b74:	0441                	addi	s0,s0,16
   12b76:	fed4d4e3          	bge	s1,a3,12b5e <_vfprintf_r+0x18fa>
   12b7a:	6522                	ld	a0,8(sp)
   12b7c:	1190                	addi	a2,sp,224
   12b7e:	85ca                	mv	a1,s2
   12b80:	2ce000ef          	jal	12e4e <__sprint_r>
   12b84:	b4051963          	bnez	a0,11ed6 <_vfprintf_r+0xc72>
   12b88:	764e                	ld	a2,240(sp)
   12b8a:	56ae                	lw	a3,232(sp)
   12b8c:	8452                	mv	s0,s4
   12b8e:	bfc1                	j	12b5e <_vfprintf_r+0x18fa>
   12b90:	88ce                	mv	a7,s3
   12b92:	79c2                	ld	s3,48(sp)
   12b94:	2685                	addiw	a3,a3,1
   12b96:	965a                	add	a2,a2,s6
   12b98:	01143023          	sd	a7,0(s0)
   12b9c:	01643423          	sd	s6,8(s0)
   12ba0:	f9b2                	sd	a2,240(sp)
   12ba2:	d5b6                	sw	a3,232(sp)
   12ba4:	471d                	li	a4,7
   12ba6:	90d751e3          	bge	a4,a3,124a8 <_vfprintf_r+0x1244>
   12baa:	6522                	ld	a0,8(sp)
   12bac:	1190                	addi	a2,sp,224
   12bae:	85ca                	mv	a1,s2
   12bb0:	29e000ef          	jal	12e4e <__sprint_r>
   12bb4:	b2051163          	bnez	a0,11ed6 <_vfprintf_r+0xc72>
   12bb8:	764e                	ld	a2,240(sp)
   12bba:	56ae                	lw	a3,232(sp)
   12bbc:	8452                	mv	s0,s4
   12bbe:	b2e5                	j	125a6 <_vfprintf_r+0x1342>
   12bc0:	001b071b          	addiw	a4,s6,1
   12bc4:	4689                	li	a3,2
   12bc6:	b359                	j	1294c <_vfprintf_r+0x16e8>
   12bc8:	0c210693          	addi	a3,sp,194
   12bcc:	e619                	bnez	a2,12bda <_vfprintf_r+0x1976>
   12bce:	03000693          	li	a3,48
   12bd2:	0cd10123          	sb	a3,194(sp)
   12bd6:	0c310693          	addi	a3,sp,195
   12bda:	139c                	addi	a5,sp,480
   12bdc:	40f68633          	sub	a2,a3,a5
   12be0:	0307071b          	addiw	a4,a4,48
   12be4:	1216079b          	addiw	a5,a2,289
   12be8:	00e68023          	sb	a4,0(a3)
   12bec:	f8be                	sd	a5,112(sp)
   12bee:	cfffe06f          	j	118ec <_vfprintf_r+0x688>
   12bf2:	001df613          	andi	a2,s11,1
   12bf6:	e219                	bnez	a2,12bfc <_vfprintf_r+0x1998>
   12bf8:	d0ffe06f          	j	11906 <_vfprintf_r+0x6a2>
   12bfc:	d05fe06f          	j	11900 <_vfprintf_r+0x69c>
   12c00:	ec02                	sd	zero,24(sp)
   12c02:	4b19                	li	s6,6
   12c04:	aa3fe06f          	j	116a6 <_vfprintf_r+0x442>
   12c08:	f03a                	sd	a4,32(sp)
   12c0a:	aeaff06f          	j	11ef4 <_vfprintf_r+0xc90>
   12c0e:	c31c                	sw	a5,0(a4)
   12c10:	85aff06f          	j	11c6a <_vfprintf_r+0xa06>
   12c14:	000b0463          	beqz	s6,12c1c <_vfprintf_r+0x19b8>
   12c18:	a8ffe06f          	j	116a6 <_vfprintf_r+0x442>
   12c1c:	4b05                	li	s6,1
   12c1e:	a89fe06f          	j	116a6 <_vfprintf_r+0x442>
   12c22:	7542                	ld	a0,48(sp)
   12c24:	4601                	li	a2,0
   12c26:	4681                	li	a3,0
   12c28:	85e6                	mv	a1,s9
   12c2a:	e4c2                	sd	a6,72(sp)
   12c2c:	e09a                	sd	t1,64(sp)
   12c2e:	fc3a                	sd	a4,56(sp)
   12c30:	3d9040ef          	jal	17808 <__eqtf2>
   12c34:	7762                	ld	a4,56(sp)
   12c36:	6306                	ld	t1,64(sp)
   12c38:	6826                	ld	a6,72(sp)
   12c3a:	e57d                	bnez	a0,12d28 <_vfprintf_r+0x1ac4>
   12c3c:	57ea                	lw	a5,184(sp)
   12c3e:	983e                	add	a6,a6,a5
   12c40:	f83e                	sd	a5,48(sp)
   12c42:	41a807bb          	subw	a5,a6,s10
   12c46:	fc3e                	sd	a5,56(sp)
   12c48:	b359                	j	129ce <_vfprintf_r+0x176a>
   12c4a:	06700313          	li	t1,103
   12c4e:	678a                	ld	a5,128(sp)
   12c50:	0ff00613          	li	a2,255
   12c54:	0007c703          	lbu	a4,0(a5)
   12c58:	14c70463          	beq	a4,a2,12da0 <_vfprintf_r+0x1b3c>
   12c5c:	863e                	mv	a2,a5
   12c5e:	77c2                	ld	a5,48(sp)
   12c60:	4881                	li	a7,0
   12c62:	4801                	li	a6,0
   12c64:	0ff00593          	li	a1,255
   12c68:	0007051b          	sext.w	a0,a4
   12c6c:	00f75a63          	bge	a4,a5,12c80 <_vfprintf_r+0x1a1c>
   12c70:	00164703          	lbu	a4,1(a2)
   12c74:	9f89                	subw	a5,a5,a0
   12c76:	cb1d                	beqz	a4,12cac <_vfprintf_r+0x1a48>
   12c78:	2805                	addiw	a6,a6,1
   12c7a:	0605                	addi	a2,a2,1
   12c7c:	feb716e3          	bne	a4,a1,12c68 <_vfprintf_r+0x1a04>
   12c80:	e132                	sd	a2,128(sp)
   12c82:	e0c2                	sd	a6,64(sp)
   12c84:	e4c6                	sd	a7,72(sp)
   12c86:	f83e                	sd	a5,48(sp)
   12c88:	67a6                	ld	a5,72(sp)
   12c8a:	6706                	ld	a4,64(sp)
   12c8c:	8da6                	mv	s11,s1
   12c8e:	9f3d                	addw	a4,a4,a5
   12c90:	67aa                	ld	a5,136(sp)
   12c92:	02f7073b          	mulw	a4,a4,a5
   12c96:	9f35                	addw	a4,a4,a3
   12c98:	0007069b          	sext.w	a3,a4
   12c9c:	fff6c613          	not	a2,a3
   12ca0:	967d                	srai	a2,a2,0x3f
   12ca2:	8f71                	and	a4,a4,a2
   12ca4:	00070c1b          	sext.w	s8,a4
   12ca8:	c7ffe06f          	j	11926 <_vfprintf_r+0x6c2>
   12cac:	00064703          	lbu	a4,0(a2)
   12cb0:	2885                	addiw	a7,a7,1
   12cb2:	b7e9                	j	12c7c <_vfprintf_r+0x1a18>
   12cb4:	684a                	ld	a6,144(sp)
   12cb6:	8962                	mv	s2,s8
   12cb8:	8c4e                	mv	s8,s3
   12cba:	010d06bb          	addw	a3,s10,a6
   12cbe:	418686bb          	subw	a3,a3,s8
   12cc2:	02069613          	slli	a2,a3,0x20
   12cc6:	6306                	ld	t1,64(sp)
   12cc8:	6ba6                	ld	s7,72(sp)
   12cca:	7446                	ld	s0,112(sp)
   12ccc:	79e2                	ld	s3,56(sp)
   12cce:	00065463          	bgez	a2,12cd6 <_vfprintf_r+0x1a72>
   12cd2:	b6dfe06f          	j	1183e <_vfprintf_r+0x5da>
   12cd6:	2685                	addiw	a3,a3,1
   12cd8:	96e2                	add	a3,a3,s8
   12cda:	03000613          	li	a2,48
   12cde:	0c05                	addi	s8,s8,1
   12ce0:	fecc0fa3          	sb	a2,-1(s8)
   12ce4:	ff869de3          	bne	a3,s8,12cde <_vfprintf_r+0x1a7a>
   12ce8:	b59fe06f          	j	11840 <_vfprintf_r+0x5dc>
   12cec:	65e2                	ld	a1,24(sp)
   12cee:	894e                	mv	s2,s3
   12cf0:	9e8ff06f          	j	11ed8 <_vfprintf_r+0xc74>
   12cf4:	6746                	ld	a4,80(sp)
   12cf6:	06600313          	li	t1,102
   12cfa:	016706bb          	addw	a3,a4,s6
   12cfe:	9ebd                	addw	a3,a3,a5
   12d00:	b539                	j	12b0e <_vfprintf_r+0x18aa>
   12d02:	40f6873b          	subw	a4,a3,a5
   12d06:	2705                	addiw	a4,a4,1
   12d08:	0007069b          	sext.w	a3,a4
   12d0c:	fff6c613          	not	a2,a3
   12d10:	967d                	srai	a2,a2,0x3f
   12d12:	8f71                	and	a4,a4,a2
   12d14:	00070c1b          	sext.w	s8,a4
   12d18:	8da6                	mv	s11,s1
   12d1a:	b309                	j	12a1c <_vfprintf_r+0x17b8>
   12d1c:	6765                	lui	a4,0x19
   12d1e:	a4070793          	addi	a5,a4,-1472 # 18a40 <__clzdi2+0x6a>
   12d22:	f83e                	sd	a5,48(sp)
   12d24:	a1bfe06f          	j	1173e <_vfprintf_r+0x4da>
   12d28:	4685                	li	a3,1
   12d2a:	9e99                	subw	a3,a3,a4
   12d2c:	dd36                	sw	a3,184(sp)
   12d2e:	b9a9                	j	12988 <_vfprintf_r+0x1724>
   12d30:	07000693          	li	a3,112
   12d34:	b39fe06f          	j	1186c <_vfprintf_r+0x608>
   12d38:	e719                	bnez	a4,12d46 <_vfprintf_r+0x1ae2>
   12d3a:	8da6                	mv	s11,s1
   12d3c:	4c05                	li	s8,1
   12d3e:	06600313          	li	t1,102
   12d42:	4685                	li	a3,1
   12d44:	b9e1                	j	12a1c <_vfprintf_r+0x17b8>
   12d46:	67c6                	ld	a5,80(sp)
   12d48:	8da6                	mv	s11,s1
   12d4a:	06600313          	li	t1,102
   12d4e:	0017871b          	addiw	a4,a5,1
   12d52:	0167073b          	addw	a4,a4,s6
   12d56:	0007069b          	sext.w	a3,a4
   12d5a:	fff6c613          	not	a2,a3
   12d5e:	967d                	srai	a2,a2,0x3f
   12d60:	8f71                	and	a4,a4,a2
   12d62:	00070c1b          	sext.w	s8,a4
   12d66:	b95d                	j	12a1c <_vfprintf_r+0x17b8>
   12d68:	4789                	li	a5,2
   12d6a:	f8be                	sd	a5,112(sp)
   12d6c:	b81fe06f          	j	118ec <_vfprintf_r+0x688>
   12d70:	7682                	ld	a3,32(sp)
   12d72:	429c                	lw	a5,0(a3)
   12d74:	06a1                	addi	a3,a3,8
   12d76:	00078b1b          	sext.w	s6,a5
   12d7a:	0007d363          	bgez	a5,12d80 <_vfprintf_r+0x1b1c>
   12d7e:	5b7d                	li	s6,-1
   12d80:	0019c303          	lbu	t1,1(s3)
   12d84:	f036                	sd	a3,32(sp)
   12d86:	89ba                	mv	s3,a4
   12d88:	e0cfe06f          	j	11394 <_vfprintf_r+0x130>
   12d8c:	875a                	mv	a4,s6
   12d8e:	bef1                	j	1296a <_vfprintf_r+0x1706>
   12d90:	01095783          	lhu	a5,16(s2)
   12d94:	0407e793          	ori	a5,a5,64
   12d98:	00f91823          	sh	a5,16(s2)
   12d9c:	f44fe06f          	j	114e0 <_vfprintf_r+0x27c>
   12da0:	e482                	sd	zero,72(sp)
   12da2:	e082                	sd	zero,64(sp)
   12da4:	b5d5                	j	12c88 <_vfprintf_r+0x1a24>

0000000000012da6 <vfprintf>:
   12da6:	87aa                	mv	a5,a0
   12da8:	2201b503          	ld	a0,544(gp) # 1adc8 <_impure_ptr>
   12dac:	86b2                	mv	a3,a2
   12dae:	862e                	mv	a2,a1
   12db0:	85be                	mv	a1,a5
   12db2:	cb2fe06f          	j	11264 <_vfprintf_r>

0000000000012db6 <__sbprintf>:
   12db6:	b3010113          	addi	sp,sp,-1232
   12dba:	0125d703          	lhu	a4,18(a1)
   12dbe:	0105d783          	lhu	a5,16(a1)
   12dc2:	4c813023          	sd	s0,1216(sp)
   12dc6:	842e                	mv	s0,a1
   12dc8:	65c1                	lui	a1,0x10
   12dca:	35f5                	addiw	a1,a1,-3 # fffd <exit-0xeb>
   12dcc:	0ac42e03          	lw	t3,172(s0)
   12dd0:	03043303          	ld	t1,48(s0)
   12dd4:	04043883          	ld	a7,64(s0)
   12dd8:	0107171b          	slliw	a4,a4,0x10
   12ddc:	8fed                	and	a5,a5,a1
   12dde:	8fd9                	or	a5,a5,a4
   12de0:	40000813          	li	a6,1024
   12de4:	c83e                	sw	a5,16(sp)
   12de6:	858a                	mv	a1,sp
   12de8:	191c                	addi	a5,sp,176
   12dea:	4a913c23          	sd	s1,1208(sp)
   12dee:	4b213823          	sd	s2,1200(sp)
   12df2:	4c113423          	sd	ra,1224(sp)
   12df6:	892a                	mv	s2,a0
   12df8:	d772                	sw	t3,172(sp)
   12dfa:	f81a                	sd	t1,48(sp)
   12dfc:	e0c6                	sd	a7,64(sp)
   12dfe:	e03e                	sd	a5,0(sp)
   12e00:	ec3e                	sd	a5,24(sp)
   12e02:	c642                	sw	a6,12(sp)
   12e04:	d042                	sw	a6,32(sp)
   12e06:	d402                	sw	zero,40(sp)
   12e08:	c5cfe0ef          	jal	11264 <_vfprintf_r>
   12e0c:	84aa                	mv	s1,a0
   12e0e:	02055963          	bgez	a0,12e40 <__sbprintf+0x8a>
   12e12:	01015783          	lhu	a5,16(sp)
   12e16:	0407f793          	andi	a5,a5,64
   12e1a:	c799                	beqz	a5,12e28 <__sbprintf+0x72>
   12e1c:	01045783          	lhu	a5,16(s0)
   12e20:	0407e793          	ori	a5,a5,64
   12e24:	00f41823          	sh	a5,16(s0)
   12e28:	4c813083          	ld	ra,1224(sp)
   12e2c:	4c013403          	ld	s0,1216(sp)
   12e30:	4b013903          	ld	s2,1200(sp)
   12e34:	8526                	mv	a0,s1
   12e36:	4b813483          	ld	s1,1208(sp)
   12e3a:	4d010113          	addi	sp,sp,1232
   12e3e:	8082                	ret
   12e40:	858a                	mv	a1,sp
   12e42:	854a                	mv	a0,s2
   12e44:	280000ef          	jal	130c4 <_fflush_r>
   12e48:	d569                	beqz	a0,12e12 <__sbprintf+0x5c>
   12e4a:	54fd                	li	s1,-1
   12e4c:	b7d9                	j	12e12 <__sbprintf+0x5c>

0000000000012e4e <__sprint_r>:
   12e4e:	6a1c                	ld	a5,16(a2)
   12e50:	1141                	addi	sp,sp,-16
   12e52:	e022                	sd	s0,0(sp)
   12e54:	e406                	sd	ra,8(sp)
   12e56:	8432                	mv	s0,a2
   12e58:	eb81                	bnez	a5,12e68 <__sprint_r+0x1a>
   12e5a:	60a2                	ld	ra,8(sp)
   12e5c:	00042423          	sw	zero,8(s0)
   12e60:	6402                	ld	s0,0(sp)
   12e62:	4501                	li	a0,0
   12e64:	0141                	addi	sp,sp,16
   12e66:	8082                	ret
   12e68:	2e2000ef          	jal	1314a <__sfvwrite_r>
   12e6c:	60a2                	ld	ra,8(sp)
   12e6e:	00043823          	sd	zero,16(s0)
   12e72:	00042423          	sw	zero,8(s0)
   12e76:	6402                	ld	s0,0(sp)
   12e78:	0141                	addi	sp,sp,16
   12e7a:	8082                	ret

0000000000012e7c <_fclose_r>:
   12e7c:	1101                	addi	sp,sp,-32
   12e7e:	ec06                	sd	ra,24(sp)
   12e80:	e04a                	sd	s2,0(sp)
   12e82:	cd89                	beqz	a1,12e9c <_fclose_r+0x20>
   12e84:	e822                	sd	s0,16(sp)
   12e86:	e426                	sd	s1,8(sp)
   12e88:	842e                	mv	s0,a1
   12e8a:	84aa                	mv	s1,a0
   12e8c:	c119                	beqz	a0,12e92 <_fclose_r+0x16>
   12e8e:	653c                	ld	a5,72(a0)
   12e90:	c7d9                	beqz	a5,12f1e <_fclose_r+0xa2>
   12e92:	01041783          	lh	a5,16(s0)
   12e96:	eb89                	bnez	a5,12ea8 <_fclose_r+0x2c>
   12e98:	6442                	ld	s0,16(sp)
   12e9a:	64a2                	ld	s1,8(sp)
   12e9c:	60e2                	ld	ra,24(sp)
   12e9e:	4901                	li	s2,0
   12ea0:	854a                	mv	a0,s2
   12ea2:	6902                	ld	s2,0(sp)
   12ea4:	6105                	addi	sp,sp,32
   12ea6:	8082                	ret
   12ea8:	85a2                	mv	a1,s0
   12eaa:	8526                	mv	a0,s1
   12eac:	080000ef          	jal	12f2c <__sflush_r>
   12eb0:	683c                	ld	a5,80(s0)
   12eb2:	892a                	mv	s2,a0
   12eb4:	c791                	beqz	a5,12ec0 <_fclose_r+0x44>
   12eb6:	780c                	ld	a1,48(s0)
   12eb8:	8526                	mv	a0,s1
   12eba:	9782                	jalr	a5
   12ebc:	04054663          	bltz	a0,12f08 <_fclose_r+0x8c>
   12ec0:	01045783          	lhu	a5,16(s0)
   12ec4:	0807f793          	andi	a5,a5,128
   12ec8:	e7b1                	bnez	a5,12f14 <_fclose_r+0x98>
   12eca:	6c2c                	ld	a1,88(s0)
   12ecc:	c991                	beqz	a1,12ee0 <_fclose_r+0x64>
   12ece:	07440793          	addi	a5,s0,116
   12ed2:	00f58563          	beq	a1,a5,12edc <_fclose_r+0x60>
   12ed6:	8526                	mv	a0,s1
   12ed8:	b43fd0ef          	jal	10a1a <_free_r>
   12edc:	04043c23          	sd	zero,88(s0)
   12ee0:	7c2c                	ld	a1,120(s0)
   12ee2:	c591                	beqz	a1,12eee <_fclose_r+0x72>
   12ee4:	8526                	mv	a0,s1
   12ee6:	b35fd0ef          	jal	10a1a <_free_r>
   12eea:	06043c23          	sd	zero,120(s0)
   12eee:	d22fd0ef          	jal	10410 <__sfp_lock_acquire>
   12ef2:	00041823          	sh	zero,16(s0)
   12ef6:	d1cfd0ef          	jal	10412 <__sfp_lock_release>
   12efa:	60e2                	ld	ra,24(sp)
   12efc:	6442                	ld	s0,16(sp)
   12efe:	64a2                	ld	s1,8(sp)
   12f00:	854a                	mv	a0,s2
   12f02:	6902                	ld	s2,0(sp)
   12f04:	6105                	addi	sp,sp,32
   12f06:	8082                	ret
   12f08:	01045783          	lhu	a5,16(s0)
   12f0c:	597d                	li	s2,-1
   12f0e:	0807f793          	andi	a5,a5,128
   12f12:	dfc5                	beqz	a5,12eca <_fclose_r+0x4e>
   12f14:	6c0c                	ld	a1,24(s0)
   12f16:	8526                	mv	a0,s1
   12f18:	b03fd0ef          	jal	10a1a <_free_r>
   12f1c:	b77d                	j	12eca <_fclose_r+0x4e>
   12f1e:	cdcfd0ef          	jal	103fa <__sinit>
   12f22:	bf85                	j	12e92 <_fclose_r+0x16>

0000000000012f24 <fclose>:
   12f24:	85aa                	mv	a1,a0
   12f26:	2201b503          	ld	a0,544(gp) # 1adc8 <_impure_ptr>
   12f2a:	bf89                	j	12e7c <_fclose_r>

0000000000012f2c <__sflush_r>:
   12f2c:	01059703          	lh	a4,16(a1)
   12f30:	7179                	addi	sp,sp,-48
   12f32:	f022                	sd	s0,32(sp)
   12f34:	e44e                	sd	s3,8(sp)
   12f36:	f406                	sd	ra,40(sp)
   12f38:	00877793          	andi	a5,a4,8
   12f3c:	842e                	mv	s0,a1
   12f3e:	89aa                	mv	s3,a0
   12f40:	e7f1                	bnez	a5,1300c <__sflush_r+0xe0>
   12f42:	6785                	lui	a5,0x1
   12f44:	80078793          	addi	a5,a5,-2048 # 800 <exit-0xf8e8>
   12f48:	4594                	lw	a3,8(a1)
   12f4a:	8fd9                	or	a5,a5,a4
   12f4c:	00f59823          	sh	a5,16(a1)
   12f50:	10d05763          	blez	a3,1305e <__sflush_r+0x132>
   12f54:	04843803          	ld	a6,72(s0)
   12f58:	0a080463          	beqz	a6,13000 <__sflush_r+0xd4>
   12f5c:	ec26                	sd	s1,24(sp)
   12f5e:	03371693          	slli	a3,a4,0x33
   12f62:	0009a483          	lw	s1,0(s3)
   12f66:	0009a023          	sw	zero,0(s3)
   12f6a:	780c                	ld	a1,48(s0)
   12f6c:	1006c063          	bltz	a3,1306c <__sflush_r+0x140>
   12f70:	4601                	li	a2,0
   12f72:	4685                	li	a3,1
   12f74:	854e                	mv	a0,s3
   12f76:	9802                	jalr	a6
   12f78:	57fd                	li	a5,-1
   12f7a:	862a                	mv	a2,a0
   12f7c:	12f50163          	beq	a0,a5,1309e <__sflush_r+0x172>
   12f80:	01041783          	lh	a5,16(s0)
   12f84:	04843803          	ld	a6,72(s0)
   12f88:	780c                	ld	a1,48(s0)
   12f8a:	8b91                	andi	a5,a5,4
   12f8c:	c799                	beqz	a5,12f9a <__sflush_r+0x6e>
   12f8e:	4418                	lw	a4,8(s0)
   12f90:	6c3c                	ld	a5,88(s0)
   12f92:	8e19                	sub	a2,a2,a4
   12f94:	c399                	beqz	a5,12f9a <__sflush_r+0x6e>
   12f96:	583c                	lw	a5,112(s0)
   12f98:	8e1d                	sub	a2,a2,a5
   12f9a:	4681                	li	a3,0
   12f9c:	854e                	mv	a0,s3
   12f9e:	9802                	jalr	a6
   12fa0:	57fd                	li	a5,-1
   12fa2:	0cf51763          	bne	a0,a5,13070 <__sflush_r+0x144>
   12fa6:	0009a683          	lw	a3,0(s3)
   12faa:	47f5                	li	a5,29
   12fac:	01041703          	lh	a4,16(s0)
   12fb0:	0006861b          	sext.w	a2,a3
   12fb4:	10d7e163          	bltu	a5,a3,130b6 <__sflush_r+0x18a>
   12fb8:	204007b7          	lui	a5,0x20400
   12fbc:	0785                	addi	a5,a5,1 # 20400001 <__BSS_END__+0x203e4c59>
   12fbe:	00c7d7b3          	srl	a5,a5,a2
   12fc2:	8b85                	andi	a5,a5,1
   12fc4:	cbed                	beqz	a5,130b6 <__sflush_r+0x18a>
   12fc6:	6c10                	ld	a2,24(s0)
   12fc8:	77fd                	lui	a5,0xfffff
   12fca:	7ff78793          	addi	a5,a5,2047 # fffffffffffff7ff <__BSS_END__+0xfffffffffffe4457>
   12fce:	8ff9                	and	a5,a5,a4
   12fd0:	00f41823          	sh	a5,16(s0)
   12fd4:	00042423          	sw	zero,8(s0)
   12fd8:	e010                	sd	a2,0(s0)
   12fda:	03371793          	slli	a5,a4,0x33
   12fde:	0007d363          	bgez	a5,12fe4 <__sflush_r+0xb8>
   12fe2:	c6dd                	beqz	a3,13090 <__sflush_r+0x164>
   12fe4:	6c2c                	ld	a1,88(s0)
   12fe6:	0099a023          	sw	s1,0(s3)
   12fea:	c9c5                	beqz	a1,1309a <__sflush_r+0x16e>
   12fec:	07440793          	addi	a5,s0,116
   12ff0:	00f58563          	beq	a1,a5,12ffa <__sflush_r+0xce>
   12ff4:	854e                	mv	a0,s3
   12ff6:	a25fd0ef          	jal	10a1a <_free_r>
   12ffa:	64e2                	ld	s1,24(sp)
   12ffc:	04043c23          	sd	zero,88(s0)
   13000:	4501                	li	a0,0
   13002:	70a2                	ld	ra,40(sp)
   13004:	7402                	ld	s0,32(sp)
   13006:	69a2                	ld	s3,8(sp)
   13008:	6145                	addi	sp,sp,48
   1300a:	8082                	ret
   1300c:	e84a                	sd	s2,16(sp)
   1300e:	0185b903          	ld	s2,24(a1)
   13012:	04090b63          	beqz	s2,13068 <__sflush_r+0x13c>
   13016:	ec26                	sd	s1,24(sp)
   13018:	6184                	ld	s1,0(a1)
   1301a:	8b0d                	andi	a4,a4,3
   1301c:	0125b023          	sd	s2,0(a1)
   13020:	412484bb          	subw	s1,s1,s2
   13024:	4781                	li	a5,0
   13026:	e311                	bnez	a4,1302a <__sflush_r+0xfe>
   13028:	519c                	lw	a5,32(a1)
   1302a:	c45c                	sw	a5,12(s0)
   1302c:	00904663          	bgtz	s1,13038 <__sflush_r+0x10c>
   13030:	a81d                	j	13066 <__sflush_r+0x13a>
   13032:	992a                	add	s2,s2,a0
   13034:	02905963          	blez	s1,13066 <__sflush_r+0x13a>
   13038:	603c                	ld	a5,64(s0)
   1303a:	780c                	ld	a1,48(s0)
   1303c:	86a6                	mv	a3,s1
   1303e:	864a                	mv	a2,s2
   13040:	854e                	mv	a0,s3
   13042:	9782                	jalr	a5
   13044:	9c89                	subw	s1,s1,a0
   13046:	fea046e3          	bgtz	a0,13032 <__sflush_r+0x106>
   1304a:	01041703          	lh	a4,16(s0)
   1304e:	6942                	ld	s2,16(sp)
   13050:	04076713          	ori	a4,a4,64
   13054:	64e2                	ld	s1,24(sp)
   13056:	00e41823          	sh	a4,16(s0)
   1305a:	557d                	li	a0,-1
   1305c:	b75d                	j	13002 <__sflush_r+0xd6>
   1305e:	59b4                	lw	a3,112(a1)
   13060:	eed04ae3          	bgtz	a3,12f54 <__sflush_r+0x28>
   13064:	bf71                	j	13000 <__sflush_r+0xd4>
   13066:	64e2                	ld	s1,24(sp)
   13068:	6942                	ld	s2,16(sp)
   1306a:	bf59                	j	13000 <__sflush_r+0xd4>
   1306c:	6850                	ld	a2,144(s0)
   1306e:	bf31                	j	12f8a <__sflush_r+0x5e>
   13070:	01041703          	lh	a4,16(s0)
   13074:	6c14                	ld	a3,24(s0)
   13076:	77fd                	lui	a5,0xfffff
   13078:	7ff78793          	addi	a5,a5,2047 # fffffffffffff7ff <__BSS_END__+0xfffffffffffe4457>
   1307c:	8ff9                	and	a5,a5,a4
   1307e:	00f41823          	sh	a5,16(s0)
   13082:	00042423          	sw	zero,8(s0)
   13086:	e014                	sd	a3,0(s0)
   13088:	03371793          	slli	a5,a4,0x33
   1308c:	f407dce3          	bgez	a5,12fe4 <__sflush_r+0xb8>
   13090:	6c2c                	ld	a1,88(s0)
   13092:	e848                	sd	a0,144(s0)
   13094:	0099a023          	sw	s1,0(s3)
   13098:	f9b1                	bnez	a1,12fec <__sflush_r+0xc0>
   1309a:	64e2                	ld	s1,24(sp)
   1309c:	b795                	j	13000 <__sflush_r+0xd4>
   1309e:	0009a783          	lw	a5,0(s3)
   130a2:	ec078fe3          	beqz	a5,12f80 <__sflush_r+0x54>
   130a6:	4775                	li	a4,29
   130a8:	00e78a63          	beq	a5,a4,130bc <__sflush_r+0x190>
   130ac:	4759                	li	a4,22
   130ae:	00e78763          	beq	a5,a4,130bc <__sflush_r+0x190>
   130b2:	01041703          	lh	a4,16(s0)
   130b6:	04076713          	ori	a4,a4,64
   130ba:	bf69                	j	13054 <__sflush_r+0x128>
   130bc:	0099a023          	sw	s1,0(s3)
   130c0:	64e2                	ld	s1,24(sp)
   130c2:	bf3d                	j	13000 <__sflush_r+0xd4>

00000000000130c4 <_fflush_r>:
   130c4:	1101                	addi	sp,sp,-32
   130c6:	e822                	sd	s0,16(sp)
   130c8:	ec06                	sd	ra,24(sp)
   130ca:	842a                	mv	s0,a0
   130cc:	c119                	beqz	a0,130d2 <_fflush_r+0xe>
   130ce:	653c                	ld	a5,72(a0)
   130d0:	cf91                	beqz	a5,130ec <_fflush_r+0x28>
   130d2:	01059783          	lh	a5,16(a1)
   130d6:	e791                	bnez	a5,130e2 <_fflush_r+0x1e>
   130d8:	60e2                	ld	ra,24(sp)
   130da:	6442                	ld	s0,16(sp)
   130dc:	4501                	li	a0,0
   130de:	6105                	addi	sp,sp,32
   130e0:	8082                	ret
   130e2:	8522                	mv	a0,s0
   130e4:	6442                	ld	s0,16(sp)
   130e6:	60e2                	ld	ra,24(sp)
   130e8:	6105                	addi	sp,sp,32
   130ea:	b589                	j	12f2c <__sflush_r>
   130ec:	e42e                	sd	a1,8(sp)
   130ee:	b0cfd0ef          	jal	103fa <__sinit>
   130f2:	65a2                	ld	a1,8(sp)
   130f4:	bff9                	j	130d2 <_fflush_r+0xe>

00000000000130f6 <fflush>:
   130f6:	cd05                	beqz	a0,1312e <fflush+0x38>
   130f8:	85aa                	mv	a1,a0
   130fa:	2201b503          	ld	a0,544(gp) # 1adc8 <_impure_ptr>
   130fe:	c119                	beqz	a0,13104 <fflush+0xe>
   13100:	653c                	ld	a5,72(a0)
   13102:	c799                	beqz	a5,13110 <fflush+0x1a>
   13104:	01059783          	lh	a5,16(a1)
   13108:	e399                	bnez	a5,1310e <fflush+0x18>
   1310a:	4501                	li	a0,0
   1310c:	8082                	ret
   1310e:	bd39                	j	12f2c <__sflush_r>
   13110:	1101                	addi	sp,sp,-32
   13112:	e42e                	sd	a1,8(sp)
   13114:	e02a                	sd	a0,0(sp)
   13116:	ec06                	sd	ra,24(sp)
   13118:	ae2fd0ef          	jal	103fa <__sinit>
   1311c:	65a2                	ld	a1,8(sp)
   1311e:	6502                	ld	a0,0(sp)
   13120:	01059783          	lh	a5,16(a1)
   13124:	e385                	bnez	a5,13144 <fflush+0x4e>
   13126:	60e2                	ld	ra,24(sp)
   13128:	4501                	li	a0,0
   1312a:	6105                	addi	sp,sp,32
   1312c:	8082                	ret
   1312e:	6669                	lui	a2,0x1a
   13130:	65cd                	lui	a1,0x13
   13132:	6569                	lui	a0,0x1a
   13134:	22860613          	addi	a2,a2,552 # 1a228 <__sglue>
   13138:	0c458593          	addi	a1,a1,196 # 130c4 <_fflush_r>
   1313c:	24050513          	addi	a0,a0,576 # 1a240 <_impure_data>
   13140:	af4fd06f          	j	10434 <_fwalk_sglue>
   13144:	60e2                	ld	ra,24(sp)
   13146:	6105                	addi	sp,sp,32
   13148:	b3d5                	j	12f2c <__sflush_r>

000000000001314a <__sfvwrite_r>:
   1314a:	6a1c                	ld	a5,16(a2)
   1314c:	1c078b63          	beqz	a5,13322 <__sfvwrite_r+0x1d8>
   13150:	01059703          	lh	a4,16(a1)
   13154:	711d                	addi	sp,sp,-96
   13156:	e8a2                	sd	s0,80(sp)
   13158:	f456                	sd	s5,40(sp)
   1315a:	ec5e                	sd	s7,24(sp)
   1315c:	ec86                	sd	ra,88(sp)
   1315e:	00877793          	andi	a5,a4,8
   13162:	8bb2                	mv	s7,a2
   13164:	8aaa                	mv	s5,a0
   13166:	842e                	mv	s0,a1
   13168:	c7b5                	beqz	a5,131d4 <__sfvwrite_r+0x8a>
   1316a:	6d9c                	ld	a5,24(a1)
   1316c:	c7a5                	beqz	a5,131d4 <__sfvwrite_r+0x8a>
   1316e:	e4a6                	sd	s1,72(sp)
   13170:	e0ca                	sd	s2,64(sp)
   13172:	fc4e                	sd	s3,56(sp)
   13174:	f852                	sd	s4,48(sp)
   13176:	00277793          	andi	a5,a4,2
   1317a:	000bb483          	ld	s1,0(s7)
   1317e:	cfa5                	beqz	a5,131f6 <__sfvwrite_r+0xac>
   13180:	603c                	ld	a5,64(s0)
   13182:	780c                	ld	a1,48(s0)
   13184:	80000a37          	lui	s4,0x80000
   13188:	4981                	li	s3,0
   1318a:	4901                	li	s2,0
   1318c:	c00a4a13          	xori	s4,s4,-1024
   13190:	864e                	mv	a2,s3
   13192:	8556                	mv	a0,s5
   13194:	02090a63          	beqz	s2,131c8 <__sfvwrite_r+0x7e>
   13198:	86ca                	mv	a3,s2
   1319a:	012a7363          	bgeu	s4,s2,131a0 <__sfvwrite_r+0x56>
   1319e:	86d2                	mv	a3,s4
   131a0:	2681                	sext.w	a3,a3
   131a2:	9782                	jalr	a5
   131a4:	2ea05863          	blez	a0,13494 <__sfvwrite_r+0x34a>
   131a8:	010bb783          	ld	a5,16(s7)
   131ac:	99aa                	add	s3,s3,a0
   131ae:	40a90933          	sub	s2,s2,a0
   131b2:	8f89                	sub	a5,a5,a0
   131b4:	00fbb823          	sd	a5,16(s7)
   131b8:	12078163          	beqz	a5,132da <__sfvwrite_r+0x190>
   131bc:	603c                	ld	a5,64(s0)
   131be:	780c                	ld	a1,48(s0)
   131c0:	864e                	mv	a2,s3
   131c2:	8556                	mv	a0,s5
   131c4:	fc091ae3          	bnez	s2,13198 <__sfvwrite_r+0x4e>
   131c8:	0004b983          	ld	s3,0(s1)
   131cc:	0084b903          	ld	s2,8(s1)
   131d0:	04c1                	addi	s1,s1,16
   131d2:	bf7d                	j	13190 <__sfvwrite_r+0x46>
   131d4:	85a2                	mv	a1,s0
   131d6:	8556                	mv	a0,s5
   131d8:	2d4000ef          	jal	134ac <__swsetup_r>
   131dc:	12051c63          	bnez	a0,13314 <__sfvwrite_r+0x1ca>
   131e0:	01041703          	lh	a4,16(s0)
   131e4:	e4a6                	sd	s1,72(sp)
   131e6:	e0ca                	sd	s2,64(sp)
   131e8:	fc4e                	sd	s3,56(sp)
   131ea:	f852                	sd	s4,48(sp)
   131ec:	00277793          	andi	a5,a4,2
   131f0:	000bb483          	ld	s1,0(s7)
   131f4:	f7d1                	bnez	a5,13180 <__sfvwrite_r+0x36>
   131f6:	f05a                	sd	s6,32(sp)
   131f8:	e862                	sd	s8,16(sp)
   131fa:	e466                	sd	s9,8(sp)
   131fc:	00177793          	andi	a5,a4,1
   13200:	ebad                	bnez	a5,13272 <__sfvwrite_r+0x128>
   13202:	00c42a03          	lw	s4,12(s0)
   13206:	601c                	ld	a5,0(s0)
   13208:	80000b37          	lui	s6,0x80000
   1320c:	4c01                	li	s8,0
   1320e:	4901                	li	s2,0
   13210:	fffb4b13          	not	s6,s6
   13214:	853e                	mv	a0,a5
   13216:	04090863          	beqz	s2,13266 <__sfvwrite_r+0x11c>
   1321a:	20077693          	andi	a3,a4,512
   1321e:	14068663          	beqz	a3,1336a <__sfvwrite_r+0x220>
   13222:	1b497563          	bgeu	s2,s4,133cc <__sfvwrite_r+0x282>
   13226:	8cca                	mv	s9,s2
   13228:	8a4a                	mv	s4,s2
   1322a:	8652                	mv	a2,s4
   1322c:	85e2                	mv	a1,s8
   1322e:	516000ef          	jal	13744 <memmove>
   13232:	4458                	lw	a4,12(s0)
   13234:	601c                	ld	a5,0(s0)
   13236:	89ca                	mv	s3,s2
   13238:	4197073b          	subw	a4,a4,s9
   1323c:	9a3e                	add	s4,s4,a5
   1323e:	c458                	sw	a4,12(s0)
   13240:	01443023          	sd	s4,0(s0)
   13244:	4901                	li	s2,0
   13246:	010bb783          	ld	a5,16(s7)
   1324a:	9c4e                	add	s8,s8,s3
   1324c:	413787b3          	sub	a5,a5,s3
   13250:	00fbb823          	sd	a5,16(s7)
   13254:	c3c1                	beqz	a5,132d4 <__sfvwrite_r+0x18a>
   13256:	601c                	ld	a5,0(s0)
   13258:	01041703          	lh	a4,16(s0)
   1325c:	00c42a03          	lw	s4,12(s0)
   13260:	853e                	mv	a0,a5
   13262:	fa091ce3          	bnez	s2,1321a <__sfvwrite_r+0xd0>
   13266:	0004bc03          	ld	s8,0(s1)
   1326a:	0084b903          	ld	s2,8(s1)
   1326e:	04c1                	addi	s1,s1,16
   13270:	b755                	j	13214 <__sfvwrite_r+0xca>
   13272:	4b01                	li	s6,0
   13274:	4501                	li	a0,0
   13276:	4c81                	li	s9,0
   13278:	4c01                	li	s8,0
   1327a:	0a0c0663          	beqz	s8,13326 <__sfvwrite_r+0x1dc>
   1327e:	cd45                	beqz	a0,13336 <__sfvwrite_r+0x1ec>
   13280:	8a5a                	mv	s4,s6
   13282:	016c7363          	bgeu	s8,s6,13288 <__sfvwrite_r+0x13e>
   13286:	8a62                	mv	s4,s8
   13288:	6008                	ld	a0,0(s0)
   1328a:	6c18                	ld	a4,24(s0)
   1328c:	445c                	lw	a5,12(s0)
   1328e:	5014                	lw	a3,32(s0)
   13290:	8952                	mv	s2,s4
   13292:	00a77663          	bgeu	a4,a0,1329e <__sfvwrite_r+0x154>
   13296:	00d789bb          	addw	s3,a5,a3
   1329a:	0b49c963          	blt	s3,s4,1334c <__sfvwrite_r+0x202>
   1329e:	1ada4363          	blt	s4,a3,13444 <__sfvwrite_r+0x2fa>
   132a2:	603c                	ld	a5,64(s0)
   132a4:	780c                	ld	a1,48(s0)
   132a6:	8666                	mv	a2,s9
   132a8:	8556                	mv	a0,s5
   132aa:	9782                	jalr	a5
   132ac:	892a                	mv	s2,a0
   132ae:	04a05663          	blez	a0,132fa <__sfvwrite_r+0x1b0>
   132b2:	0005079b          	sext.w	a5,a0
   132b6:	40fb0b3b          	subw	s6,s6,a5
   132ba:	4505                	li	a0,1
   132bc:	020b0a63          	beqz	s6,132f0 <__sfvwrite_r+0x1a6>
   132c0:	010bb783          	ld	a5,16(s7)
   132c4:	9cca                	add	s9,s9,s2
   132c6:	412c0c33          	sub	s8,s8,s2
   132ca:	412787b3          	sub	a5,a5,s2
   132ce:	00fbb823          	sd	a5,16(s7)
   132d2:	f7c5                	bnez	a5,1327a <__sfvwrite_r+0x130>
   132d4:	7b02                	ld	s6,32(sp)
   132d6:	6c42                	ld	s8,16(sp)
   132d8:	6ca2                	ld	s9,8(sp)
   132da:	60e6                	ld	ra,88(sp)
   132dc:	6446                	ld	s0,80(sp)
   132de:	64a6                	ld	s1,72(sp)
   132e0:	6906                	ld	s2,64(sp)
   132e2:	79e2                	ld	s3,56(sp)
   132e4:	7a42                	ld	s4,48(sp)
   132e6:	7aa2                	ld	s5,40(sp)
   132e8:	6be2                	ld	s7,24(sp)
   132ea:	4501                	li	a0,0
   132ec:	6125                	addi	sp,sp,96
   132ee:	8082                	ret
   132f0:	85a2                	mv	a1,s0
   132f2:	8556                	mv	a0,s5
   132f4:	dd1ff0ef          	jal	130c4 <_fflush_r>
   132f8:	d561                	beqz	a0,132c0 <__sfvwrite_r+0x176>
   132fa:	01041783          	lh	a5,16(s0)
   132fe:	7b02                	ld	s6,32(sp)
   13300:	6c42                	ld	s8,16(sp)
   13302:	6ca2                	ld	s9,8(sp)
   13304:	64a6                	ld	s1,72(sp)
   13306:	6906                	ld	s2,64(sp)
   13308:	79e2                	ld	s3,56(sp)
   1330a:	7a42                	ld	s4,48(sp)
   1330c:	0407e793          	ori	a5,a5,64
   13310:	00f41823          	sh	a5,16(s0)
   13314:	60e6                	ld	ra,88(sp)
   13316:	6446                	ld	s0,80(sp)
   13318:	7aa2                	ld	s5,40(sp)
   1331a:	6be2                	ld	s7,24(sp)
   1331c:	557d                	li	a0,-1
   1331e:	6125                	addi	sp,sp,96
   13320:	8082                	ret
   13322:	4501                	li	a0,0
   13324:	8082                	ret
   13326:	0084bc03          	ld	s8,8(s1)
   1332a:	87a6                	mv	a5,s1
   1332c:	04c1                	addi	s1,s1,16
   1332e:	fe0c0ce3          	beqz	s8,13326 <__sfvwrite_r+0x1dc>
   13332:	0007bc83          	ld	s9,0(a5)
   13336:	8662                	mv	a2,s8
   13338:	45a9                	li	a1,10
   1333a:	8566                	mv	a0,s9
   1333c:	24a000ef          	jal	13586 <memchr>
   13340:	14050763          	beqz	a0,1348e <__sfvwrite_r+0x344>
   13344:	0505                	addi	a0,a0,1
   13346:	41950b3b          	subw	s6,a0,s9
   1334a:	bf1d                	j	13280 <__sfvwrite_r+0x136>
   1334c:	85e6                	mv	a1,s9
   1334e:	864e                	mv	a2,s3
   13350:	3f4000ef          	jal	13744 <memmove>
   13354:	601c                	ld	a5,0(s0)
   13356:	85a2                	mv	a1,s0
   13358:	8556                	mv	a0,s5
   1335a:	97ce                	add	a5,a5,s3
   1335c:	e01c                	sd	a5,0(s0)
   1335e:	d67ff0ef          	jal	130c4 <_fflush_r>
   13362:	fd41                	bnez	a0,132fa <__sfvwrite_r+0x1b0>
   13364:	87ce                	mv	a5,s3
   13366:	894e                	mv	s2,s3
   13368:	b7b9                	j	132b6 <__sfvwrite_r+0x16c>
   1336a:	6c18                	ld	a4,24(s0)
   1336c:	02f76763          	bltu	a4,a5,1339a <__sfvwrite_r+0x250>
   13370:	5018                	lw	a4,32(s0)
   13372:	02e96463          	bltu	s2,a4,1339a <__sfvwrite_r+0x250>
   13376:	86ca                	mv	a3,s2
   13378:	012b7363          	bgeu	s6,s2,1337e <__sfvwrite_r+0x234>
   1337c:	86da                	mv	a3,s6
   1337e:	02e6e73b          	remw	a4,a3,a4
   13382:	603c                	ld	a5,64(s0)
   13384:	780c                	ld	a1,48(s0)
   13386:	8662                	mv	a2,s8
   13388:	8556                	mv	a0,s5
   1338a:	9e99                	subw	a3,a3,a4
   1338c:	9782                	jalr	a5
   1338e:	89aa                	mv	s3,a0
   13390:	f6a055e3          	blez	a0,132fa <__sfvwrite_r+0x1b0>
   13394:	41390933          	sub	s2,s2,s3
   13398:	b57d                	j	13246 <__sfvwrite_r+0xfc>
   1339a:	89d2                	mv	s3,s4
   1339c:	01497363          	bgeu	s2,s4,133a2 <__sfvwrite_r+0x258>
   133a0:	89ca                	mv	s3,s2
   133a2:	853e                	mv	a0,a5
   133a4:	864e                	mv	a2,s3
   133a6:	85e2                	mv	a1,s8
   133a8:	39c000ef          	jal	13744 <memmove>
   133ac:	4458                	lw	a4,12(s0)
   133ae:	601c                	ld	a5,0(s0)
   133b0:	413706bb          	subw	a3,a4,s3
   133b4:	97ce                	add	a5,a5,s3
   133b6:	c454                	sw	a3,12(s0)
   133b8:	e01c                	sd	a5,0(s0)
   133ba:	fee9                	bnez	a3,13394 <__sfvwrite_r+0x24a>
   133bc:	85a2                	mv	a1,s0
   133be:	8556                	mv	a0,s5
   133c0:	d05ff0ef          	jal	130c4 <_fflush_r>
   133c4:	f91d                	bnez	a0,132fa <__sfvwrite_r+0x1b0>
   133c6:	41390933          	sub	s2,s2,s3
   133ca:	bdb5                	j	13246 <__sfvwrite_r+0xfc>
   133cc:	48077693          	andi	a3,a4,1152
   133d0:	cac1                	beqz	a3,13460 <__sfvwrite_r+0x316>
   133d2:	5010                	lw	a2,32(s0)
   133d4:	6c0c                	ld	a1,24(s0)
   133d6:	0016169b          	slliw	a3,a2,0x1
   133da:	9eb1                	addw	a3,a3,a2
   133dc:	8f8d                	sub	a5,a5,a1
   133de:	01f6d99b          	srliw	s3,a3,0x1f
   133e2:	00078c9b          	sext.w	s9,a5
   133e6:	00d989bb          	addw	s3,s3,a3
   133ea:	001c8693          	addi	a3,s9,1
   133ee:	4019d99b          	sraiw	s3,s3,0x1
   133f2:	96ca                	add	a3,a3,s2
   133f4:	00d9f663          	bgeu	s3,a3,13400 <__sfvwrite_r+0x2b6>
   133f8:	0017869b          	addiw	a3,a5,1
   133fc:	012689bb          	addw	s3,a3,s2
   13400:	40077713          	andi	a4,a4,1024
   13404:	c325                	beqz	a4,13464 <__sfvwrite_r+0x31a>
   13406:	85ce                	mv	a1,s3
   13408:	8556                	mv	a0,s5
   1340a:	855fd0ef          	jal	10c5e <_malloc_r>
   1340e:	8a2a                	mv	s4,a0
   13410:	c549                	beqz	a0,1349a <__sfvwrite_r+0x350>
   13412:	6c0c                	ld	a1,24(s0)
   13414:	8666                	mv	a2,s9
   13416:	400000ef          	jal	13816 <memcpy>
   1341a:	01045783          	lhu	a5,16(s0)
   1341e:	b7f7f793          	andi	a5,a5,-1153
   13422:	0807e793          	ori	a5,a5,128
   13426:	00f41823          	sh	a5,16(s0)
   1342a:	019a0533          	add	a0,s4,s9
   1342e:	419987bb          	subw	a5,s3,s9
   13432:	01443c23          	sd	s4,24(s0)
   13436:	e008                	sd	a0,0(s0)
   13438:	03342023          	sw	s3,32(s0)
   1343c:	8cca                	mv	s9,s2
   1343e:	c45c                	sw	a5,12(s0)
   13440:	8a4a                	mv	s4,s2
   13442:	b3e5                	j	1322a <__sfvwrite_r+0xe0>
   13444:	8652                	mv	a2,s4
   13446:	85e6                	mv	a1,s9
   13448:	2fc000ef          	jal	13744 <memmove>
   1344c:	4454                	lw	a3,12(s0)
   1344e:	6018                	ld	a4,0(s0)
   13450:	000a079b          	sext.w	a5,s4
   13454:	414686bb          	subw	a3,a3,s4
   13458:	9752                	add	a4,a4,s4
   1345a:	c454                	sw	a3,12(s0)
   1345c:	e018                	sd	a4,0(s0)
   1345e:	bda1                	j	132b6 <__sfvwrite_r+0x16c>
   13460:	8cd2                	mv	s9,s4
   13462:	b3e1                	j	1322a <__sfvwrite_r+0xe0>
   13464:	864e                	mv	a2,s3
   13466:	8556                	mv	a0,s5
   13468:	0c1020ef          	jal	15d28 <_realloc_r>
   1346c:	8a2a                	mv	s4,a0
   1346e:	fd55                	bnez	a0,1342a <__sfvwrite_r+0x2e0>
   13470:	6c0c                	ld	a1,24(s0)
   13472:	8556                	mv	a0,s5
   13474:	da6fd0ef          	jal	10a1a <_free_r>
   13478:	01041783          	lh	a5,16(s0)
   1347c:	4731                	li	a4,12
   1347e:	7b02                	ld	s6,32(sp)
   13480:	6c42                	ld	s8,16(sp)
   13482:	6ca2                	ld	s9,8(sp)
   13484:	00eaa023          	sw	a4,0(s5)
   13488:	f7f7f793          	andi	a5,a5,-129
   1348c:	bda5                	j	13304 <__sfvwrite_r+0x1ba>
   1348e:	001c0b1b          	addiw	s6,s8,1
   13492:	b3fd                	j	13280 <__sfvwrite_r+0x136>
   13494:	01041783          	lh	a5,16(s0)
   13498:	b5b5                	j	13304 <__sfvwrite_r+0x1ba>
   1349a:	4731                	li	a4,12
   1349c:	01041783          	lh	a5,16(s0)
   134a0:	7b02                	ld	s6,32(sp)
   134a2:	6c42                	ld	s8,16(sp)
   134a4:	6ca2                	ld	s9,8(sp)
   134a6:	00eaa023          	sw	a4,0(s5)
   134aa:	bda9                	j	13304 <__sfvwrite_r+0x1ba>

00000000000134ac <__swsetup_r>:
   134ac:	2201b783          	ld	a5,544(gp) # 1adc8 <_impure_ptr>
   134b0:	1101                	addi	sp,sp,-32
   134b2:	e822                	sd	s0,16(sp)
   134b4:	e426                	sd	s1,8(sp)
   134b6:	ec06                	sd	ra,24(sp)
   134b8:	84aa                	mv	s1,a0
   134ba:	842e                	mv	s0,a1
   134bc:	c399                	beqz	a5,134c2 <__swsetup_r+0x16>
   134be:	67b8                	ld	a4,72(a5)
   134c0:	c75d                	beqz	a4,1356e <__swsetup_r+0xc2>
   134c2:	01041783          	lh	a5,16(s0)
   134c6:	0087f713          	andi	a4,a5,8
   134ca:	c721                	beqz	a4,13512 <__swsetup_r+0x66>
   134cc:	6c18                	ld	a4,24(s0)
   134ce:	cf31                	beqz	a4,1352a <__swsetup_r+0x7e>
   134d0:	0017f693          	andi	a3,a5,1
   134d4:	ce91                	beqz	a3,134f0 <__swsetup_r+0x44>
   134d6:	5014                	lw	a3,32(s0)
   134d8:	00042623          	sw	zero,12(s0)
   134dc:	4501                	li	a0,0
   134de:	40d006bb          	negw	a3,a3
   134e2:	d414                	sw	a3,40(s0)
   134e4:	cf11                	beqz	a4,13500 <__swsetup_r+0x54>
   134e6:	60e2                	ld	ra,24(sp)
   134e8:	6442                	ld	s0,16(sp)
   134ea:	64a2                	ld	s1,8(sp)
   134ec:	6105                	addi	sp,sp,32
   134ee:	8082                	ret
   134f0:	0027f693          	andi	a3,a5,2
   134f4:	4601                	li	a2,0
   134f6:	e291                	bnez	a3,134fa <__swsetup_r+0x4e>
   134f8:	5010                	lw	a2,32(s0)
   134fa:	c450                	sw	a2,12(s0)
   134fc:	4501                	li	a0,0
   134fe:	f765                	bnez	a4,134e6 <__swsetup_r+0x3a>
   13500:	0807f713          	andi	a4,a5,128
   13504:	d36d                	beqz	a4,134e6 <__swsetup_r+0x3a>
   13506:	0407e793          	ori	a5,a5,64
   1350a:	00f41823          	sh	a5,16(s0)
   1350e:	557d                	li	a0,-1
   13510:	bfd9                	j	134e6 <__swsetup_r+0x3a>
   13512:	0107f713          	andi	a4,a5,16
   13516:	c325                	beqz	a4,13576 <__swsetup_r+0xca>
   13518:	0047f713          	andi	a4,a5,4
   1351c:	e70d                	bnez	a4,13546 <__swsetup_r+0x9a>
   1351e:	6c18                	ld	a4,24(s0)
   13520:	0087e793          	ori	a5,a5,8
   13524:	00f41823          	sh	a5,16(s0)
   13528:	f745                	bnez	a4,134d0 <__swsetup_r+0x24>
   1352a:	2807f693          	andi	a3,a5,640
   1352e:	20000613          	li	a2,512
   13532:	f8c68fe3          	beq	a3,a2,134d0 <__swsetup_r+0x24>
   13536:	85a2                	mv	a1,s0
   13538:	8526                	mv	a0,s1
   1353a:	3e7020ef          	jal	16120 <__smakebuf_r>
   1353e:	01041783          	lh	a5,16(s0)
   13542:	6c18                	ld	a4,24(s0)
   13544:	b771                	j	134d0 <__swsetup_r+0x24>
   13546:	6c2c                	ld	a1,88(s0)
   13548:	cd81                	beqz	a1,13560 <__swsetup_r+0xb4>
   1354a:	07440713          	addi	a4,s0,116
   1354e:	00e58763          	beq	a1,a4,1355c <__swsetup_r+0xb0>
   13552:	8526                	mv	a0,s1
   13554:	cc6fd0ef          	jal	10a1a <_free_r>
   13558:	01041783          	lh	a5,16(s0)
   1355c:	04043c23          	sd	zero,88(s0)
   13560:	6c18                	ld	a4,24(s0)
   13562:	fdb7f793          	andi	a5,a5,-37
   13566:	00042423          	sw	zero,8(s0)
   1356a:	e018                	sd	a4,0(s0)
   1356c:	bf55                	j	13520 <__swsetup_r+0x74>
   1356e:	853e                	mv	a0,a5
   13570:	e8bfc0ef          	jal	103fa <__sinit>
   13574:	b7b9                	j	134c2 <__swsetup_r+0x16>
   13576:	4725                	li	a4,9
   13578:	c098                	sw	a4,0(s1)
   1357a:	0407e793          	ori	a5,a5,64
   1357e:	00f41823          	sh	a5,16(s0)
   13582:	557d                	li	a0,-1
   13584:	b78d                	j	134e6 <__swsetup_r+0x3a>

0000000000013586 <memchr>:
   13586:	00757793          	andi	a5,a0,7
   1358a:	0ff5f693          	zext.b	a3,a1
   1358e:	c395                	beqz	a5,135b2 <memchr+0x2c>
   13590:	fff60793          	addi	a5,a2,-1
   13594:	c605                	beqz	a2,135bc <memchr+0x36>
   13596:	567d                	li	a2,-1
   13598:	a801                	j	135a8 <memchr+0x22>
   1359a:	0505                	addi	a0,a0,1
   1359c:	00757713          	andi	a4,a0,7
   135a0:	cb11                	beqz	a4,135b4 <memchr+0x2e>
   135a2:	17fd                	addi	a5,a5,-1
   135a4:	00c78c63          	beq	a5,a2,135bc <memchr+0x36>
   135a8:	00054703          	lbu	a4,0(a0)
   135ac:	fed717e3          	bne	a4,a3,1359a <memchr+0x14>
   135b0:	8082                	ret
   135b2:	87b2                	mv	a5,a2
   135b4:	471d                	li	a4,7
   135b6:	00f76563          	bltu	a4,a5,135c0 <memchr+0x3a>
   135ba:	e3bd                	bnez	a5,13620 <memchr+0x9a>
   135bc:	4501                	li	a0,0
   135be:	8082                	ret
   135c0:	0ff5f593          	zext.b	a1,a1
   135c4:	f0101837          	lui	a6,0xf0101
   135c8:	00859713          	slli	a4,a1,0x8
   135cc:	feff08b7          	lui	a7,0xfeff0
   135d0:	0812                	slli	a6,a6,0x4
   135d2:	972e                	add	a4,a4,a1
   135d4:	eff88893          	addi	a7,a7,-257 # fffffffffefefeff <__BSS_END__+0xfffffffffefd4b57>
   135d8:	10180813          	addi	a6,a6,257 # fffffffff0101101 <__BSS_END__+0xfffffffff00e5d59>
   135dc:	01071593          	slli	a1,a4,0x10
   135e0:	08c2                	slli	a7,a7,0x10
   135e2:	0842                	slli	a6,a6,0x10
   135e4:	95ba                	add	a1,a1,a4
   135e6:	eff88893          	addi	a7,a7,-257
   135ea:	10180813          	addi	a6,a6,257
   135ee:	02059713          	slli	a4,a1,0x20
   135f2:	08c2                	slli	a7,a7,0x10
   135f4:	083e                	slli	a6,a6,0xf
   135f6:	95ba                	add	a1,a1,a4
   135f8:	eff88893          	addi	a7,a7,-257
   135fc:	08080813          	addi	a6,a6,128
   13600:	431d                	li	t1,7
   13602:	a029                	j	1360c <memchr+0x86>
   13604:	17e1                	addi	a5,a5,-8
   13606:	0521                	addi	a0,a0,8
   13608:	faf379e3          	bgeu	t1,a5,135ba <memchr+0x34>
   1360c:	6118                	ld	a4,0(a0)
   1360e:	8f2d                	xor	a4,a4,a1
   13610:	01170633          	add	a2,a4,a7
   13614:	fff74713          	not	a4,a4
   13618:	8f71                	and	a4,a4,a2
   1361a:	01077733          	and	a4,a4,a6
   1361e:	d37d                	beqz	a4,13604 <memchr+0x7e>
   13620:	97aa                	add	a5,a5,a0
   13622:	a021                	j	1362a <memchr+0xa4>
   13624:	0505                	addi	a0,a0,1
   13626:	f8a78be3          	beq	a5,a0,135bc <memchr+0x36>
   1362a:	00054703          	lbu	a4,0(a0)
   1362e:	fed71be3          	bne	a4,a3,13624 <memchr+0x9e>
   13632:	8082                	ret

0000000000013634 <strncpy>:
   13634:	00a5e7b3          	or	a5,a1,a0
   13638:	8b9d                	andi	a5,a5,7
   1363a:	e781                	bnez	a5,13642 <strncpy+0xe>
   1363c:	479d                	li	a5,7
   1363e:	02c7eb63          	bltu	a5,a2,13674 <strncpy+0x40>
   13642:	872a                	mv	a4,a0
   13644:	a811                	j	13658 <strncpy+0x24>
   13646:	fff5c683          	lbu	a3,-1(a1)
   1364a:	fff60813          	addi	a6,a2,-1
   1364e:	fed78fa3          	sb	a3,-1(a5)
   13652:	ca81                	beqz	a3,13662 <strncpy+0x2e>
   13654:	873e                	mv	a4,a5
   13656:	8642                	mv	a2,a6
   13658:	0585                	addi	a1,a1,1
   1365a:	00170793          	addi	a5,a4,1
   1365e:	f665                	bnez	a2,13646 <strncpy+0x12>
   13660:	8082                	ret
   13662:	9732                	add	a4,a4,a2
   13664:	06080163          	beqz	a6,136c6 <strncpy+0x92>
   13668:	0785                	addi	a5,a5,1
   1366a:	fe078fa3          	sb	zero,-1(a5)
   1366e:	fee79de3          	bne	a5,a4,13668 <strncpy+0x34>
   13672:	8082                	ret
   13674:	f0101837          	lui	a6,0xf0101
   13678:	feff08b7          	lui	a7,0xfeff0
   1367c:	0812                	slli	a6,a6,0x4
   1367e:	eff88893          	addi	a7,a7,-257 # fffffffffefefeff <__BSS_END__+0xfffffffffefd4b57>
   13682:	10180813          	addi	a6,a6,257 # fffffffff0101101 <__BSS_END__+0xfffffffff00e5d59>
   13686:	08c2                	slli	a7,a7,0x10
   13688:	0842                	slli	a6,a6,0x10
   1368a:	eff88893          	addi	a7,a7,-257
   1368e:	10180813          	addi	a6,a6,257
   13692:	08c2                	slli	a7,a7,0x10
   13694:	083e                	slli	a6,a6,0xf
   13696:	872a                	mv	a4,a0
   13698:	eff88893          	addi	a7,a7,-257
   1369c:	08080813          	addi	a6,a6,128
   136a0:	4e1d                	li	t3,7
   136a2:	a039                	j	136b0 <strncpy+0x7c>
   136a4:	e314                	sd	a3,0(a4)
   136a6:	1661                	addi	a2,a2,-8
   136a8:	0721                	addi	a4,a4,8
   136aa:	05a1                	addi	a1,a1,8
   136ac:	face76e3          	bgeu	t3,a2,13658 <strncpy+0x24>
   136b0:	6194                	ld	a3,0(a1)
   136b2:	011687b3          	add	a5,a3,a7
   136b6:	fff6c313          	not	t1,a3
   136ba:	0067f7b3          	and	a5,a5,t1
   136be:	0107f7b3          	and	a5,a5,a6
   136c2:	d3ed                	beqz	a5,136a4 <strncpy+0x70>
   136c4:	bf51                	j	13658 <strncpy+0x24>
   136c6:	8082                	ret

00000000000136c8 <__localeconv_l>:
   136c8:	10050513          	addi	a0,a0,256
   136cc:	8082                	ret

00000000000136ce <_localeconv_r>:
   136ce:	10018513          	addi	a0,gp,256 # 1aca8 <__global_locale+0x100>
   136d2:	8082                	ret

00000000000136d4 <localeconv>:
   136d4:	10018513          	addi	a0,gp,256 # 1aca8 <__global_locale+0x100>
   136d8:	8082                	ret

00000000000136da <_sbrk_r>:
   136da:	1101                	addi	sp,sp,-32
   136dc:	e822                	sd	s0,16(sp)
   136de:	e426                	sd	s1,8(sp)
   136e0:	842a                	mv	s0,a0
   136e2:	852e                	mv	a0,a1
   136e4:	ec06                	sd	ra,24(sp)
   136e6:	2401a023          	sw	zero,576(gp) # 1ade8 <errno>
   136ea:	050040ef          	jal	1773a <_sbrk>
   136ee:	57fd                	li	a5,-1
   136f0:	00f50763          	beq	a0,a5,136fe <_sbrk_r+0x24>
   136f4:	60e2                	ld	ra,24(sp)
   136f6:	6442                	ld	s0,16(sp)
   136f8:	64a2                	ld	s1,8(sp)
   136fa:	6105                	addi	sp,sp,32
   136fc:	8082                	ret
   136fe:	2401a783          	lw	a5,576(gp) # 1ade8 <errno>
   13702:	dbed                	beqz	a5,136f4 <_sbrk_r+0x1a>
   13704:	60e2                	ld	ra,24(sp)
   13706:	c01c                	sw	a5,0(s0)
   13708:	6442                	ld	s0,16(sp)
   1370a:	64a2                	ld	s1,8(sp)
   1370c:	6105                	addi	sp,sp,32
   1370e:	8082                	ret

0000000000013710 <__libc_fini_array>:
   13710:	1101                	addi	sp,sp,-32
   13712:	e822                	sd	s0,16(sp)
   13714:	67e9                	lui	a5,0x1a
   13716:	6469                	lui	s0,0x1a
   13718:	22078793          	addi	a5,a5,544 # 1a220 <__do_global_dtors_aux_fini_array_entry>
   1371c:	22840413          	addi	s0,s0,552 # 1a228 <__sglue>
   13720:	8c1d                	sub	s0,s0,a5
   13722:	e426                	sd	s1,8(sp)
   13724:	ec06                	sd	ra,24(sp)
   13726:	40345493          	srai	s1,s0,0x3
   1372a:	c881                	beqz	s1,1373a <__libc_fini_array+0x2a>
   1372c:	1461                	addi	s0,s0,-8
   1372e:	943e                	add	s0,s0,a5
   13730:	601c                	ld	a5,0(s0)
   13732:	14fd                	addi	s1,s1,-1
   13734:	1461                	addi	s0,s0,-8
   13736:	9782                	jalr	a5
   13738:	fce5                	bnez	s1,13730 <__libc_fini_array+0x20>
   1373a:	60e2                	ld	ra,24(sp)
   1373c:	6442                	ld	s0,16(sp)
   1373e:	64a2                	ld	s1,8(sp)
   13740:	6105                	addi	sp,sp,32
   13742:	8082                	ret

0000000000013744 <memmove>:
   13744:	02a5f263          	bgeu	a1,a0,13768 <memmove+0x24>
   13748:	00c58733          	add	a4,a1,a2
   1374c:	00e57e63          	bgeu	a0,a4,13768 <memmove+0x24>
   13750:	00c507b3          	add	a5,a0,a2
   13754:	ca1d                	beqz	a2,1378a <memmove+0x46>
   13756:	fff74683          	lbu	a3,-1(a4)
   1375a:	17fd                	addi	a5,a5,-1
   1375c:	177d                	addi	a4,a4,-1
   1375e:	00d78023          	sb	a3,0(a5)
   13762:	fef51ae3          	bne	a0,a5,13756 <memmove+0x12>
   13766:	8082                	ret
   13768:	47fd                	li	a5,31
   1376a:	02c7e163          	bltu	a5,a2,1378c <memmove+0x48>
   1376e:	87aa                	mv	a5,a0
   13770:	fff60693          	addi	a3,a2,-1
   13774:	ce51                	beqz	a2,13810 <memmove+0xcc>
   13776:	0685                	addi	a3,a3,1
   13778:	96be                	add	a3,a3,a5
   1377a:	0005c703          	lbu	a4,0(a1)
   1377e:	0785                	addi	a5,a5,1
   13780:	0585                	addi	a1,a1,1
   13782:	fee78fa3          	sb	a4,-1(a5)
   13786:	fed79ae3          	bne	a5,a3,1377a <memmove+0x36>
   1378a:	8082                	ret
   1378c:	00b567b3          	or	a5,a0,a1
   13790:	8b9d                	andi	a5,a5,7
   13792:	ebbd                	bnez	a5,13808 <memmove+0xc4>
   13794:	fe060893          	addi	a7,a2,-32
   13798:	fe08f893          	andi	a7,a7,-32
   1379c:	02088893          	addi	a7,a7,32
   137a0:	011506b3          	add	a3,a0,a7
   137a4:	872e                	mv	a4,a1
   137a6:	87aa                	mv	a5,a0
   137a8:	00073803          	ld	a6,0(a4)
   137ac:	02070713          	addi	a4,a4,32
   137b0:	02078793          	addi	a5,a5,32
   137b4:	ff07b023          	sd	a6,-32(a5)
   137b8:	fe873803          	ld	a6,-24(a4)
   137bc:	ff07b423          	sd	a6,-24(a5)
   137c0:	ff073803          	ld	a6,-16(a4)
   137c4:	ff07b823          	sd	a6,-16(a5)
   137c8:	ff873803          	ld	a6,-8(a4)
   137cc:	ff07bc23          	sd	a6,-8(a5)
   137d0:	fcd79ce3          	bne	a5,a3,137a8 <memmove+0x64>
   137d4:	01867813          	andi	a6,a2,24
   137d8:	95c6                	add	a1,a1,a7
   137da:	01f67713          	andi	a4,a2,31
   137de:	02080a63          	beqz	a6,13812 <memmove+0xce>
   137e2:	ff870813          	addi	a6,a4,-8
   137e6:	ff887813          	andi	a6,a6,-8
   137ea:	0821                	addi	a6,a6,8
   137ec:	010687b3          	add	a5,a3,a6
   137f0:	872e                	mv	a4,a1
   137f2:	00073883          	ld	a7,0(a4)
   137f6:	06a1                	addi	a3,a3,8
   137f8:	0721                	addi	a4,a4,8
   137fa:	ff16bc23          	sd	a7,-8(a3)
   137fe:	fef69ae3          	bne	a3,a5,137f2 <memmove+0xae>
   13802:	8a1d                	andi	a2,a2,7
   13804:	95c2                	add	a1,a1,a6
   13806:	b7ad                	j	13770 <memmove+0x2c>
   13808:	fff60693          	addi	a3,a2,-1
   1380c:	87aa                	mv	a5,a0
   1380e:	b7a5                	j	13776 <memmove+0x32>
   13810:	8082                	ret
   13812:	863a                	mv	a2,a4
   13814:	bfb1                	j	13770 <memmove+0x2c>

0000000000013816 <memcpy>:
   13816:	00a5c7b3          	xor	a5,a1,a0
   1381a:	8b9d                	andi	a5,a5,7
   1381c:	00c508b3          	add	a7,a0,a2
   13820:	e7b1                	bnez	a5,1386c <memcpy+0x56>
   13822:	479d                	li	a5,7
   13824:	04c7f463          	bgeu	a5,a2,1386c <memcpy+0x56>
   13828:	00757793          	andi	a5,a0,7
   1382c:	872a                	mv	a4,a0
   1382e:	ebb9                	bnez	a5,13884 <memcpy+0x6e>
   13830:	ff88f613          	andi	a2,a7,-8
   13834:	40e606b3          	sub	a3,a2,a4
   13838:	04000793          	li	a5,64
   1383c:	06d7c863          	blt	a5,a3,138ac <memcpy+0x96>
   13840:	86ae                	mv	a3,a1
   13842:	87ba                	mv	a5,a4
   13844:	02c77163          	bgeu	a4,a2,13866 <memcpy+0x50>
   13848:	0006b803          	ld	a6,0(a3)
   1384c:	07a1                	addi	a5,a5,8
   1384e:	06a1                	addi	a3,a3,8
   13850:	ff07bc23          	sd	a6,-8(a5)
   13854:	fec7eae3          	bltu	a5,a2,13848 <memcpy+0x32>
   13858:	fff60793          	addi	a5,a2,-1
   1385c:	8f99                	sub	a5,a5,a4
   1385e:	9be1                	andi	a5,a5,-8
   13860:	07a1                	addi	a5,a5,8
   13862:	973e                	add	a4,a4,a5
   13864:	95be                	add	a1,a1,a5
   13866:	01176663          	bltu	a4,a7,13872 <memcpy+0x5c>
   1386a:	8082                	ret
   1386c:	872a                	mv	a4,a0
   1386e:	03157e63          	bgeu	a0,a7,138aa <memcpy+0x94>
   13872:	0005c783          	lbu	a5,0(a1)
   13876:	0705                	addi	a4,a4,1
   13878:	0585                	addi	a1,a1,1
   1387a:	fef70fa3          	sb	a5,-1(a4)
   1387e:	fee89ae3          	bne	a7,a4,13872 <memcpy+0x5c>
   13882:	8082                	ret
   13884:	0005c683          	lbu	a3,0(a1)
   13888:	0705                	addi	a4,a4,1
   1388a:	00777793          	andi	a5,a4,7
   1388e:	fed70fa3          	sb	a3,-1(a4)
   13892:	0585                	addi	a1,a1,1
   13894:	dfd1                	beqz	a5,13830 <memcpy+0x1a>
   13896:	0005c683          	lbu	a3,0(a1)
   1389a:	0705                	addi	a4,a4,1
   1389c:	00777793          	andi	a5,a4,7
   138a0:	fed70fa3          	sb	a3,-1(a4)
   138a4:	0585                	addi	a1,a1,1
   138a6:	fff9                	bnez	a5,13884 <memcpy+0x6e>
   138a8:	b761                	j	13830 <memcpy+0x1a>
   138aa:	8082                	ret
   138ac:	1141                	addi	sp,sp,-16
   138ae:	e422                	sd	s0,8(sp)
   138b0:	04000413          	li	s0,64
   138b4:	0005b383          	ld	t2,0(a1)
   138b8:	0085b283          	ld	t0,8(a1)
   138bc:	0105bf83          	ld	t6,16(a1)
   138c0:	0185bf03          	ld	t5,24(a1)
   138c4:	0205be83          	ld	t4,32(a1)
   138c8:	0285be03          	ld	t3,40(a1)
   138cc:	0305b303          	ld	t1,48(a1)
   138d0:	0385b803          	ld	a6,56(a1)
   138d4:	61b4                	ld	a3,64(a1)
   138d6:	04870713          	addi	a4,a4,72
   138da:	40e607b3          	sub	a5,a2,a4
   138de:	fa773c23          	sd	t2,-72(a4)
   138e2:	fc573023          	sd	t0,-64(a4)
   138e6:	fdf73423          	sd	t6,-56(a4)
   138ea:	fde73823          	sd	t5,-48(a4)
   138ee:	fdd73c23          	sd	t4,-40(a4)
   138f2:	ffc73023          	sd	t3,-32(a4)
   138f6:	fe673423          	sd	t1,-24(a4)
   138fa:	ff073823          	sd	a6,-16(a4)
   138fe:	fed73c23          	sd	a3,-8(a4)
   13902:	04858593          	addi	a1,a1,72
   13906:	faf447e3          	blt	s0,a5,138b4 <memcpy+0x9e>
   1390a:	86ae                	mv	a3,a1
   1390c:	87ba                	mv	a5,a4
   1390e:	02c77163          	bgeu	a4,a2,13930 <memcpy+0x11a>
   13912:	0006b803          	ld	a6,0(a3)
   13916:	07a1                	addi	a5,a5,8
   13918:	06a1                	addi	a3,a3,8
   1391a:	ff07bc23          	sd	a6,-8(a5)
   1391e:	fec7eae3          	bltu	a5,a2,13912 <memcpy+0xfc>
   13922:	fff60793          	addi	a5,a2,-1
   13926:	8f99                	sub	a5,a5,a4
   13928:	9be1                	andi	a5,a5,-8
   1392a:	07a1                	addi	a5,a5,8
   1392c:	973e                	add	a4,a4,a5
   1392e:	95be                	add	a1,a1,a5
   13930:	01176563          	bltu	a4,a7,1393a <memcpy+0x124>
   13934:	6422                	ld	s0,8(sp)
   13936:	0141                	addi	sp,sp,16
   13938:	8082                	ret
   1393a:	0005c783          	lbu	a5,0(a1)
   1393e:	0705                	addi	a4,a4,1
   13940:	0585                	addi	a1,a1,1
   13942:	fef70fa3          	sb	a5,-1(a4)
   13946:	fee887e3          	beq	a7,a4,13934 <memcpy+0x11e>
   1394a:	0005c783          	lbu	a5,0(a1)
   1394e:	0705                	addi	a4,a4,1
   13950:	0585                	addi	a1,a1,1
   13952:	fef70fa3          	sb	a5,-1(a4)
   13956:	fee892e3          	bne	a7,a4,1393a <memcpy+0x124>
   1395a:	bfe9                	j	13934 <memcpy+0x11e>

000000000001395c <strlen>:
   1395c:	00757793          	andi	a5,a0,7
   13960:	872a                	mv	a4,a0
   13962:	e3b5                	bnez	a5,139c6 <strlen+0x6a>
   13964:	0feff6b7          	lui	a3,0xfeff
   13968:	0692                	slli	a3,a3,0x4
   1396a:	eff68693          	addi	a3,a3,-257 # fefeeff <__BSS_END__+0xfee3b57>
   1396e:	06c2                	slli	a3,a3,0x10
   13970:	eff68693          	addi	a3,a3,-257
   13974:	06be                	slli	a3,a3,0xf
   13976:	f7f68693          	addi	a3,a3,-129
   1397a:	55fd                	li	a1,-1
   1397c:	6310                	ld	a2,0(a4)
   1397e:	0721                	addi	a4,a4,8
   13980:	00d677b3          	and	a5,a2,a3
   13984:	97b6                	add	a5,a5,a3
   13986:	8fd1                	or	a5,a5,a2
   13988:	8fd5                	or	a5,a5,a3
   1398a:	feb789e3          	beq	a5,a1,1397c <strlen+0x20>
   1398e:	ff874683          	lbu	a3,-8(a4)
   13992:	40a707b3          	sub	a5,a4,a0
   13996:	c6a9                	beqz	a3,139e0 <strlen+0x84>
   13998:	ff974683          	lbu	a3,-7(a4)
   1399c:	ce9d                	beqz	a3,139da <strlen+0x7e>
   1399e:	ffa74683          	lbu	a3,-6(a4)
   139a2:	c6a9                	beqz	a3,139ec <strlen+0x90>
   139a4:	ffb74683          	lbu	a3,-5(a4)
   139a8:	ce9d                	beqz	a3,139e6 <strlen+0x8a>
   139aa:	ffc74683          	lbu	a3,-4(a4)
   139ae:	c2b1                	beqz	a3,139f2 <strlen+0x96>
   139b0:	ffd74683          	lbu	a3,-3(a4)
   139b4:	c2b1                	beqz	a3,139f8 <strlen+0x9c>
   139b6:	ffe74503          	lbu	a0,-2(a4)
   139ba:	00a03533          	snez	a0,a0
   139be:	953e                	add	a0,a0,a5
   139c0:	1579                	addi	a0,a0,-2
   139c2:	8082                	ret
   139c4:	d2c5                	beqz	a3,13964 <strlen+0x8>
   139c6:	00074783          	lbu	a5,0(a4)
   139ca:	0705                	addi	a4,a4,1
   139cc:	00777693          	andi	a3,a4,7
   139d0:	fbf5                	bnez	a5,139c4 <strlen+0x68>
   139d2:	8f09                	sub	a4,a4,a0
   139d4:	fff70513          	addi	a0,a4,-1
   139d8:	8082                	ret
   139da:	ff978513          	addi	a0,a5,-7
   139de:	8082                	ret
   139e0:	ff878513          	addi	a0,a5,-8
   139e4:	8082                	ret
   139e6:	ffb78513          	addi	a0,a5,-5
   139ea:	8082                	ret
   139ec:	ffa78513          	addi	a0,a5,-6
   139f0:	8082                	ret
   139f2:	ffc78513          	addi	a0,a5,-4
   139f6:	8082                	ret
   139f8:	ffd78513          	addi	a0,a5,-3
   139fc:	8082                	ret

00000000000139fe <frexpl>:
   139fe:	7139                	addi	sp,sp,-64
   13a00:	f04a                	sd	s2,32(sp)
   13a02:	6921                	lui	s2,0x8
   13a04:	f822                	sd	s0,48(sp)
   13a06:	f426                	sd	s1,40(sp)
   13a08:	e05a                	sd	s6,0(sp)
   13a0a:	fc06                	sd	ra,56(sp)
   13a0c:	0305d493          	srli	s1,a1,0x30
   13a10:	197d                	addi	s2,s2,-1 # 7fff <exit-0x80e9>
   13a12:	0124f4b3          	and	s1,s1,s2
   13a16:	00062023          	sw	zero,0(a2)
   13a1a:	842e                	mv	s0,a1
   13a1c:	8b2a                	mv	s6,a0
   13a1e:	05248463          	beq	s1,s2,13a66 <frexpl+0x68>
   13a22:	e456                	sd	s5,8(sp)
   13a24:	4681                	li	a3,0
   13a26:	8ab2                	mv	s5,a2
   13a28:	4601                	li	a2,0
   13a2a:	ec4e                	sd	s3,24(sp)
   13a2c:	e852                	sd	s4,16(sp)
   13a2e:	89ae                	mv	s3,a1
   13a30:	8a2a                	mv	s4,a0
   13a32:	5d7030ef          	jal	17808 <__eqtf2>
   13a36:	c125                	beqz	a0,13a96 <frexpl+0x98>
   13a38:	4681                	li	a3,0
   13a3a:	cc8d                	beqz	s1,13a74 <frexpl+0x76>
   13a3c:	7771                	lui	a4,0xffffc
   13a3e:	f80017b7          	lui	a5,0xf8001
   13a42:	2709                	addiw	a4,a4,2 # ffffffffffffc002 <__BSS_END__+0xfffffffffffe0c5a>
   13a44:	1792                	slli	a5,a5,0x24
   13a46:	9cb9                	addw	s1,s1,a4
   13a48:	17fd                	addi	a5,a5,-1 # fffffffff8000fff <__BSS_END__+0xfffffffff7fe5c57>
   13a4a:	01fff437          	lui	s0,0x1fff
   13a4e:	00f9f9b3          	and	s3,s3,a5
   13a52:	9cb5                	addw	s1,s1,a3
   13a54:	1416                	slli	s0,s0,0x25
   13a56:	009aa023          	sw	s1,0(s5)
   13a5a:	8552                	mv	a0,s4
