
hello.elf:     file format elf64-littleriscv


Disassembly of section .text:

00000000000100e8 <exit>:
   100e8:	1141                	addi	sp,sp,-16
   100ea:	4581                	li	a1,0
   100ec:	e022                	sd	s0,0(sp)
   100ee:	e406                	sd	ra,8(sp)
   100f0:	842a                	mv	s0,a0
   100f2:	77c000ef          	jal	1086e <__call_exitprocs>
   100f6:	2381b783          	ld	a5,568(gp) # 1ade0 <__stdio_exit_handler>
   100fa:	c391                	beqz	a5,100fe <exit+0x16>
   100fc:	9782                	jalr	a5
   100fe:	8522                	mv	a0,s0
   10100:	542070ef          	jal	17642 <_exit>

0000000000010104 <register_fini>:
   10104:	00000793          	li	a5,0
   10108:	c791                	beqz	a5,10114 <register_fini+0x10>
   1010a:	654d                	lui	a0,0x13
   1010c:	71050513          	addi	a0,a0,1808 # 13710 <__libc_fini_array>
   10110:	0310006f          	j	10940 <atexit>
   10114:	8082                	ret

0000000000010116 <_start>:
   10116:	0000b197          	auipc	gp,0xb
   1011a:	a9218193          	addi	gp,gp,-1390 # 1aba8 <__global_locale>
   1011e:	23818513          	addi	a0,gp,568 # 1ade0 <__stdio_exit_handler>
   10122:	0000b617          	auipc	a2,0xb
   10126:	28660613          	addi	a2,a2,646 # 1b3a8 <__BSS_END__>
   1012a:	8e09                	sub	a2,a2,a0
   1012c:	4581                	li	a1,0
   1012e:	696000ef          	jal	107c4 <memset>
   10132:	00001517          	auipc	a0,0x1
   10136:	80e50513          	addi	a0,a0,-2034 # 10940 <atexit>
   1013a:	c519                	beqz	a0,10148 <_start+0x32>
   1013c:	00003517          	auipc	a0,0x3
   10140:	5d450513          	addi	a0,a0,1492 # 13710 <__libc_fini_array>
   10144:	7fc000ef          	jal	10940 <atexit>
   10148:	612000ef          	jal	1075a <__libc_init_array>
   1014c:	4502                	lw	a0,0(sp)
   1014e:	002c                	addi	a1,sp,8
   10150:	4601                	li	a2,0
   10152:	04e000ef          	jal	101a0 <main>
   10156:	bf49                	j	100e8 <exit>

0000000000010158 <__do_global_dtors_aux>:
   10158:	1141                	addi	sp,sp,-16
   1015a:	e022                	sd	s0,0(sp)
   1015c:	2781c783          	lbu	a5,632(gp) # 1ae20 <completed.1>
   10160:	e406                	sd	ra,8(sp)
   10162:	ef91                	bnez	a5,1017e <__do_global_dtors_aux+0x26>
   10164:	00000793          	li	a5,0
   10168:	cb81                	beqz	a5,10178 <__do_global_dtors_aux+0x20>
   1016a:	6569                	lui	a0,0x1a
   1016c:	20850513          	addi	a0,a0,520 # 1a208 <__EH_FRAME_BEGIN__>
   10170:	00000097          	auipc	ra,0x0
   10174:	000000e7          	jalr	zero # 0 <exit-0x100e8>
   10178:	4785                	li	a5,1
   1017a:	26f18c23          	sb	a5,632(gp) # 1ae20 <completed.1>
   1017e:	60a2                	ld	ra,8(sp)
   10180:	6402                	ld	s0,0(sp)
   10182:	0141                	addi	sp,sp,16
   10184:	8082                	ret

0000000000010186 <frame_dummy>:
   10186:	00000793          	li	a5,0
   1018a:	cb91                	beqz	a5,1019e <frame_dummy+0x18>
   1018c:	6569                	lui	a0,0x1a
   1018e:	28018593          	addi	a1,gp,640 # 1ae28 <object.0>
   10192:	20850513          	addi	a0,a0,520 # 1a208 <__EH_FRAME_BEGIN__>
   10196:	00000317          	auipc	t1,0x0
   1019a:	00000067          	jr	zero # 0 <exit-0x100e8>
   1019e:	8082                	ret

00000000000101a0 <main>:
   101a0:	1101                	addi	sp,sp,-32
   101a2:	ec06                	sd	ra,24(sp)
   101a4:	e822                	sd	s0,16(sp)
   101a6:	1000                	addi	s0,sp,32
   101a8:	87aa                	mv	a5,a0
   101aa:	feb43023          	sd	a1,-32(s0)
   101ae:	fef42623          	sw	a5,-20(s0)
   101b2:	67e5                	lui	a5,0x19
   101b4:	a1078513          	addi	a0,a5,-1520 # 18a10 <__clzdi2+0x3a>
   101b8:	320000ef          	jal	104d8 <printf>
   101bc:	4781                	li	a5,0
   101be:	853e                	mv	a0,a5
   101c0:	60e2                	ld	ra,24(sp)
   101c2:	6442                	ld	s0,16(sp)
   101c4:	6105                	addi	sp,sp,32
   101c6:	8082                	ret

00000000000101c8 <__fp_lock>:
   101c8:	4501                	li	a0,0
   101ca:	8082                	ret

00000000000101cc <stdio_exit_handler>:
   101cc:	6669                	lui	a2,0x1a
   101ce:	65cd                	lui	a1,0x13
   101d0:	6569                	lui	a0,0x1a
   101d2:	22860613          	addi	a2,a2,552 # 1a228 <__sglue>
   101d6:	e7c58593          	addi	a1,a1,-388 # 12e7c <_fclose_r>
   101da:	24050513          	addi	a0,a0,576 # 1a240 <_impure_data>
   101de:	ac99                	j	10434 <_fwalk_sglue>

00000000000101e0 <cleanup_stdio>:
   101e0:	650c                	ld	a1,8(a0)
   101e2:	1141                	addi	sp,sp,-16
   101e4:	e022                	sd	s0,0(sp)
   101e6:	e406                	sd	ra,8(sp)
   101e8:	2b018793          	addi	a5,gp,688 # 1ae58 <__sf>
   101ec:	842a                	mv	s0,a0
   101ee:	00f58463          	beq	a1,a5,101f6 <cleanup_stdio+0x16>
   101f2:	48b020ef          	jal	12e7c <_fclose_r>
   101f6:	680c                	ld	a1,16(s0)
   101f8:	36018793          	addi	a5,gp,864 # 1af08 <__sf+0xb0>
   101fc:	00f58563          	beq	a1,a5,10206 <cleanup_stdio+0x26>
   10200:	8522                	mv	a0,s0
   10202:	47b020ef          	jal	12e7c <_fclose_r>
   10206:	6c0c                	ld	a1,24(s0)
   10208:	41018793          	addi	a5,gp,1040 # 1afb8 <__sf+0x160>
   1020c:	00f58863          	beq	a1,a5,1021c <cleanup_stdio+0x3c>
   10210:	8522                	mv	a0,s0
   10212:	6402                	ld	s0,0(sp)
   10214:	60a2                	ld	ra,8(sp)
   10216:	0141                	addi	sp,sp,16
   10218:	4650206f          	j	12e7c <_fclose_r>
   1021c:	60a2                	ld	ra,8(sp)
   1021e:	6402                	ld	s0,0(sp)
   10220:	0141                	addi	sp,sp,16
   10222:	8082                	ret

0000000000010224 <__fp_unlock>:
   10224:	4501                	li	a0,0
   10226:	8082                	ret

0000000000010228 <global_stdio_init.part.0>:
   10228:	7179                	addi	sp,sp,-48
   1022a:	67c1                	lui	a5,0x10
   1022c:	f022                	sd	s0,32(sp)
   1022e:	1cc78793          	addi	a5,a5,460 # 101cc <stdio_exit_handler>
   10232:	2b018413          	addi	s0,gp,688 # 1ae58 <__sf>
   10236:	f406                	sd	ra,40(sp)
   10238:	ec26                	sd	s1,24(sp)
   1023a:	e84a                	sd	s2,16(sp)
   1023c:	e44e                	sd	s3,8(sp)
   1023e:	e052                	sd	s4,0(sp)
   10240:	22f1bc23          	sd	a5,568(gp) # 1ade0 <__stdio_exit_handler>
   10244:	4621                	li	a2,8
   10246:	4791                	li	a5,4
   10248:	4581                	li	a1,0
   1024a:	35418513          	addi	a0,gp,852 # 1aefc <__sf+0xa4>
   1024e:	c81c                	sw	a5,16(s0)
   10250:	00043023          	sd	zero,0(s0)
   10254:	00043423          	sd	zero,8(s0)
   10258:	0a042623          	sw	zero,172(s0)
   1025c:	00043c23          	sd	zero,24(s0)
   10260:	02042023          	sw	zero,32(s0)
   10264:	02042423          	sw	zero,40(s0)
   10268:	55c000ef          	jal	107c4 <memset>
   1026c:	67c1                	lui	a5,0x10
   1026e:	6a41                	lui	s4,0x10
   10270:	69c1                	lui	s3,0x10
   10272:	6941                	lui	s2,0x10
   10274:	64c1                	lui	s1,0x10
   10276:	504a0a13          	addi	s4,s4,1284 # 10504 <__sread>
   1027a:	54098993          	addi	s3,s3,1344 # 10540 <__swrite>
   1027e:	59290913          	addi	s2,s2,1426 # 10592 <__sseek>
   10282:	5e448493          	addi	s1,s1,1508 # 105e4 <__sclose>
   10286:	07a5                	addi	a5,a5,9 # 10009 <exit-0xdf>
   10288:	4621                	li	a2,8
   1028a:	4581                	li	a1,0
   1028c:	40418513          	addi	a0,gp,1028 # 1afac <__sf+0x154>
   10290:	03443c23          	sd	s4,56(s0)
   10294:	05343023          	sd	s3,64(s0)
   10298:	05243423          	sd	s2,72(s0)
   1029c:	e824                	sd	s1,80(s0)
   1029e:	0cf42023          	sw	a5,192(s0)
   102a2:	f800                	sd	s0,48(s0)
   102a4:	0a043823          	sd	zero,176(s0)
   102a8:	0a043c23          	sd	zero,184(s0)
   102ac:	14042e23          	sw	zero,348(s0)
   102b0:	0c043423          	sd	zero,200(s0)
   102b4:	0c042823          	sw	zero,208(s0)
   102b8:	0c042c23          	sw	zero,216(s0)
   102bc:	508000ef          	jal	107c4 <memset>
   102c0:	000207b7          	lui	a5,0x20
   102c4:	07c9                	addi	a5,a5,18 # 20012 <__BSS_END__+0x4c6a>
   102c6:	36018713          	addi	a4,gp,864 # 1af08 <__sf+0xb0>
   102ca:	4621                	li	a2,8
   102cc:	4581                	li	a1,0
   102ce:	4b418513          	addi	a0,gp,1204 # 1b05c <__sf+0x204>
   102d2:	0f443423          	sd	s4,232(s0)
   102d6:	0f343823          	sd	s3,240(s0)
   102da:	0f243c23          	sd	s2,248(s0)
   102de:	10943023          	sd	s1,256(s0)
   102e2:	16f42823          	sw	a5,368(s0)
   102e6:	f078                	sd	a4,224(s0)
   102e8:	16043023          	sd	zero,352(s0)
   102ec:	16043423          	sd	zero,360(s0)
   102f0:	20042623          	sw	zero,524(s0)
   102f4:	16043c23          	sd	zero,376(s0)
   102f8:	18042023          	sw	zero,384(s0)
   102fc:	18042423          	sw	zero,392(s0)
   10300:	4c4000ef          	jal	107c4 <memset>
   10304:	41018793          	addi	a5,gp,1040 # 1afb8 <__sf+0x160>
   10308:	19443c23          	sd	s4,408(s0)
   1030c:	1b343023          	sd	s3,416(s0)
   10310:	1b243423          	sd	s2,424(s0)
   10314:	1a943823          	sd	s1,432(s0)
   10318:	70a2                	ld	ra,40(sp)
   1031a:	18f43823          	sd	a5,400(s0)
   1031e:	7402                	ld	s0,32(sp)
   10320:	64e2                	ld	s1,24(sp)
   10322:	6942                	ld	s2,16(sp)
   10324:	69a2                	ld	s3,8(sp)
   10326:	6a02                	ld	s4,0(sp)
   10328:	6145                	addi	sp,sp,48
   1032a:	8082                	ret

000000000001032c <__sfp>:
   1032c:	2381b783          	ld	a5,568(gp) # 1ade0 <__stdio_exit_handler>
   10330:	7179                	addi	sp,sp,-48
   10332:	e84a                	sd	s2,16(sp)
   10334:	f406                	sd	ra,40(sp)
   10336:	f022                	sd	s0,32(sp)
   10338:	ec26                	sd	s1,24(sp)
   1033a:	e44e                	sd	s3,8(sp)
   1033c:	892a                	mv	s2,a0
   1033e:	c7cd                	beqz	a5,103e8 <__sfp+0xbc>
   10340:	64e9                	lui	s1,0x1a
   10342:	22848493          	addi	s1,s1,552 # 1a228 <__sglue>
   10346:	0b000993          	li	s3,176
   1034a:	4498                	lw	a4,8(s1)
   1034c:	6880                	ld	s0,16(s1)
   1034e:	06e05463          	blez	a4,103b6 <__sfp+0x8a>
   10352:	1702                	slli	a4,a4,0x20
   10354:	9301                	srli	a4,a4,0x20
   10356:	03370733          	mul	a4,a4,s3
   1035a:	9722                	add	a4,a4,s0
   1035c:	a029                	j	10366 <__sfp+0x3a>
   1035e:	0b040413          	addi	s0,s0,176
   10362:	04870a63          	beq	a4,s0,103b6 <__sfp+0x8a>
   10366:	01041783          	lh	a5,16(s0)
   1036a:	fbf5                	bnez	a5,1035e <__sfp+0x32>
   1036c:	77c1                	lui	a5,0xffff0
   1036e:	0785                	addi	a5,a5,1 # ffffffffffff0001 <__BSS_END__+0xfffffffffffd4c59>
   10370:	c81c                	sw	a5,16(s0)
   10372:	0a042623          	sw	zero,172(s0)
   10376:	00043023          	sd	zero,0(s0)
   1037a:	00043423          	sd	zero,8(s0)
   1037e:	00043c23          	sd	zero,24(s0)
   10382:	02042023          	sw	zero,32(s0)
   10386:	02042423          	sw	zero,40(s0)
   1038a:	4621                	li	a2,8
   1038c:	4581                	li	a1,0
   1038e:	0a440513          	addi	a0,s0,164
   10392:	432000ef          	jal	107c4 <memset>
   10396:	04043c23          	sd	zero,88(s0)
   1039a:	06042023          	sw	zero,96(s0)
   1039e:	06043c23          	sd	zero,120(s0)
   103a2:	08042023          	sw	zero,128(s0)
   103a6:	70a2                	ld	ra,40(sp)
   103a8:	8522                	mv	a0,s0
   103aa:	7402                	ld	s0,32(sp)
   103ac:	64e2                	ld	s1,24(sp)
   103ae:	6942                	ld	s2,16(sp)
   103b0:	69a2                	ld	s3,8(sp)
   103b2:	6145                	addi	sp,sp,48
   103b4:	8082                	ret
   103b6:	6080                	ld	s0,0(s1)
   103b8:	c019                	beqz	s0,103be <__sfp+0x92>
   103ba:	84a2                	mv	s1,s0
   103bc:	b779                	j	1034a <__sfp+0x1e>
   103be:	2d800593          	li	a1,728
   103c2:	854a                	mv	a0,s2
   103c4:	09b000ef          	jal	10c5e <_malloc_r>
   103c8:	842a                	mv	s0,a0
   103ca:	c115                	beqz	a0,103ee <__sfp+0xc2>
   103cc:	0561                	addi	a0,a0,24
   103ce:	4791                	li	a5,4
   103d0:	00043023          	sd	zero,0(s0)
   103d4:	c41c                	sw	a5,8(s0)
   103d6:	e808                	sd	a0,16(s0)
   103d8:	2c000613          	li	a2,704
   103dc:	4581                	li	a1,0
   103de:	3e6000ef          	jal	107c4 <memset>
   103e2:	e080                	sd	s0,0(s1)
   103e4:	84a2                	mv	s1,s0
   103e6:	b795                	j	1034a <__sfp+0x1e>
   103e8:	e41ff0ef          	jal	10228 <global_stdio_init.part.0>
   103ec:	bf91                	j	10340 <__sfp+0x14>
   103ee:	0004b023          	sd	zero,0(s1)
   103f2:	47b1                	li	a5,12
   103f4:	00f92023          	sw	a5,0(s2)
   103f8:	b77d                	j	103a6 <__sfp+0x7a>

00000000000103fa <__sinit>:
   103fa:	653c                	ld	a5,72(a0)
   103fc:	c391                	beqz	a5,10400 <__sinit+0x6>
   103fe:	8082                	ret
   10400:	2381b703          	ld	a4,568(gp) # 1ade0 <__stdio_exit_handler>
   10404:	67c1                	lui	a5,0x10
   10406:	1e078793          	addi	a5,a5,480 # 101e0 <cleanup_stdio>
   1040a:	e53c                	sd	a5,72(a0)
   1040c:	fb6d                	bnez	a4,103fe <__sinit+0x4>
   1040e:	bd29                	j	10228 <global_stdio_init.part.0>

0000000000010410 <__sfp_lock_acquire>:
   10410:	8082                	ret

0000000000010412 <__sfp_lock_release>:
   10412:	8082                	ret

0000000000010414 <__fp_lock_all>:
   10414:	6669                	lui	a2,0x1a
   10416:	65c1                	lui	a1,0x10
   10418:	22860613          	addi	a2,a2,552 # 1a228 <__sglue>
   1041c:	1c858593          	addi	a1,a1,456 # 101c8 <__fp_lock>
   10420:	4501                	li	a0,0
   10422:	a809                	j	10434 <_fwalk_sglue>

0000000000010424 <__fp_unlock_all>:
   10424:	6669                	lui	a2,0x1a
   10426:	65c1                	lui	a1,0x10
   10428:	22860613          	addi	a2,a2,552 # 1a228 <__sglue>
   1042c:	22458593          	addi	a1,a1,548 # 10224 <__fp_unlock>
   10430:	4501                	li	a0,0
   10432:	a009                	j	10434 <_fwalk_sglue>

0000000000010434 <_fwalk_sglue>:
   10434:	715d                	addi	sp,sp,-80
   10436:	f84a                	sd	s2,48(sp)
   10438:	f44e                	sd	s3,40(sp)
   1043a:	f052                	sd	s4,32(sp)
   1043c:	ec56                	sd	s5,24(sp)
   1043e:	e85a                	sd	s6,16(sp)
   10440:	e45e                	sd	s7,8(sp)
   10442:	e062                	sd	s8,0(sp)
   10444:	e486                	sd	ra,72(sp)
   10446:	e0a2                	sd	s0,64(sp)
   10448:	fc26                	sd	s1,56(sp)
   1044a:	8a2a                	mv	s4,a0
   1044c:	8b2e                	mv	s6,a1
   1044e:	89b2                	mv	s3,a2
   10450:	4901                	li	s2,0
   10452:	0b000b93          	li	s7,176
   10456:	4c05                	li	s8,1
   10458:	5afd                	li	s5,-1
   1045a:	0089a483          	lw	s1,8(s3)
   1045e:	0109b403          	ld	s0,16(s3)
   10462:	02905963          	blez	s1,10494 <_fwalk_sglue+0x60>
   10466:	1482                	slli	s1,s1,0x20
   10468:	9081                	srli	s1,s1,0x20
   1046a:	037484b3          	mul	s1,s1,s7
   1046e:	94a2                	add	s1,s1,s0
   10470:	01045783          	lhu	a5,16(s0)
   10474:	00fc7c63          	bgeu	s8,a5,1048c <_fwalk_sglue+0x58>
   10478:	01241783          	lh	a5,18(s0)
   1047c:	85a2                	mv	a1,s0
   1047e:	8552                	mv	a0,s4
   10480:	01578663          	beq	a5,s5,1048c <_fwalk_sglue+0x58>
   10484:	9b02                	jalr	s6
   10486:	01256933          	or	s2,a0,s2
   1048a:	2901                	sext.w	s2,s2
   1048c:	0b040413          	addi	s0,s0,176
   10490:	fe9410e3          	bne	s0,s1,10470 <_fwalk_sglue+0x3c>
   10494:	0009b983          	ld	s3,0(s3)
   10498:	fc0991e3          	bnez	s3,1045a <_fwalk_sglue+0x26>
   1049c:	60a6                	ld	ra,72(sp)
   1049e:	6406                	ld	s0,64(sp)
   104a0:	74e2                	ld	s1,56(sp)
   104a2:	79a2                	ld	s3,40(sp)
   104a4:	7a02                	ld	s4,32(sp)
   104a6:	6ae2                	ld	s5,24(sp)
   104a8:	6b42                	ld	s6,16(sp)
   104aa:	6ba2                	ld	s7,8(sp)
   104ac:	6c02                	ld	s8,0(sp)
   104ae:	854a                	mv	a0,s2
   104b0:	7942                	ld	s2,48(sp)
   104b2:	6161                	addi	sp,sp,80
   104b4:	8082                	ret

00000000000104b6 <_printf_r>:
   104b6:	715d                	addi	sp,sp,-80
   104b8:	f032                	sd	a2,32(sp)
   104ba:	f436                	sd	a3,40(sp)
   104bc:	f83a                	sd	a4,48(sp)
   104be:	fc3e                	sd	a5,56(sp)
   104c0:	e0c2                	sd	a6,64(sp)
   104c2:	e4c6                	sd	a7,72(sp)
   104c4:	862e                	mv	a2,a1
   104c6:	690c                	ld	a1,16(a0)
   104c8:	1014                	addi	a3,sp,32
   104ca:	ec06                	sd	ra,24(sp)
   104cc:	e436                	sd	a3,8(sp)
   104ce:	597000ef          	jal	11264 <_vfprintf_r>
   104d2:	60e2                	ld	ra,24(sp)
   104d4:	6161                	addi	sp,sp,80
   104d6:	8082                	ret

00000000000104d8 <printf>:
   104d8:	2201b303          	ld	t1,544(gp) # 1adc8 <_impure_ptr>
   104dc:	711d                	addi	sp,sp,-96
   104de:	f832                	sd	a2,48(sp)
   104e0:	fc36                	sd	a3,56(sp)
   104e2:	f42e                	sd	a1,40(sp)
   104e4:	e0ba                	sd	a4,64(sp)
   104e6:	e4be                	sd	a5,72(sp)
   104e8:	e8c2                	sd	a6,80(sp)
   104ea:	ecc6                	sd	a7,88(sp)
   104ec:	01033583          	ld	a1,16(t1) # 101a6 <main+0x6>
   104f0:	1034                	addi	a3,sp,40
   104f2:	862a                	mv	a2,a0
   104f4:	851a                	mv	a0,t1
   104f6:	ec06                	sd	ra,24(sp)
   104f8:	e436                	sd	a3,8(sp)
   104fa:	56b000ef          	jal	11264 <_vfprintf_r>
   104fe:	60e2                	ld	ra,24(sp)
   10500:	6125                	addi	sp,sp,96
   10502:	8082                	ret

0000000000010504 <__sread>:
   10504:	1141                	addi	sp,sp,-16
   10506:	e022                	sd	s0,0(sp)
   10508:	842e                	mv	s0,a1
   1050a:	01259583          	lh	a1,18(a1)
   1050e:	e406                	sd	ra,8(sp)
   10510:	1d2000ef          	jal	106e2 <_read_r>
   10514:	00054963          	bltz	a0,10526 <__sread+0x22>
   10518:	685c                	ld	a5,144(s0)
   1051a:	60a2                	ld	ra,8(sp)
   1051c:	97aa                	add	a5,a5,a0
   1051e:	e85c                	sd	a5,144(s0)
   10520:	6402                	ld	s0,0(sp)
   10522:	0141                	addi	sp,sp,16
   10524:	8082                	ret
   10526:	01045783          	lhu	a5,16(s0)
   1052a:	777d                	lui	a4,0xfffff
   1052c:	177d                	addi	a4,a4,-1 # ffffffffffffefff <__BSS_END__+0xfffffffffffe3c57>
   1052e:	8ff9                	and	a5,a5,a4
   10530:	60a2                	ld	ra,8(sp)
   10532:	00f41823          	sh	a5,16(s0)
   10536:	6402                	ld	s0,0(sp)
   10538:	0141                	addi	sp,sp,16
   1053a:	8082                	ret

000000000001053c <__seofread>:
   1053c:	4501                	li	a0,0
   1053e:	8082                	ret

0000000000010540 <__swrite>:
   10540:	01059783          	lh	a5,16(a1)
   10544:	7179                	addi	sp,sp,-48
   10546:	f022                	sd	s0,32(sp)
   10548:	ec26                	sd	s1,24(sp)
   1054a:	e84a                	sd	s2,16(sp)
   1054c:	e44e                	sd	s3,8(sp)
   1054e:	f406                	sd	ra,40(sp)
   10550:	1007f713          	andi	a4,a5,256
   10554:	842e                	mv	s0,a1
   10556:	84aa                	mv	s1,a0
   10558:	8932                	mv	s2,a2
   1055a:	89b6                	mv	s3,a3
   1055c:	e315                	bnez	a4,10580 <__swrite+0x40>
   1055e:	777d                	lui	a4,0xfffff
   10560:	177d                	addi	a4,a4,-1 # ffffffffffffefff <__BSS_END__+0xfffffffffffe3c57>
   10562:	8ff9                	and	a5,a5,a4
   10564:	01241583          	lh	a1,18(s0)
   10568:	00f41823          	sh	a5,16(s0)
   1056c:	7402                	ld	s0,32(sp)
   1056e:	70a2                	ld	ra,40(sp)
   10570:	86ce                	mv	a3,s3
   10572:	864a                	mv	a2,s2
   10574:	69a2                	ld	s3,8(sp)
   10576:	6942                	ld	s2,16(sp)
   10578:	8526                	mv	a0,s1
   1057a:	64e2                	ld	s1,24(sp)
   1057c:	6145                	addi	sp,sp,48
   1057e:	a245                	j	1071e <_write_r>
   10580:	01259583          	lh	a1,18(a1)
   10584:	4689                	li	a3,2
   10586:	4601                	li	a2,0
   10588:	11e000ef          	jal	106a6 <_lseek_r>
   1058c:	01041783          	lh	a5,16(s0)
   10590:	b7f9                	j	1055e <__swrite+0x1e>

0000000000010592 <__sseek>:
   10592:	1141                	addi	sp,sp,-16
   10594:	e022                	sd	s0,0(sp)
   10596:	842e                	mv	s0,a1
   10598:	01259583          	lh	a1,18(a1)
   1059c:	e406                	sd	ra,8(sp)
   1059e:	108000ef          	jal	106a6 <_lseek_r>
   105a2:	57fd                	li	a5,-1
   105a4:	02f50163          	beq	a0,a5,105c6 <__sseek+0x34>
   105a8:	01045783          	lhu	a5,16(s0)
   105ac:	6705                	lui	a4,0x1
   105ae:	60a2                	ld	ra,8(sp)
   105b0:	8fd9                	or	a5,a5,a4
   105b2:	0107979b          	slliw	a5,a5,0x10
   105b6:	4107d79b          	sraiw	a5,a5,0x10
   105ba:	e848                	sd	a0,144(s0)
   105bc:	00f41823          	sh	a5,16(s0)
   105c0:	6402                	ld	s0,0(sp)
   105c2:	0141                	addi	sp,sp,16
   105c4:	8082                	ret
   105c6:	01045783          	lhu	a5,16(s0)
   105ca:	777d                	lui	a4,0xfffff
   105cc:	177d                	addi	a4,a4,-1 # ffffffffffffefff <__BSS_END__+0xfffffffffffe3c57>
   105ce:	8ff9                	and	a5,a5,a4
   105d0:	0107979b          	slliw	a5,a5,0x10
   105d4:	4107d79b          	sraiw	a5,a5,0x10
   105d8:	60a2                	ld	ra,8(sp)
   105da:	00f41823          	sh	a5,16(s0)
   105de:	6402                	ld	s0,0(sp)
   105e0:	0141                	addi	sp,sp,16
   105e2:	8082                	ret

00000000000105e4 <__sclose>:
   105e4:	01259583          	lh	a1,18(a1)
   105e8:	a009                	j	105ea <_close_r>

00000000000105ea <_close_r>:
   105ea:	1101                	addi	sp,sp,-32
   105ec:	e822                	sd	s0,16(sp)
   105ee:	e426                	sd	s1,8(sp)
   105f0:	842a                	mv	s0,a0
   105f2:	852e                	mv	a0,a1
   105f4:	ec06                	sd	ra,24(sp)
   105f6:	2401a023          	sw	zero,576(gp) # 1ade8 <errno>
   105fa:	01c070ef          	jal	17616 <_close>
   105fe:	57fd                	li	a5,-1
   10600:	00f50763          	beq	a0,a5,1060e <_close_r+0x24>
   10604:	60e2                	ld	ra,24(sp)
   10606:	6442                	ld	s0,16(sp)
   10608:	64a2                	ld	s1,8(sp)
   1060a:	6105                	addi	sp,sp,32
   1060c:	8082                	ret
   1060e:	2401a783          	lw	a5,576(gp) # 1ade8 <errno>
   10612:	dbed                	beqz	a5,10604 <_close_r+0x1a>
   10614:	60e2                	ld	ra,24(sp)
   10616:	c01c                	sw	a5,0(s0)
   10618:	6442                	ld	s0,16(sp)
   1061a:	64a2                	ld	s1,8(sp)
   1061c:	6105                	addi	sp,sp,32
   1061e:	8082                	ret

0000000000010620 <_reclaim_reent>:
   10620:	2201b783          	ld	a5,544(gp) # 1adc8 <_impure_ptr>
   10624:	08a78063          	beq	a5,a0,106a4 <_reclaim_reent+0x84>
   10628:	752c                	ld	a1,104(a0)
   1062a:	7179                	addi	sp,sp,-48
   1062c:	ec26                	sd	s1,24(sp)
   1062e:	f406                	sd	ra,40(sp)
   10630:	f022                	sd	s0,32(sp)
   10632:	84aa                	mv	s1,a0
   10634:	c98d                	beqz	a1,10666 <_reclaim_reent+0x46>
   10636:	e84a                	sd	s2,16(sp)
   10638:	e44e                	sd	s3,8(sp)
   1063a:	4901                	li	s2,0
   1063c:	20000993          	li	s3,512
   10640:	012587b3          	add	a5,a1,s2
   10644:	6380                	ld	s0,0(a5)
   10646:	c801                	beqz	s0,10656 <_reclaim_reent+0x36>
   10648:	85a2                	mv	a1,s0
   1064a:	6000                	ld	s0,0(s0)
   1064c:	8526                	mv	a0,s1
   1064e:	3cc000ef          	jal	10a1a <_free_r>
   10652:	f87d                	bnez	s0,10648 <_reclaim_reent+0x28>
   10654:	74ac                	ld	a1,104(s1)
   10656:	0921                	addi	s2,s2,8
   10658:	ff3914e3          	bne	s2,s3,10640 <_reclaim_reent+0x20>
   1065c:	8526                	mv	a0,s1
   1065e:	3bc000ef          	jal	10a1a <_free_r>
   10662:	6942                	ld	s2,16(sp)
   10664:	69a2                	ld	s3,8(sp)
   10666:	68ac                	ld	a1,80(s1)
   10668:	c581                	beqz	a1,10670 <_reclaim_reent+0x50>
   1066a:	8526                	mv	a0,s1
   1066c:	3ae000ef          	jal	10a1a <_free_r>
   10670:	70a0                	ld	s0,96(s1)
   10672:	c419                	beqz	s0,10680 <_reclaim_reent+0x60>
   10674:	85a2                	mv	a1,s0
   10676:	6000                	ld	s0,0(s0)
   10678:	8526                	mv	a0,s1
   1067a:	3a0000ef          	jal	10a1a <_free_r>
   1067e:	f87d                	bnez	s0,10674 <_reclaim_reent+0x54>
   10680:	7cac                	ld	a1,120(s1)
   10682:	c581                	beqz	a1,1068a <_reclaim_reent+0x6a>
   10684:	8526                	mv	a0,s1
   10686:	394000ef          	jal	10a1a <_free_r>
   1068a:	64bc                	ld	a5,72(s1)
   1068c:	c799                	beqz	a5,1069a <_reclaim_reent+0x7a>
   1068e:	7402                	ld	s0,32(sp)
   10690:	70a2                	ld	ra,40(sp)
   10692:	8526                	mv	a0,s1
   10694:	64e2                	ld	s1,24(sp)
   10696:	6145                	addi	sp,sp,48
   10698:	8782                	jr	a5
   1069a:	70a2                	ld	ra,40(sp)
   1069c:	7402                	ld	s0,32(sp)
   1069e:	64e2                	ld	s1,24(sp)
   106a0:	6145                	addi	sp,sp,48
   106a2:	8082                	ret
   106a4:	8082                	ret

00000000000106a6 <_lseek_r>:
   106a6:	1101                	addi	sp,sp,-32
   106a8:	872e                	mv	a4,a1
   106aa:	e822                	sd	s0,16(sp)
   106ac:	e426                	sd	s1,8(sp)
   106ae:	85b2                	mv	a1,a2
   106b0:	842a                	mv	s0,a0
   106b2:	8636                	mv	a2,a3
   106b4:	853a                	mv	a0,a4
   106b6:	ec06                	sd	ra,24(sp)
   106b8:	2401a023          	sw	zero,576(gp) # 1ade8 <errno>
   106bc:	026070ef          	jal	176e2 <_lseek>
   106c0:	57fd                	li	a5,-1
   106c2:	00f50763          	beq	a0,a5,106d0 <_lseek_r+0x2a>
   106c6:	60e2                	ld	ra,24(sp)
   106c8:	6442                	ld	s0,16(sp)
   106ca:	64a2                	ld	s1,8(sp)
   106cc:	6105                	addi	sp,sp,32
   106ce:	8082                	ret
   106d0:	2401a783          	lw	a5,576(gp) # 1ade8 <errno>
   106d4:	dbed                	beqz	a5,106c6 <_lseek_r+0x20>
   106d6:	60e2                	ld	ra,24(sp)
   106d8:	c01c                	sw	a5,0(s0)
   106da:	6442                	ld	s0,16(sp)
   106dc:	64a2                	ld	s1,8(sp)
   106de:	6105                	addi	sp,sp,32
   106e0:	8082                	ret

00000000000106e2 <_read_r>:
   106e2:	1101                	addi	sp,sp,-32
   106e4:	872e                	mv	a4,a1
   106e6:	e822                	sd	s0,16(sp)
   106e8:	e426                	sd	s1,8(sp)
   106ea:	85b2                	mv	a1,a2
   106ec:	842a                	mv	s0,a0
   106ee:	8636                	mv	a2,a3
   106f0:	853a                	mv	a0,a4
   106f2:	ec06                	sd	ra,24(sp)
   106f4:	2401a023          	sw	zero,576(gp) # 1ade8 <errno>
   106f8:	016070ef          	jal	1770e <_read>
   106fc:	57fd                	li	a5,-1
   106fe:	00f50763          	beq	a0,a5,1070c <_read_r+0x2a>
   10702:	60e2                	ld	ra,24(sp)
   10704:	6442                	ld	s0,16(sp)
   10706:	64a2                	ld	s1,8(sp)
   10708:	6105                	addi	sp,sp,32
   1070a:	8082                	ret
   1070c:	2401a783          	lw	a5,576(gp) # 1ade8 <errno>
   10710:	dbed                	beqz	a5,10702 <_read_r+0x20>
   10712:	60e2                	ld	ra,24(sp)
   10714:	c01c                	sw	a5,0(s0)
   10716:	6442                	ld	s0,16(sp)
   10718:	64a2                	ld	s1,8(sp)
   1071a:	6105                	addi	sp,sp,32
   1071c:	8082                	ret

000000000001071e <_write_r>:
   1071e:	1101                	addi	sp,sp,-32
   10720:	872e                	mv	a4,a1
   10722:	e822                	sd	s0,16(sp)
   10724:	e426                	sd	s1,8(sp)
   10726:	85b2                	mv	a1,a2
   10728:	842a                	mv	s0,a0
   1072a:	8636                	mv	a2,a3
   1072c:	853a                	mv	a0,a4
   1072e:	ec06                	sd	ra,24(sp)
   10730:	2401a023          	sw	zero,576(gp) # 1ade8 <errno>
   10734:	05a070ef          	jal	1778e <_write>
   10738:	57fd                	li	a5,-1
   1073a:	00f50763          	beq	a0,a5,10748 <_write_r+0x2a>
   1073e:	60e2                	ld	ra,24(sp)
   10740:	6442                	ld	s0,16(sp)
   10742:	64a2                	ld	s1,8(sp)
   10744:	6105                	addi	sp,sp,32
   10746:	8082                	ret
   10748:	2401a783          	lw	a5,576(gp) # 1ade8 <errno>
   1074c:	dbed                	beqz	a5,1073e <_write_r+0x20>
   1074e:	60e2                	ld	ra,24(sp)
   10750:	c01c                	sw	a5,0(s0)
   10752:	6442                	ld	s0,16(sp)
   10754:	64a2                	ld	s1,8(sp)
   10756:	6105                	addi	sp,sp,32
   10758:	8082                	ret

000000000001075a <__libc_init_array>:
   1075a:	1101                	addi	sp,sp,-32
   1075c:	e822                	sd	s0,16(sp)
   1075e:	67e9                	lui	a5,0x1a
   10760:	6469                	lui	s0,0x1a
   10762:	e04a                	sd	s2,0(sp)
   10764:	20c78793          	addi	a5,a5,524 # 1a20c <__preinit_array_end>
   10768:	20c40713          	addi	a4,s0,524 # 1a20c <__preinit_array_end>
   1076c:	ec06                	sd	ra,24(sp)
   1076e:	e426                	sd	s1,8(sp)
   10770:	40e78933          	sub	s2,a5,a4
   10774:	00e78d63          	beq	a5,a4,1078e <__libc_init_array+0x34>
   10778:	40395913          	srai	s2,s2,0x3
   1077c:	20c40413          	addi	s0,s0,524
   10780:	4481                	li	s1,0
   10782:	601c                	ld	a5,0(s0)
   10784:	0485                	addi	s1,s1,1
   10786:	0421                	addi	s0,s0,8
   10788:	9782                	jalr	a5
   1078a:	ff24ece3          	bltu	s1,s2,10782 <__libc_init_array+0x28>
   1078e:	6469                	lui	s0,0x1a
   10790:	67e9                	lui	a5,0x1a
   10792:	22078793          	addi	a5,a5,544 # 1a220 <__do_global_dtors_aux_fini_array_entry>
   10796:	21040713          	addi	a4,s0,528 # 1a210 <__init_array_start>
   1079a:	40e78933          	sub	s2,a5,a4
   1079e:	40395913          	srai	s2,s2,0x3
   107a2:	00e78b63          	beq	a5,a4,107b8 <__libc_init_array+0x5e>
   107a6:	21040413          	addi	s0,s0,528
   107aa:	4481                	li	s1,0
   107ac:	601c                	ld	a5,0(s0)
   107ae:	0485                	addi	s1,s1,1
   107b0:	0421                	addi	s0,s0,8
   107b2:	9782                	jalr	a5
   107b4:	ff24ece3          	bltu	s1,s2,107ac <__libc_init_array+0x52>
   107b8:	60e2                	ld	ra,24(sp)
   107ba:	6442                	ld	s0,16(sp)
   107bc:	64a2                	ld	s1,8(sp)
   107be:	6902                	ld	s2,0(sp)
   107c0:	6105                	addi	sp,sp,32
   107c2:	8082                	ret

00000000000107c4 <memset>:
   107c4:	433d                	li	t1,15
   107c6:	872a                	mv	a4,a0
   107c8:	02c37163          	bgeu	t1,a2,107ea <memset+0x26>
   107cc:	00f77793          	andi	a5,a4,15
   107d0:	e3c1                	bnez	a5,10850 <memset+0x8c>
   107d2:	e1bd                	bnez	a1,10838 <memset+0x74>
   107d4:	ff067693          	andi	a3,a2,-16
   107d8:	8a3d                	andi	a2,a2,15
   107da:	96ba                	add	a3,a3,a4
   107dc:	e30c                	sd	a1,0(a4)
   107de:	e70c                	sd	a1,8(a4)
   107e0:	0741                	addi	a4,a4,16
   107e2:	fed76de3          	bltu	a4,a3,107dc <memset+0x18>
   107e6:	e211                	bnez	a2,107ea <memset+0x26>
   107e8:	8082                	ret
   107ea:	40c306b3          	sub	a3,t1,a2
   107ee:	068a                	slli	a3,a3,0x2
   107f0:	00000297          	auipc	t0,0x0
   107f4:	9696                	add	a3,a3,t0
   107f6:	00a68067          	jr	10(a3)
   107fa:	00b70723          	sb	a1,14(a4)
   107fe:	00b706a3          	sb	a1,13(a4)
   10802:	00b70623          	sb	a1,12(a4)
   10806:	00b705a3          	sb	a1,11(a4)
   1080a:	00b70523          	sb	a1,10(a4)
   1080e:	00b704a3          	sb	a1,9(a4)
   10812:	00b70423          	sb	a1,8(a4)
   10816:	00b703a3          	sb	a1,7(a4)
   1081a:	00b70323          	sb	a1,6(a4)
   1081e:	00b702a3          	sb	a1,5(a4)
   10822:	00b70223          	sb	a1,4(a4)
   10826:	00b701a3          	sb	a1,3(a4)
   1082a:	00b70123          	sb	a1,2(a4)
   1082e:	00b700a3          	sb	a1,1(a4)
   10832:	00b70023          	sb	a1,0(a4)
   10836:	8082                	ret
   10838:	0ff5f593          	zext.b	a1,a1
   1083c:	00859693          	slli	a3,a1,0x8
   10840:	8dd5                	or	a1,a1,a3
   10842:	01059693          	slli	a3,a1,0x10
   10846:	8dd5                	or	a1,a1,a3
   10848:	02059693          	slli	a3,a1,0x20
   1084c:	8dd5                	or	a1,a1,a3
   1084e:	b759                	j	107d4 <memset+0x10>
   10850:	00279693          	slli	a3,a5,0x2
   10854:	00000297          	auipc	t0,0x0
   10858:	9696                	add	a3,a3,t0
   1085a:	8286                	mv	t0,ra
   1085c:	fa2680e7          	jalr	-94(a3)
   10860:	8096                	mv	ra,t0
   10862:	17c1                	addi	a5,a5,-16
   10864:	8f1d                	sub	a4,a4,a5
   10866:	963e                	add	a2,a2,a5
   10868:	f8c371e3          	bgeu	t1,a2,107ea <memset+0x26>
   1086c:	b79d                	j	107d2 <memset+0xe>

000000000001086e <__call_exitprocs>:
   1086e:	715d                	addi	sp,sp,-80
   10870:	f052                	sd	s4,32(sp)
   10872:	f84a                	sd	s2,48(sp)
   10874:	2481b903          	ld	s2,584(gp) # 1adf0 <__atexit>
   10878:	e486                	sd	ra,72(sp)
   1087a:	06090d63          	beqz	s2,108f4 <__call_exitprocs+0x86>
   1087e:	f44e                	sd	s3,40(sp)
   10880:	ec56                	sd	s5,24(sp)
   10882:	e85a                	sd	s6,16(sp)
   10884:	e45e                	sd	s7,8(sp)
   10886:	e0a2                	sd	s0,64(sp)
   10888:	fc26                	sd	s1,56(sp)
   1088a:	e062                	sd	s8,0(sp)
   1088c:	8b2a                	mv	s6,a0
   1088e:	8bae                	mv	s7,a1
   10890:	59fd                	li	s3,-1
   10892:	4a85                	li	s5,1
   10894:	00892483          	lw	s1,8(s2)
   10898:	fff4841b          	addiw	s0,s1,-1
   1089c:	04044563          	bltz	s0,108e6 <__call_exitprocs+0x78>
   108a0:	048e                	slli	s1,s1,0x3
   108a2:	94ca                	add	s1,s1,s2
   108a4:	040b9d63          	bnez	s7,108fe <__call_exitprocs+0x90>
   108a8:	00892783          	lw	a5,8(s2)
   108ac:	6498                	ld	a4,8(s1)
   108ae:	37fd                	addiw	a5,a5,-1
   108b0:	08878263          	beq	a5,s0,10934 <__call_exitprocs+0xc6>
   108b4:	0004b423          	sd	zero,8(s1)
   108b8:	c31d                	beqz	a4,108de <__call_exitprocs+0x70>
   108ba:	31092783          	lw	a5,784(s2)
   108be:	008a96bb          	sllw	a3,s5,s0
   108c2:	00892c03          	lw	s8,8(s2)
   108c6:	8ff5                	and	a5,a5,a3
   108c8:	2781                	sext.w	a5,a5
   108ca:	e3b9                	bnez	a5,10910 <__call_exitprocs+0xa2>
   108cc:	9702                	jalr	a4
   108ce:	00892703          	lw	a4,8(s2)
   108d2:	2481b783          	ld	a5,584(gp) # 1adf0 <__atexit>
   108d6:	05871c63          	bne	a4,s8,1092e <__call_exitprocs+0xc0>
   108da:	05279a63          	bne	a5,s2,1092e <__call_exitprocs+0xc0>
   108de:	347d                	addiw	s0,s0,-1
   108e0:	14e1                	addi	s1,s1,-8
   108e2:	fd3411e3          	bne	s0,s3,108a4 <__call_exitprocs+0x36>
   108e6:	6406                	ld	s0,64(sp)
   108e8:	74e2                	ld	s1,56(sp)
   108ea:	79a2                	ld	s3,40(sp)
   108ec:	6ae2                	ld	s5,24(sp)
   108ee:	6b42                	ld	s6,16(sp)
   108f0:	6ba2                	ld	s7,8(sp)
   108f2:	6c02                	ld	s8,0(sp)
   108f4:	60a6                	ld	ra,72(sp)
   108f6:	7942                	ld	s2,48(sp)
   108f8:	7a02                	ld	s4,32(sp)
   108fa:	6161                	addi	sp,sp,80
   108fc:	8082                	ret
   108fe:	2084b783          	ld	a5,520(s1)
   10902:	fb7783e3          	beq	a5,s7,108a8 <__call_exitprocs+0x3a>
   10906:	347d                	addiw	s0,s0,-1
   10908:	14e1                	addi	s1,s1,-8
   1090a:	ff341ae3          	bne	s0,s3,108fe <__call_exitprocs+0x90>
   1090e:	bfe1                	j	108e6 <__call_exitprocs+0x78>
   10910:	31492783          	lw	a5,788(s2)
   10914:	1084b583          	ld	a1,264(s1)
   10918:	8ff5                	and	a5,a5,a3
   1091a:	2781                	sext.w	a5,a5
   1091c:	ef99                	bnez	a5,1093a <__call_exitprocs+0xcc>
   1091e:	855a                	mv	a0,s6
   10920:	9702                	jalr	a4
   10922:	00892703          	lw	a4,8(s2)
   10926:	2481b783          	ld	a5,584(gp) # 1adf0 <__atexit>
   1092a:	fb8708e3          	beq	a4,s8,108da <__call_exitprocs+0x6c>
   1092e:	dfc5                	beqz	a5,108e6 <__call_exitprocs+0x78>
   10930:	893e                	mv	s2,a5
   10932:	b78d                	j	10894 <__call_exitprocs+0x26>
   10934:	00892423          	sw	s0,8(s2)
   10938:	b741                	j	108b8 <__call_exitprocs+0x4a>
   1093a:	852e                	mv	a0,a1
   1093c:	9702                	jalr	a4
   1093e:	bf41                	j	108ce <__call_exitprocs+0x60>

0000000000010940 <atexit>:
   10940:	85aa                	mv	a1,a0
   10942:	4681                	li	a3,0
   10944:	4601                	li	a2,0
   10946:	4501                	li	a0,0
   10948:	1660306f          	j	13aae <__register_exitproc>

000000000001094c <_malloc_trim_r>:
   1094c:	7179                	addi	sp,sp,-48
   1094e:	e44e                	sd	s3,8(sp)
   10950:	69e9                	lui	s3,0x1a
   10952:	f022                	sd	s0,32(sp)
   10954:	ec26                	sd	s1,24(sp)
   10956:	e84a                	sd	s2,16(sp)
   10958:	e052                	sd	s4,0(sp)
   1095a:	f406                	sd	ra,40(sp)
   1095c:	8a2e                	mv	s4,a1
   1095e:	892a                	mv	s2,a0
   10960:	39898993          	addi	s3,s3,920 # 1a398 <__malloc_av_>
   10964:	0fd000ef          	jal	11260 <__malloc_lock>
   10968:	0109b703          	ld	a4,16(s3)
   1096c:	6785                	lui	a5,0x1
   1096e:	fdf78793          	addi	a5,a5,-33 # fdf <exit-0xf109>
   10972:	6704                	ld	s1,8(a4)
   10974:	6705                	lui	a4,0x1
   10976:	98f1                	andi	s1,s1,-4
   10978:	00f48433          	add	s0,s1,a5
   1097c:	41440433          	sub	s0,s0,s4
   10980:	8031                	srli	s0,s0,0xc
   10982:	147d                	addi	s0,s0,-1
   10984:	0432                	slli	s0,s0,0xc
   10986:	00e44b63          	blt	s0,a4,1099c <_malloc_trim_r+0x50>
   1098a:	4581                	li	a1,0
   1098c:	854a                	mv	a0,s2
   1098e:	54d020ef          	jal	136da <_sbrk_r>
   10992:	0109b783          	ld	a5,16(s3)
   10996:	97a6                	add	a5,a5,s1
   10998:	00f50e63          	beq	a0,a5,109b4 <_malloc_trim_r+0x68>
   1099c:	854a                	mv	a0,s2
   1099e:	0c5000ef          	jal	11262 <__malloc_unlock>
   109a2:	70a2                	ld	ra,40(sp)
   109a4:	7402                	ld	s0,32(sp)
   109a6:	64e2                	ld	s1,24(sp)
   109a8:	6942                	ld	s2,16(sp)
   109aa:	69a2                	ld	s3,8(sp)
   109ac:	6a02                	ld	s4,0(sp)
   109ae:	4501                	li	a0,0
   109b0:	6145                	addi	sp,sp,48
   109b2:	8082                	ret
   109b4:	408005b3          	neg	a1,s0
   109b8:	854a                	mv	a0,s2
   109ba:	521020ef          	jal	136da <_sbrk_r>
   109be:	57fd                	li	a5,-1
   109c0:	02f50963          	beq	a0,a5,109f2 <_malloc_trim_r+0xa6>
   109c4:	4c018793          	addi	a5,gp,1216 # 1b068 <__malloc_current_mallinfo>
   109c8:	4398                	lw	a4,0(a5)
   109ca:	0109b683          	ld	a3,16(s3)
   109ce:	8c81                	sub	s1,s1,s0
   109d0:	0014e493          	ori	s1,s1,1
   109d4:	9f01                	subw	a4,a4,s0
   109d6:	854a                	mv	a0,s2
   109d8:	e684                	sd	s1,8(a3)
   109da:	c398                	sw	a4,0(a5)
   109dc:	087000ef          	jal	11262 <__malloc_unlock>
   109e0:	70a2                	ld	ra,40(sp)
   109e2:	7402                	ld	s0,32(sp)
   109e4:	64e2                	ld	s1,24(sp)
   109e6:	6942                	ld	s2,16(sp)
   109e8:	69a2                	ld	s3,8(sp)
   109ea:	6a02                	ld	s4,0(sp)
   109ec:	4505                	li	a0,1
   109ee:	6145                	addi	sp,sp,48
   109f0:	8082                	ret
   109f2:	4581                	li	a1,0
   109f4:	854a                	mv	a0,s2
   109f6:	4e5020ef          	jal	136da <_sbrk_r>
   109fa:	0109b703          	ld	a4,16(s3)
   109fe:	46fd                	li	a3,31
   10a00:	40e507b3          	sub	a5,a0,a4
   10a04:	f8f6dce3          	bge	a3,a5,1099c <_malloc_trim_r+0x50>
   10a08:	2281b683          	ld	a3,552(gp) # 1add0 <__malloc_sbrk_base>
   10a0c:	0017e793          	ori	a5,a5,1
   10a10:	e71c                	sd	a5,8(a4)
   10a12:	8d15                	sub	a0,a0,a3
   10a14:	4ca1a023          	sw	a0,1216(gp) # 1b068 <__malloc_current_mallinfo>
   10a18:	b751                	j	1099c <_malloc_trim_r+0x50>

0000000000010a1a <_free_r>:
   10a1a:	12058163          	beqz	a1,10b3c <_free_r+0x122>
   10a1e:	1101                	addi	sp,sp,-32
   10a20:	e822                	sd	s0,16(sp)
   10a22:	e426                	sd	s1,8(sp)
   10a24:	842e                	mv	s0,a1
   10a26:	84aa                	mv	s1,a0
   10a28:	ec06                	sd	ra,24(sp)
   10a2a:	037000ef          	jal	11260 <__malloc_lock>
   10a2e:	ff843503          	ld	a0,-8(s0)
   10a32:	ff040713          	addi	a4,s0,-16
   10a36:	65e9                	lui	a1,0x1a
   10a38:	ffe57793          	andi	a5,a0,-2
   10a3c:	00f70633          	add	a2,a4,a5
   10a40:	39858593          	addi	a1,a1,920 # 1a398 <__malloc_av_>
   10a44:	6614                	ld	a3,8(a2)
   10a46:	0105b803          	ld	a6,16(a1)
   10a4a:	9af1                	andi	a3,a3,-4
   10a4c:	12c80a63          	beq	a6,a2,10b80 <_free_r+0x166>
   10a50:	e614                	sd	a3,8(a2)
   10a52:	8905                	andi	a0,a0,1
   10a54:	00d60833          	add	a6,a2,a3
   10a58:	ed3d                	bnez	a0,10ad6 <_free_r+0xbc>
   10a5a:	ff043303          	ld	t1,-16(s0)
   10a5e:	00883803          	ld	a6,8(a6)
   10a62:	6569                	lui	a0,0x1a
   10a64:	40670733          	sub	a4,a4,t1
   10a68:	01073883          	ld	a7,16(a4) # 1010 <exit-0xf0d8>
   10a6c:	3a850513          	addi	a0,a0,936 # 1a3a8 <__malloc_av_+0x10>
   10a70:	979a                	add	a5,a5,t1
   10a72:	00187813          	andi	a6,a6,1
   10a76:	0ea88863          	beq	a7,a0,10b66 <_free_r+0x14c>
   10a7a:	01873303          	ld	t1,24(a4)
   10a7e:	0068bc23          	sd	t1,24(a7)
   10a82:	01133823          	sd	a7,16(t1)
   10a86:	12080663          	beqz	a6,10bb2 <_free_r+0x198>
   10a8a:	0017e693          	ori	a3,a5,1
   10a8e:	e714                	sd	a3,8(a4)
   10a90:	e21c                	sd	a5,0(a2)
   10a92:	1ff00693          	li	a3,511
   10a96:	04f6ed63          	bltu	a3,a5,10af0 <_free_r+0xd6>
   10a9a:	838d                	srli	a5,a5,0x3
   10a9c:	0017869b          	addiw	a3,a5,1
   10aa0:	0016969b          	slliw	a3,a3,0x1
   10aa4:	068e                	slli	a3,a3,0x3
   10aa6:	0085b803          	ld	a6,8(a1)
   10aaa:	96ae                	add	a3,a3,a1
   10aac:	6288                	ld	a0,0(a3)
   10aae:	4027d61b          	sraiw	a2,a5,0x2
   10ab2:	4785                	li	a5,1
   10ab4:	00c797b3          	sll	a5,a5,a2
   10ab8:	0107e7b3          	or	a5,a5,a6
   10abc:	ff068613          	addi	a2,a3,-16
   10ac0:	ef10                	sd	a2,24(a4)
   10ac2:	eb08                	sd	a0,16(a4)
   10ac4:	e59c                	sd	a5,8(a1)
   10ac6:	e298                	sd	a4,0(a3)
   10ac8:	ed18                	sd	a4,24(a0)
   10aca:	6442                	ld	s0,16(sp)
   10acc:	60e2                	ld	ra,24(sp)
   10ace:	8526                	mv	a0,s1
   10ad0:	64a2                	ld	s1,8(sp)
   10ad2:	6105                	addi	sp,sp,32
   10ad4:	a779                	j	11262 <__malloc_unlock>
   10ad6:	00883503          	ld	a0,8(a6)
   10ada:	8905                	andi	a0,a0,1
   10adc:	c12d                	beqz	a0,10b3e <_free_r+0x124>
   10ade:	0017e693          	ori	a3,a5,1
   10ae2:	fed43c23          	sd	a3,-8(s0)
   10ae6:	e21c                	sd	a5,0(a2)
   10ae8:	1ff00693          	li	a3,511
   10aec:	faf6f7e3          	bgeu	a3,a5,10a9a <_free_r+0x80>
   10af0:	0097d693          	srli	a3,a5,0x9
   10af4:	4611                	li	a2,4
   10af6:	0cd66063          	bltu	a2,a3,10bb6 <_free_r+0x19c>
   10afa:	0067d693          	srli	a3,a5,0x6
   10afe:	0396851b          	addiw	a0,a3,57
   10b02:	0015151b          	slliw	a0,a0,0x1
   10b06:	0386861b          	addiw	a2,a3,56
   10b0a:	050e                	slli	a0,a0,0x3
   10b0c:	952e                	add	a0,a0,a1
   10b0e:	6114                	ld	a3,0(a0)
   10b10:	1541                	addi	a0,a0,-16
   10b12:	00d51663          	bne	a0,a3,10b1e <_free_r+0x104>
   10b16:	a0dd                	j	10bfc <_free_r+0x1e2>
   10b18:	6a94                	ld	a3,16(a3)
   10b1a:	00d50663          	beq	a0,a3,10b26 <_free_r+0x10c>
   10b1e:	6690                	ld	a2,8(a3)
   10b20:	9a71                	andi	a2,a2,-4
   10b22:	fec7ebe3          	bltu	a5,a2,10b18 <_free_r+0xfe>
   10b26:	6e88                	ld	a0,24(a3)
   10b28:	ef08                	sd	a0,24(a4)
   10b2a:	eb14                	sd	a3,16(a4)
   10b2c:	6442                	ld	s0,16(sp)
   10b2e:	e918                	sd	a4,16(a0)
   10b30:	60e2                	ld	ra,24(sp)
   10b32:	8526                	mv	a0,s1
   10b34:	64a2                	ld	s1,8(sp)
   10b36:	ee98                	sd	a4,24(a3)
   10b38:	6105                	addi	sp,sp,32
   10b3a:	a725                	j	11262 <__malloc_unlock>
   10b3c:	8082                	ret
   10b3e:	6569                	lui	a0,0x1a
   10b40:	97b6                	add	a5,a5,a3
   10b42:	3a850513          	addi	a0,a0,936 # 1a3a8 <__malloc_av_+0x10>
   10b46:	6a14                	ld	a3,16(a2)
   10b48:	0aa68063          	beq	a3,a0,10be8 <_free_r+0x1ce>
   10b4c:	01863803          	ld	a6,24(a2)
   10b50:	0017e513          	ori	a0,a5,1
   10b54:	00f70633          	add	a2,a4,a5
   10b58:	0106bc23          	sd	a6,24(a3)
   10b5c:	00d83823          	sd	a3,16(a6)
   10b60:	e708                	sd	a0,8(a4)
   10b62:	e21c                	sd	a5,0(a2)
   10b64:	b73d                	j	10a92 <_free_r+0x78>
   10b66:	0e081763          	bnez	a6,10c54 <_free_r+0x23a>
   10b6a:	6a0c                	ld	a1,16(a2)
   10b6c:	6e10                	ld	a2,24(a2)
   10b6e:	96be                	add	a3,a3,a5
   10b70:	0016e793          	ori	a5,a3,1
   10b74:	ed90                	sd	a2,24(a1)
   10b76:	ea0c                	sd	a1,16(a2)
   10b78:	e71c                	sd	a5,8(a4)
   10b7a:	9736                	add	a4,a4,a3
   10b7c:	e314                	sd	a3,0(a4)
   10b7e:	b7b1                	j	10aca <_free_r+0xb0>
   10b80:	8905                	andi	a0,a0,1
   10b82:	96be                	add	a3,a3,a5
   10b84:	e909                	bnez	a0,10b96 <_free_r+0x17c>
   10b86:	ff043503          	ld	a0,-16(s0)
   10b8a:	8f09                	sub	a4,a4,a0
   10b8c:	6f1c                	ld	a5,24(a4)
   10b8e:	6b10                	ld	a2,16(a4)
   10b90:	96aa                	add	a3,a3,a0
   10b92:	ee1c                	sd	a5,24(a2)
   10b94:	eb90                	sd	a2,16(a5)
   10b96:	0016e613          	ori	a2,a3,1
   10b9a:	2301b783          	ld	a5,560(gp) # 1add8 <__malloc_trim_threshold>
   10b9e:	e710                	sd	a2,8(a4)
   10ba0:	e998                	sd	a4,16(a1)
   10ba2:	f2f6e4e3          	bltu	a3,a5,10aca <_free_r+0xb0>
   10ba6:	2601b583          	ld	a1,608(gp) # 1ae08 <__malloc_top_pad>
   10baa:	8526                	mv	a0,s1
   10bac:	da1ff0ef          	jal	1094c <_malloc_trim_r>
   10bb0:	bf29                	j	10aca <_free_r+0xb0>
   10bb2:	97b6                	add	a5,a5,a3
   10bb4:	bf49                	j	10b46 <_free_r+0x12c>
   10bb6:	4651                	li	a2,20
   10bb8:	02d67063          	bgeu	a2,a3,10bd8 <_free_r+0x1be>
   10bbc:	05400613          	li	a2,84
   10bc0:	04d66963          	bltu	a2,a3,10c12 <_free_r+0x1f8>
   10bc4:	00c7d693          	srli	a3,a5,0xc
   10bc8:	06f6851b          	addiw	a0,a3,111
   10bcc:	0015151b          	slliw	a0,a0,0x1
   10bd0:	06e6861b          	addiw	a2,a3,110
   10bd4:	050e                	slli	a0,a0,0x3
   10bd6:	bf1d                	j	10b0c <_free_r+0xf2>
   10bd8:	05c6851b          	addiw	a0,a3,92
   10bdc:	0015151b          	slliw	a0,a0,0x1
   10be0:	05b6861b          	addiw	a2,a3,91
   10be4:	050e                	slli	a0,a0,0x3
   10be6:	b71d                	j	10b0c <_free_r+0xf2>
   10be8:	f598                	sd	a4,40(a1)
   10bea:	f198                	sd	a4,32(a1)
   10bec:	0017e693          	ori	a3,a5,1
   10bf0:	ef08                	sd	a0,24(a4)
   10bf2:	eb08                	sd	a0,16(a4)
   10bf4:	e714                	sd	a3,8(a4)
   10bf6:	973e                	add	a4,a4,a5
   10bf8:	e31c                	sd	a5,0(a4)
   10bfa:	bdc1                	j	10aca <_free_r+0xb0>
   10bfc:	0085b803          	ld	a6,8(a1)
   10c00:	4026561b          	sraiw	a2,a2,0x2
   10c04:	4785                	li	a5,1
   10c06:	00c797b3          	sll	a5,a5,a2
   10c0a:	0107e7b3          	or	a5,a5,a6
   10c0e:	e59c                	sd	a5,8(a1)
   10c10:	bf21                	j	10b28 <_free_r+0x10e>
   10c12:	15400613          	li	a2,340
   10c16:	00d66c63          	bltu	a2,a3,10c2e <_free_r+0x214>
   10c1a:	00f7d693          	srli	a3,a5,0xf
   10c1e:	0786851b          	addiw	a0,a3,120
   10c22:	0015151b          	slliw	a0,a0,0x1
   10c26:	0776861b          	addiw	a2,a3,119
   10c2a:	050e                	slli	a0,a0,0x3
   10c2c:	b5c5                	j	10b0c <_free_r+0xf2>
   10c2e:	55400613          	li	a2,1364
   10c32:	00d66c63          	bltu	a2,a3,10c4a <_free_r+0x230>
   10c36:	0127d693          	srli	a3,a5,0x12
   10c3a:	07d6851b          	addiw	a0,a3,125
   10c3e:	0015151b          	slliw	a0,a0,0x1
   10c42:	07c6861b          	addiw	a2,a3,124
   10c46:	050e                	slli	a0,a0,0x3
   10c48:	b5d1                	j	10b0c <_free_r+0xf2>
   10c4a:	7f000513          	li	a0,2032
   10c4e:	07e00613          	li	a2,126
   10c52:	bd6d                	j	10b0c <_free_r+0xf2>
   10c54:	0017e693          	ori	a3,a5,1
   10c58:	e714                	sd	a3,8(a4)
   10c5a:	e21c                	sd	a5,0(a2)
   10c5c:	b5bd                	j	10aca <_free_r+0xb0>

0000000000010c5e <_malloc_r>:
   10c5e:	711d                	addi	sp,sp,-96
   10c60:	e4a6                	sd	s1,72(sp)
   10c62:	e0ca                	sd	s2,64(sp)
   10c64:	ec86                	sd	ra,88(sp)
   10c66:	e8a2                	sd	s0,80(sp)
   10c68:	fc4e                	sd	s3,56(sp)
   10c6a:	01758493          	addi	s1,a1,23
   10c6e:	02e00793          	li	a5,46
   10c72:	892a                	mv	s2,a0
   10c74:	0497ed63          	bltu	a5,s1,10cce <_malloc_r+0x70>
   10c78:	02000793          	li	a5,32
   10c7c:	18b7e963          	bltu	a5,a1,10e0e <_malloc_r+0x1b0>
   10c80:	5e0000ef          	jal	11260 <__malloc_lock>
   10c84:	05000793          	li	a5,80
   10c88:	4591                	li	a1,4
   10c8a:	02000493          	li	s1,32
   10c8e:	69e9                	lui	s3,0x1a
   10c90:	39898993          	addi	s3,s3,920 # 1a398 <__malloc_av_>
   10c94:	97ce                	add	a5,a5,s3
   10c96:	6780                	ld	s0,8(a5)
   10c98:	ff078713          	addi	a4,a5,-16
   10c9c:	26e40d63          	beq	s0,a4,10f16 <_malloc_r+0x2b8>
   10ca0:	641c                	ld	a5,8(s0)
   10ca2:	6c14                	ld	a3,24(s0)
   10ca4:	6810                	ld	a2,16(s0)
   10ca6:	9bf1                	andi	a5,a5,-4
   10ca8:	97a2                	add	a5,a5,s0
   10caa:	6798                	ld	a4,8(a5)
   10cac:	ee14                	sd	a3,24(a2)
   10cae:	ea90                	sd	a2,16(a3)
   10cb0:	00176713          	ori	a4,a4,1
   10cb4:	854a                	mv	a0,s2
   10cb6:	e798                	sd	a4,8(a5)
   10cb8:	5aa000ef          	jal	11262 <__malloc_unlock>
   10cbc:	01040513          	addi	a0,s0,16
   10cc0:	60e6                	ld	ra,88(sp)
   10cc2:	6446                	ld	s0,80(sp)
   10cc4:	64a6                	ld	s1,72(sp)
   10cc6:	6906                	ld	s2,64(sp)
   10cc8:	79e2                	ld	s3,56(sp)
   10cca:	6125                	addi	sp,sp,96
   10ccc:	8082                	ret
   10cce:	800007b7          	lui	a5,0x80000
   10cd2:	98c1                	andi	s1,s1,-16
   10cd4:	fff7c793          	not	a5,a5
   10cd8:	1297eb63          	bltu	a5,s1,10e0e <_malloc_r+0x1b0>
   10cdc:	12b4e963          	bltu	s1,a1,10e0e <_malloc_r+0x1b0>
   10ce0:	580000ef          	jal	11260 <__malloc_lock>
   10ce4:	1f700793          	li	a5,503
   10ce8:	3297f263          	bgeu	a5,s1,1100c <_malloc_r+0x3ae>
   10cec:	0094d793          	srli	a5,s1,0x9
   10cf0:	12078463          	beqz	a5,10e18 <_malloc_r+0x1ba>
   10cf4:	4711                	li	a4,4
   10cf6:	26f76763          	bltu	a4,a5,10f64 <_malloc_r+0x306>
   10cfa:	0064d793          	srli	a5,s1,0x6
   10cfe:	0397859b          	addiw	a1,a5,57 # ffffffff80000039 <__BSS_END__+0xffffffff7ffe4c91>
   10d02:	0015961b          	slliw	a2,a1,0x1
   10d06:	0387881b          	addiw	a6,a5,56
   10d0a:	060e                	slli	a2,a2,0x3
   10d0c:	69e9                	lui	s3,0x1a
   10d0e:	39898993          	addi	s3,s3,920 # 1a398 <__malloc_av_>
   10d12:	964e                	add	a2,a2,s3
   10d14:	6600                	ld	s0,8(a2)
   10d16:	1641                	addi	a2,a2,-16
   10d18:	02860163          	beq	a2,s0,10d3a <_malloc_r+0xdc>
   10d1c:	457d                	li	a0,31
   10d1e:	a039                	j	10d2c <_malloc_r+0xce>
   10d20:	6c14                	ld	a3,24(s0)
   10d22:	1e075863          	bgez	a4,10f12 <_malloc_r+0x2b4>
   10d26:	00d60a63          	beq	a2,a3,10d3a <_malloc_r+0xdc>
   10d2a:	8436                	mv	s0,a3
   10d2c:	641c                	ld	a5,8(s0)
   10d2e:	9bf1                	andi	a5,a5,-4
   10d30:	40978733          	sub	a4,a5,s1
   10d34:	fee556e3          	bge	a0,a4,10d20 <_malloc_r+0xc2>
   10d38:	85c2                	mv	a1,a6
   10d3a:	0209b403          	ld	s0,32(s3)
   10d3e:	6869                	lui	a6,0x1a
   10d40:	3a880813          	addi	a6,a6,936 # 1a3a8 <__malloc_av_+0x10>
   10d44:	1d040463          	beq	s0,a6,10f0c <_malloc_r+0x2ae>
   10d48:	641c                	ld	a5,8(s0)
   10d4a:	46fd                	li	a3,31
   10d4c:	9bf1                	andi	a5,a5,-4
   10d4e:	40978733          	sub	a4,a5,s1
   10d52:	28e6c663          	blt	a3,a4,10fde <_malloc_r+0x380>
   10d56:	0309b423          	sd	a6,40(s3)
   10d5a:	0309b023          	sd	a6,32(s3)
   10d5e:	26075563          	bgez	a4,10fc8 <_malloc_r+0x36a>
   10d62:	1ff00713          	li	a4,511
   10d66:	0089b503          	ld	a0,8(s3)
   10d6a:	1af76b63          	bltu	a4,a5,10f20 <_malloc_r+0x2c2>
   10d6e:	838d                	srli	a5,a5,0x3
   10d70:	0017871b          	addiw	a4,a5,1
   10d74:	0017171b          	slliw	a4,a4,0x1
   10d78:	070e                	slli	a4,a4,0x3
   10d7a:	974e                	add	a4,a4,s3
   10d7c:	6310                	ld	a2,0(a4)
   10d7e:	4027d79b          	sraiw	a5,a5,0x2
   10d82:	4685                	li	a3,1
   10d84:	00f697b3          	sll	a5,a3,a5
   10d88:	8d5d                	or	a0,a0,a5
   10d8a:	ff070793          	addi	a5,a4,-16
   10d8e:	ec1c                	sd	a5,24(s0)
   10d90:	e810                	sd	a2,16(s0)
   10d92:	00a9b423          	sd	a0,8(s3)
   10d96:	e300                	sd	s0,0(a4)
   10d98:	ee00                	sd	s0,24(a2)
   10d9a:	4025d79b          	sraiw	a5,a1,0x2
   10d9e:	4605                	li	a2,1
   10da0:	00f61633          	sll	a2,a2,a5
   10da4:	08c56163          	bltu	a0,a2,10e26 <_malloc_r+0x1c8>
   10da8:	00a677b3          	and	a5,a2,a0
   10dac:	ef81                	bnez	a5,10dc4 <_malloc_r+0x166>
   10dae:	0606                	slli	a2,a2,0x1
   10db0:	99f1                	andi	a1,a1,-4
   10db2:	00a677b3          	and	a5,a2,a0
   10db6:	2591                	addiw	a1,a1,4
   10db8:	e791                	bnez	a5,10dc4 <_malloc_r+0x166>
   10dba:	0606                	slli	a2,a2,0x1
   10dbc:	00a677b3          	and	a5,a2,a0
   10dc0:	2591                	addiw	a1,a1,4
   10dc2:	dfe5                	beqz	a5,10dba <_malloc_r+0x15c>
   10dc4:	48fd                	li	a7,31
   10dc6:	0015831b          	addiw	t1,a1,1
   10dca:	0013131b          	slliw	t1,t1,0x1
   10dce:	030e                	slli	t1,t1,0x3
   10dd0:	1341                	addi	t1,t1,-16
   10dd2:	934e                	add	t1,t1,s3
   10dd4:	851a                	mv	a0,t1
   10dd6:	6d1c                	ld	a5,24(a0)
   10dd8:	8e2e                	mv	t3,a1
   10dda:	1af50663          	beq	a0,a5,10f86 <_malloc_r+0x328>
   10dde:	6798                	ld	a4,8(a5)
   10de0:	843e                	mv	s0,a5
   10de2:	6f9c                	ld	a5,24(a5)
   10de4:	9b71                	andi	a4,a4,-4
   10de6:	409706b3          	sub	a3,a4,s1
   10dea:	1ad8c563          	blt	a7,a3,10f94 <_malloc_r+0x336>
   10dee:	fe06c6e3          	bltz	a3,10dda <_malloc_r+0x17c>
   10df2:	9722                	add	a4,a4,s0
   10df4:	6714                	ld	a3,8(a4)
   10df6:	6810                	ld	a2,16(s0)
   10df8:	854a                	mv	a0,s2
   10dfa:	0016e693          	ori	a3,a3,1
   10dfe:	e714                	sd	a3,8(a4)
   10e00:	ee1c                	sd	a5,24(a2)
   10e02:	eb90                	sd	a2,16(a5)
   10e04:	45e000ef          	jal	11262 <__malloc_unlock>
   10e08:	01040513          	addi	a0,s0,16
   10e0c:	bd55                	j	10cc0 <_malloc_r+0x62>
   10e0e:	47b1                	li	a5,12
   10e10:	00f92023          	sw	a5,0(s2)
   10e14:	4501                	li	a0,0
   10e16:	b56d                	j	10cc0 <_malloc_r+0x62>
   10e18:	40000613          	li	a2,1024
   10e1c:	04000593          	li	a1,64
   10e20:	03f00813          	li	a6,63
   10e24:	b5e5                	j	10d0c <_malloc_r+0xae>
   10e26:	0109b403          	ld	s0,16(s3)
   10e2a:	f456                	sd	s5,40(sp)
   10e2c:	641c                	ld	a5,8(s0)
   10e2e:	ffc7fa93          	andi	s5,a5,-4
   10e32:	009ae763          	bltu	s5,s1,10e40 <_malloc_r+0x1e2>
   10e36:	409a8733          	sub	a4,s5,s1
   10e3a:	47fd                	li	a5,31
   10e3c:	0ae7c263          	blt	a5,a4,10ee0 <_malloc_r+0x282>
   10e40:	e466                	sd	s9,8(sp)
   10e42:	f852                	sd	s4,48(sp)
   10e44:	2281b703          	ld	a4,552(gp) # 1add0 <__malloc_sbrk_base>
   10e48:	2601ba03          	ld	s4,608(gp) # 1ae08 <__malloc_top_pad>
   10e4c:	e862                	sd	s8,16(sp)
   10e4e:	f05a                	sd	s6,32(sp)
   10e50:	57fd                	li	a5,-1
   10e52:	01540c33          	add	s8,s0,s5
   10e56:	9a26                	add	s4,s4,s1
   10e58:	2ef70863          	beq	a4,a5,11148 <_malloc_r+0x4ea>
   10e5c:	6785                	lui	a5,0x1
   10e5e:	07fd                	addi	a5,a5,31 # 101f <exit-0xf0c9>
   10e60:	9a3e                	add	s4,s4,a5
   10e62:	77fd                	lui	a5,0xfffff
   10e64:	00fa7a33          	and	s4,s4,a5
   10e68:	85d2                	mv	a1,s4
   10e6a:	854a                	mv	a0,s2
   10e6c:	06f020ef          	jal	136da <_sbrk_r>
   10e70:	57fd                	li	a5,-1
   10e72:	8b2a                	mv	s6,a0
   10e74:	36f50063          	beq	a0,a5,111d4 <_malloc_r+0x576>
   10e78:	ec5e                	sd	s7,24(sp)
   10e7a:	1b856c63          	bltu	a0,s8,11032 <_malloc_r+0x3d4>
   10e7e:	4c018b93          	addi	s7,gp,1216 # 1b068 <__malloc_current_mallinfo>
   10e82:	000ba783          	lw	a5,0(s7)
   10e86:	0147873b          	addw	a4,a5,s4
   10e8a:	00eba023          	sw	a4,0(s7)
   10e8e:	86ba                	mv	a3,a4
   10e90:	20ac1763          	bne	s8,a0,1109e <_malloc_r+0x440>
   10e94:	03451793          	slli	a5,a0,0x34
   10e98:	20079363          	bnez	a5,1109e <_malloc_r+0x440>
   10e9c:	0109bb03          	ld	s6,16(s3)
   10ea0:	014a87b3          	add	a5,s5,s4
   10ea4:	0017e793          	ori	a5,a5,1
   10ea8:	00fb3423          	sd	a5,8(s6)
   10eac:	2581b603          	ld	a2,600(gp) # 1ae00 <__malloc_max_sbrked_mem>
   10eb0:	00e67463          	bgeu	a2,a4,10eb8 <_malloc_r+0x25a>
   10eb4:	24e1bc23          	sd	a4,600(gp) # 1ae00 <__malloc_max_sbrked_mem>
   10eb8:	2501b603          	ld	a2,592(gp) # 1adf8 <__malloc_max_total_mem>
   10ebc:	00e67463          	bgeu	a2,a4,10ec4 <_malloc_r+0x266>
   10ec0:	24e1b823          	sd	a4,592(gp) # 1adf8 <__malloc_max_total_mem>
   10ec4:	6be2                	ld	s7,24(sp)
   10ec6:	845a                	mv	s0,s6
   10ec8:	9bf1                	andi	a5,a5,-4
   10eca:	40978733          	sub	a4,a5,s1
   10ece:	2a97ed63          	bltu	a5,s1,11188 <_malloc_r+0x52a>
   10ed2:	47fd                	li	a5,31
   10ed4:	2ae7da63          	bge	a5,a4,11188 <_malloc_r+0x52a>
   10ed8:	7a42                	ld	s4,48(sp)
   10eda:	7b02                	ld	s6,32(sp)
   10edc:	6c42                	ld	s8,16(sp)
   10ede:	6ca2                	ld	s9,8(sp)
   10ee0:	0014e793          	ori	a5,s1,1
   10ee4:	e41c                	sd	a5,8(s0)
   10ee6:	94a2                	add	s1,s1,s0
   10ee8:	0099b823          	sd	s1,16(s3)
   10eec:	00176713          	ori	a4,a4,1
   10ef0:	854a                	mv	a0,s2
   10ef2:	e498                	sd	a4,8(s1)
   10ef4:	36e000ef          	jal	11262 <__malloc_unlock>
   10ef8:	60e6                	ld	ra,88(sp)
   10efa:	01040513          	addi	a0,s0,16
   10efe:	6446                	ld	s0,80(sp)
   10f00:	7aa2                	ld	s5,40(sp)
   10f02:	64a6                	ld	s1,72(sp)
   10f04:	6906                	ld	s2,64(sp)
   10f06:	79e2                	ld	s3,56(sp)
   10f08:	6125                	addi	sp,sp,96
   10f0a:	8082                	ret
   10f0c:	0089b503          	ld	a0,8(s3)
   10f10:	b569                	j	10d9a <_malloc_r+0x13c>
   10f12:	6810                	ld	a2,16(s0)
   10f14:	bb51                	j	10ca8 <_malloc_r+0x4a>
   10f16:	6f80                	ld	s0,24(a5)
   10f18:	2589                	addiw	a1,a1,2
   10f1a:	e28780e3          	beq	a5,s0,10d3a <_malloc_r+0xdc>
   10f1e:	b349                	j	10ca0 <_malloc_r+0x42>
   10f20:	0097d713          	srli	a4,a5,0x9
   10f24:	4691                	li	a3,4
   10f26:	0ee6fc63          	bgeu	a3,a4,1101e <_malloc_r+0x3c0>
   10f2a:	46d1                	li	a3,20
   10f2c:	26e6e863          	bltu	a3,a4,1119c <_malloc_r+0x53e>
   10f30:	05c7061b          	addiw	a2,a4,92
   10f34:	0016161b          	slliw	a2,a2,0x1
   10f38:	05b7069b          	addiw	a3,a4,91
   10f3c:	060e                	slli	a2,a2,0x3
   10f3e:	964e                	add	a2,a2,s3
   10f40:	6218                	ld	a4,0(a2)
   10f42:	1641                	addi	a2,a2,-16
   10f44:	00e61663          	bne	a2,a4,10f50 <_malloc_r+0x2f2>
   10f48:	a419                	j	1114e <_malloc_r+0x4f0>
   10f4a:	6b18                	ld	a4,16(a4)
   10f4c:	00e60663          	beq	a2,a4,10f58 <_malloc_r+0x2fa>
   10f50:	6714                	ld	a3,8(a4)
   10f52:	9af1                	andi	a3,a3,-4
   10f54:	fed7ebe3          	bltu	a5,a3,10f4a <_malloc_r+0x2ec>
   10f58:	6f10                	ld	a2,24(a4)
   10f5a:	ec10                	sd	a2,24(s0)
   10f5c:	e818                	sd	a4,16(s0)
   10f5e:	ea00                	sd	s0,16(a2)
   10f60:	ef00                	sd	s0,24(a4)
   10f62:	bd25                	j	10d9a <_malloc_r+0x13c>
   10f64:	4751                	li	a4,20
   10f66:	0cf77d63          	bgeu	a4,a5,11040 <_malloc_r+0x3e2>
   10f6a:	05400713          	li	a4,84
   10f6e:	24f76563          	bltu	a4,a5,111b8 <_malloc_r+0x55a>
   10f72:	00c4d793          	srli	a5,s1,0xc
   10f76:	06f7859b          	addiw	a1,a5,111 # fffffffffffff06f <__BSS_END__+0xfffffffffffe3cc7>
   10f7a:	0015961b          	slliw	a2,a1,0x1
   10f7e:	06e7881b          	addiw	a6,a5,110
   10f82:	060e                	slli	a2,a2,0x3
   10f84:	b361                	j	10d0c <_malloc_r+0xae>
   10f86:	2e05                	addiw	t3,t3,1
   10f88:	003e7793          	andi	a5,t3,3
   10f8c:	0541                	addi	a0,a0,16
   10f8e:	c7f1                	beqz	a5,1105a <_malloc_r+0x3fc>
   10f90:	6d1c                	ld	a5,24(a0)
   10f92:	b5a1                	j	10dda <_malloc_r+0x17c>
   10f94:	6810                	ld	a2,16(s0)
   10f96:	0014e593          	ori	a1,s1,1
   10f9a:	e40c                	sd	a1,8(s0)
   10f9c:	ee1c                	sd	a5,24(a2)
   10f9e:	eb90                	sd	a2,16(a5)
   10fa0:	94a2                	add	s1,s1,s0
   10fa2:	0299b423          	sd	s1,40(s3)
   10fa6:	0299b023          	sd	s1,32(s3)
   10faa:	0016e793          	ori	a5,a3,1
   10fae:	0104bc23          	sd	a6,24(s1)
   10fb2:	0104b823          	sd	a6,16(s1)
   10fb6:	e49c                	sd	a5,8(s1)
   10fb8:	9722                	add	a4,a4,s0
   10fba:	854a                	mv	a0,s2
   10fbc:	e314                	sd	a3,0(a4)
   10fbe:	2a4000ef          	jal	11262 <__malloc_unlock>
   10fc2:	01040513          	addi	a0,s0,16
   10fc6:	b9ed                	j	10cc0 <_malloc_r+0x62>
   10fc8:	97a2                	add	a5,a5,s0
   10fca:	6798                	ld	a4,8(a5)
   10fcc:	854a                	mv	a0,s2
   10fce:	00176713          	ori	a4,a4,1
   10fd2:	e798                	sd	a4,8(a5)
   10fd4:	28e000ef          	jal	11262 <__malloc_unlock>
   10fd8:	01040513          	addi	a0,s0,16
   10fdc:	b1d5                	j	10cc0 <_malloc_r+0x62>
   10fde:	0014e693          	ori	a3,s1,1
   10fe2:	e414                	sd	a3,8(s0)
   10fe4:	94a2                	add	s1,s1,s0
   10fe6:	0299b423          	sd	s1,40(s3)
   10fea:	0299b023          	sd	s1,32(s3)
   10fee:	00176693          	ori	a3,a4,1
   10ff2:	0104bc23          	sd	a6,24(s1)
   10ff6:	0104b823          	sd	a6,16(s1)
   10ffa:	e494                	sd	a3,8(s1)
   10ffc:	97a2                	add	a5,a5,s0
   10ffe:	854a                	mv	a0,s2
   11000:	e398                	sd	a4,0(a5)
   11002:	260000ef          	jal	11262 <__malloc_unlock>
   11006:	01040513          	addi	a0,s0,16
   1100a:	b95d                	j	10cc0 <_malloc_r+0x62>
   1100c:	0034d593          	srli	a1,s1,0x3
   11010:	0015879b          	addiw	a5,a1,1
   11014:	0017979b          	slliw	a5,a5,0x1
   11018:	2581                	sext.w	a1,a1
   1101a:	078e                	slli	a5,a5,0x3
   1101c:	b98d                	j	10c8e <_malloc_r+0x30>
   1101e:	0067d713          	srli	a4,a5,0x6
   11022:	0397061b          	addiw	a2,a4,57
   11026:	0016161b          	slliw	a2,a2,0x1
   1102a:	0387069b          	addiw	a3,a4,56
   1102e:	060e                	slli	a2,a2,0x3
   11030:	b739                	j	10f3e <_malloc_r+0x2e0>
   11032:	05340e63          	beq	s0,s3,1108e <_malloc_r+0x430>
   11036:	0109b403          	ld	s0,16(s3)
   1103a:	6be2                	ld	s7,24(sp)
   1103c:	641c                	ld	a5,8(s0)
   1103e:	b569                	j	10ec8 <_malloc_r+0x26a>
   11040:	05c7859b          	addiw	a1,a5,92
   11044:	0015961b          	slliw	a2,a1,0x1
   11048:	05b7881b          	addiw	a6,a5,91
   1104c:	060e                	slli	a2,a2,0x3
   1104e:	b97d                	j	10d0c <_malloc_r+0xae>
   11050:	01033783          	ld	a5,16(t1)
   11054:	35fd                	addiw	a1,a1,-1
   11056:	20679263          	bne	a5,t1,1125a <_malloc_r+0x5fc>
   1105a:	0035f793          	andi	a5,a1,3
   1105e:	1341                	addi	t1,t1,-16
   11060:	fbe5                	bnez	a5,11050 <_malloc_r+0x3f2>
   11062:	0089b703          	ld	a4,8(s3)
   11066:	fff64793          	not	a5,a2
   1106a:	8ff9                	and	a5,a5,a4
   1106c:	00f9b423          	sd	a5,8(s3)
   11070:	0606                	slli	a2,a2,0x1
   11072:	dac7eae3          	bltu	a5,a2,10e26 <_malloc_r+0x1c8>
   11076:	da0608e3          	beqz	a2,10e26 <_malloc_r+0x1c8>
   1107a:	00f67733          	and	a4,a2,a5
   1107e:	e711                	bnez	a4,1108a <_malloc_r+0x42c>
   11080:	0606                	slli	a2,a2,0x1
   11082:	00f67733          	and	a4,a2,a5
   11086:	2e11                	addiw	t3,t3,4
   11088:	df65                	beqz	a4,11080 <_malloc_r+0x422>
   1108a:	85f2                	mv	a1,t3
   1108c:	bb2d                	j	10dc6 <_malloc_r+0x168>
   1108e:	4c018b93          	addi	s7,gp,1216 # 1b068 <__malloc_current_mallinfo>
   11092:	000ba783          	lw	a5,0(s7)
   11096:	014786bb          	addw	a3,a5,s4
   1109a:	00dba023          	sw	a3,0(s7)
   1109e:	2281b703          	ld	a4,552(gp) # 1add0 <__malloc_sbrk_base>
   110a2:	57fd                	li	a5,-1
   110a4:	12f70c63          	beq	a4,a5,111dc <_malloc_r+0x57e>
   110a8:	418b07b3          	sub	a5,s6,s8
   110ac:	9fb5                	addw	a5,a5,a3
   110ae:	00fba023          	sw	a5,0(s7)
   110b2:	00fb7c93          	andi	s9,s6,15
   110b6:	0a0c8563          	beqz	s9,11160 <_malloc_r+0x502>
   110ba:	419b0b33          	sub	s6,s6,s9
   110be:	6705                	lui	a4,0x1
   110c0:	0741                	addi	a4,a4,16 # 1010 <exit-0xf0d8>
   110c2:	0b41                	addi	s6,s6,16
   110c4:	41970c33          	sub	s8,a4,s9
   110c8:	9a5a                	add	s4,s4,s6
   110ca:	414c0c33          	sub	s8,s8,s4
   110ce:	1c52                	slli	s8,s8,0x34
   110d0:	034c5c13          	srli	s8,s8,0x34
   110d4:	85e2                	mv	a1,s8
   110d6:	854a                	mv	a0,s2
   110d8:	602020ef          	jal	136da <_sbrk_r>
   110dc:	57fd                	li	a5,-1
   110de:	12f50e63          	beq	a0,a5,1121a <_malloc_r+0x5bc>
   110e2:	41650533          	sub	a0,a0,s6
   110e6:	000c069b          	sext.w	a3,s8
   110ea:	01850a33          	add	s4,a0,s8
   110ee:	000ba703          	lw	a4,0(s7)
   110f2:	0169b823          	sd	s6,16(s3)
   110f6:	001a6793          	ori	a5,s4,1
   110fa:	9f35                	addw	a4,a4,a3
   110fc:	00eba023          	sw	a4,0(s7)
   11100:	00fb3423          	sd	a5,8(s6)
   11104:	db3404e3          	beq	s0,s3,10eac <_malloc_r+0x24e>
   11108:	467d                	li	a2,31
   1110a:	07567b63          	bgeu	a2,s5,11180 <_malloc_r+0x522>
   1110e:	6414                	ld	a3,8(s0)
   11110:	fe8a8793          	addi	a5,s5,-24
   11114:	9bc1                	andi	a5,a5,-16
   11116:	8a85                	andi	a3,a3,1
   11118:	8edd                	or	a3,a3,a5
   1111a:	e414                	sd	a3,8(s0)
   1111c:	45a5                	li	a1,9
   1111e:	00f406b3          	add	a3,s0,a5
   11122:	e68c                	sd	a1,8(a3)
   11124:	ea8c                	sd	a1,16(a3)
   11126:	00f66563          	bltu	a2,a5,11130 <_malloc_r+0x4d2>
   1112a:	008b3783          	ld	a5,8(s6)
   1112e:	bbbd                	j	10eac <_malloc_r+0x24e>
   11130:	01040593          	addi	a1,s0,16
   11134:	854a                	mv	a0,s2
   11136:	8e5ff0ef          	jal	10a1a <_free_r>
   1113a:	0109bb03          	ld	s6,16(s3)
   1113e:	000ba703          	lw	a4,0(s7)
   11142:	008b3783          	ld	a5,8(s6)
   11146:	b39d                	j	10eac <_malloc_r+0x24e>
   11148:	020a0a13          	addi	s4,s4,32
   1114c:	bb31                	j	10e68 <_malloc_r+0x20a>
   1114e:	4026d69b          	sraiw	a3,a3,0x2
   11152:	4785                	li	a5,1
   11154:	00d797b3          	sll	a5,a5,a3
   11158:	8d5d                	or	a0,a0,a5
   1115a:	00a9b423          	sd	a0,8(s3)
   1115e:	bbf5                	j	10f5a <_malloc_r+0x2fc>
   11160:	014b0c33          	add	s8,s6,s4
   11164:	41800c33          	neg	s8,s8
   11168:	1c52                	slli	s8,s8,0x34
   1116a:	034c5c13          	srli	s8,s8,0x34
   1116e:	85e2                	mv	a1,s8
   11170:	854a                	mv	a0,s2
   11172:	568020ef          	jal	136da <_sbrk_r>
   11176:	57fd                	li	a5,-1
   11178:	4681                	li	a3,0
   1117a:	f6f514e3          	bne	a0,a5,110e2 <_malloc_r+0x484>
   1117e:	bf85                	j	110ee <_malloc_r+0x490>
   11180:	6be2                	ld	s7,24(sp)
   11182:	4785                	li	a5,1
   11184:	00fb3423          	sd	a5,8(s6)
   11188:	854a                	mv	a0,s2
   1118a:	0d8000ef          	jal	11262 <__malloc_unlock>
   1118e:	4501                	li	a0,0
   11190:	7a42                	ld	s4,48(sp)
   11192:	7aa2                	ld	s5,40(sp)
   11194:	7b02                	ld	s6,32(sp)
   11196:	6c42                	ld	s8,16(sp)
   11198:	6ca2                	ld	s9,8(sp)
   1119a:	b61d                	j	10cc0 <_malloc_r+0x62>
   1119c:	05400693          	li	a3,84
   111a0:	04e6e163          	bltu	a3,a4,111e2 <_malloc_r+0x584>
   111a4:	00c7d713          	srli	a4,a5,0xc
   111a8:	06f7061b          	addiw	a2,a4,111
   111ac:	0016161b          	slliw	a2,a2,0x1
   111b0:	06e7069b          	addiw	a3,a4,110
   111b4:	060e                	slli	a2,a2,0x3
   111b6:	b361                	j	10f3e <_malloc_r+0x2e0>
   111b8:	15400713          	li	a4,340
   111bc:	04f76163          	bltu	a4,a5,111fe <_malloc_r+0x5a0>
   111c0:	00f4d793          	srli	a5,s1,0xf
   111c4:	0787859b          	addiw	a1,a5,120
   111c8:	0015961b          	slliw	a2,a1,0x1
   111cc:	0777881b          	addiw	a6,a5,119
   111d0:	060e                	slli	a2,a2,0x3
   111d2:	be2d                	j	10d0c <_malloc_r+0xae>
   111d4:	0109b403          	ld	s0,16(s3)
   111d8:	641c                	ld	a5,8(s0)
   111da:	b1fd                	j	10ec8 <_malloc_r+0x26a>
   111dc:	2361b423          	sd	s6,552(gp) # 1add0 <__malloc_sbrk_base>
   111e0:	bdc9                	j	110b2 <_malloc_r+0x454>
   111e2:	15400693          	li	a3,340
   111e6:	04e6e063          	bltu	a3,a4,11226 <_malloc_r+0x5c8>
   111ea:	00f7d713          	srli	a4,a5,0xf
   111ee:	0787061b          	addiw	a2,a4,120
   111f2:	0016161b          	slliw	a2,a2,0x1
   111f6:	0777069b          	addiw	a3,a4,119
   111fa:	060e                	slli	a2,a2,0x3
   111fc:	b389                	j	10f3e <_malloc_r+0x2e0>
   111fe:	55400713          	li	a4,1364
   11202:	04f76063          	bltu	a4,a5,11242 <_malloc_r+0x5e4>
   11206:	0124d793          	srli	a5,s1,0x12
   1120a:	07d7859b          	addiw	a1,a5,125
   1120e:	0015961b          	slliw	a2,a1,0x1
   11212:	07c7881b          	addiw	a6,a5,124
   11216:	060e                	slli	a2,a2,0x3
   11218:	bcd5                	j	10d0c <_malloc_r+0xae>
   1121a:	1cc1                	addi	s9,s9,-16
   1121c:	9a66                	add	s4,s4,s9
   1121e:	416a0a33          	sub	s4,s4,s6
   11222:	4681                	li	a3,0
   11224:	b5e9                	j	110ee <_malloc_r+0x490>
   11226:	55400693          	li	a3,1364
   1122a:	02e6e363          	bltu	a3,a4,11250 <_malloc_r+0x5f2>
   1122e:	0127d713          	srli	a4,a5,0x12
   11232:	07d7061b          	addiw	a2,a4,125
   11236:	0016161b          	slliw	a2,a2,0x1
   1123a:	07c7069b          	addiw	a3,a4,124
   1123e:	060e                	slli	a2,a2,0x3
   11240:	b9fd                	j	10f3e <_malloc_r+0x2e0>
   11242:	7f000613          	li	a2,2032
   11246:	07f00593          	li	a1,127
   1124a:	07e00813          	li	a6,126
   1124e:	bc7d                	j	10d0c <_malloc_r+0xae>
   11250:	7f000613          	li	a2,2032
   11254:	07e00693          	li	a3,126
   11258:	b1dd                	j	10f3e <_malloc_r+0x2e0>
   1125a:	0089b783          	ld	a5,8(s3)
   1125e:	bd09                	j	11070 <_malloc_r+0x412>

0000000000011260 <__malloc_lock>:
   11260:	8082                	ret

0000000000011262 <__malloc_unlock>:
   11262:	8082                	ret

0000000000011264 <_vfprintf_r>:
   11264:	db010113          	addi	sp,sp,-592
   11268:	24113423          	sd	ra,584(sp)
   1126c:	24813023          	sd	s0,576(sp)
   11270:	23213823          	sd	s2,560(sp)
   11274:	ffe6                	sd	s9,504(sp)
   11276:	892e                	mv	s2,a1
   11278:	8cb2                	mv	s9,a2
   1127a:	f036                	sd	a3,32(sp)
   1127c:	842a                	mv	s0,a0
   1127e:	e42a                	sd	a0,8(sp)
   11280:	44e020ef          	jal	136ce <_localeconv_r>
   11284:	611c                	ld	a5,0(a0)
   11286:	853e                	mv	a0,a5
   11288:	ecbe                	sd	a5,88(sp)
   1128a:	6d2020ef          	jal	1395c <strlen>
   1128e:	e8aa                	sd	a0,80(sp)
   11290:	e982                	sd	zero,208(sp)
   11292:	ed82                	sd	zero,216(sp)
   11294:	c409                	beqz	s0,1129e <_vfprintf_r+0x3a>
   11296:	6438                	ld	a4,72(s0)
   11298:	e319                	bnez	a4,1129e <_vfprintf_r+0x3a>
   1129a:	2240106f          	j	124be <_vfprintf_r+0x125a>
   1129e:	01091683          	lh	a3,16(s2)
   112a2:	0ac92703          	lw	a4,172(s2)
   112a6:	03269613          	slli	a2,a3,0x32
   112aa:	00064b63          	bltz	a2,112c0 <_vfprintf_r+0x5c>
   112ae:	7679                	lui	a2,0xffffe
   112b0:	167d                	addi	a2,a2,-1 # ffffffffffffdfff <__BSS_END__+0xfffffffffffe2c57>
   112b2:	6589                	lui	a1,0x2
   112b4:	8ecd                	or	a3,a3,a1
   112b6:	8f71                	and	a4,a4,a2
   112b8:	00d91823          	sh	a3,16(s2)
   112bc:	0ae92623          	sw	a4,172(s2)
   112c0:	03271693          	slli	a3,a4,0x32
   112c4:	0006d463          	bgez	a3,112cc <_vfprintf_r+0x68>
   112c8:	7a20106f          	j	12a6a <_vfprintf_r+0x1806>
   112cc:	01091703          	lh	a4,16(s2)
   112d0:	00877693          	andi	a3,a4,8
   112d4:	24068e63          	beqz	a3,11530 <_vfprintf_r+0x2cc>
   112d8:	01893683          	ld	a3,24(s2)
   112dc:	24068a63          	beqz	a3,11530 <_vfprintf_r+0x2cc>
   112e0:	8b69                	andi	a4,a4,26
   112e2:	46a9                	li	a3,10
   112e4:	26d70363          	beq	a4,a3,1154a <_vfprintf_r+0x2e6>
   112e8:	23413023          	sd	s4,544(sp)
   112ec:	21513c23          	sd	s5,536(sp)
   112f0:	fbea                	sd	s10,496(sp)
   112f2:	6765                	lui	a4,0x19
   112f4:	22913c23          	sd	s1,568(sp)
   112f8:	23313423          	sd	s3,552(sp)
   112fc:	21613823          	sd	s6,528(sp)
   11300:	21713423          	sd	s7,520(sp)
   11304:	21813023          	sd	s8,512(sp)
   11308:	f7ee                	sd	s11,488(sp)
   1130a:	8d66                	mv	s10,s9
   1130c:	ba870793          	addi	a5,a4,-1112 # 18ba8 <__clzdi2+0x1d2>
   11310:	000d4703          	lbu	a4,0(s10)
   11314:	16010a13          	addi	s4,sp,352
   11318:	6ae5                	lui	s5,0x19
   1131a:	f1d2                	sd	s4,224(sp)
   1131c:	f982                	sd	zero,240(sp)
   1131e:	d582                	sw	zero,232(sp)
   11320:	fc02                	sd	zero,56(sp)
   11322:	f082                	sd	zero,96(sp)
   11324:	f882                	sd	zero,112(sp)
   11326:	e102                	sd	zero,128(sp)
   11328:	e502                	sd	zero,136(sp)
   1132a:	fc82                	sd	zero,120(sp)
   1132c:	e802                	sd	zero,16(sp)
   1132e:	f43e                	sd	a5,40(sp)
   11330:	8452                	mv	s0,s4
   11332:	d18a8a93          	addi	s5,s5,-744 # 18d18 <zeroes.0>
   11336:	1a070163          	beqz	a4,114d8 <_vfprintf_r+0x274>
   1133a:	89ea                	mv	s3,s10
   1133c:	02500693          	li	a3,37
   11340:	2cd70d63          	beq	a4,a3,1161a <_vfprintf_r+0x3b6>
   11344:	0019c703          	lbu	a4,1(s3)
   11348:	0985                	addi	s3,s3,1
   1134a:	fb7d                	bnez	a4,11340 <_vfprintf_r+0xdc>
   1134c:	41a984bb          	subw	s1,s3,s10
   11350:	18048463          	beqz	s1,114d8 <_vfprintf_r+0x274>
   11354:	572e                	lw	a4,232(sp)
   11356:	76ce                	ld	a3,240(sp)
   11358:	01a43023          	sd	s10,0(s0)
   1135c:	2705                	addiw	a4,a4,1
   1135e:	96a6                	add	a3,a3,s1
   11360:	e404                	sd	s1,8(s0)
   11362:	f9b6                	sd	a3,240(sp)
   11364:	d5ba                	sw	a4,232(sp)
   11366:	0007069b          	sext.w	a3,a4
   1136a:	471d                	li	a4,7
   1136c:	0441                	addi	s0,s0,16
   1136e:	2ad74d63          	blt	a4,a3,11628 <_vfprintf_r+0x3c4>
   11372:	67c2                	ld	a5,16(sp)
   11374:	0009c703          	lbu	a4,0(s3)
   11378:	9fa5                	addw	a5,a5,s1
   1137a:	e83e                	sd	a5,16(sp)
   1137c:	14070e63          	beqz	a4,114d8 <_vfprintf_r+0x274>
   11380:	0019c303          	lbu	t1,1(s3)
   11384:	0a0107a3          	sb	zero,175(sp)
   11388:	0985                	addi	s3,s3,1
   1138a:	5b7d                	li	s6,-1
   1138c:	4b81                	li	s7,0
   1138e:	4d81                	li	s11,0
   11390:	05a00493          	li	s1,90
   11394:	0985                	addi	s3,s3,1
   11396:	2301                	sext.w	t1,t1
   11398:	fe03079b          	addiw	a5,t1,-32
   1139c:	0007871b          	sext.w	a4,a5
   113a0:	04e4e563          	bltu	s1,a4,113ea <_vfprintf_r+0x186>
   113a4:	02079713          	slli	a4,a5,0x20
   113a8:	01e75793          	srli	a5,a4,0x1e
   113ac:	7722                	ld	a4,40(sp)
   113ae:	97ba                	add	a5,a5,a4
   113b0:	439c                	lw	a5,0(a5)
   113b2:	8782                	jr	a5
   113b4:	4b81                	li	s7,0
   113b6:	46a5                	li	a3,9
   113b8:	0009c703          	lbu	a4,0(s3)
   113bc:	002b979b          	slliw	a5,s7,0x2
   113c0:	01778bbb          	addw	s7,a5,s7
   113c4:	fd03031b          	addiw	t1,t1,-48
   113c8:	001b9b9b          	slliw	s7,s7,0x1
   113cc:	fd07079b          	addiw	a5,a4,-48
   113d0:	01730bbb          	addw	s7,t1,s7
   113d4:	0985                	addi	s3,s3,1
   113d6:	0007031b          	sext.w	t1,a4
   113da:	fcf6ffe3          	bgeu	a3,a5,113b8 <_vfprintf_r+0x154>
   113de:	fe03079b          	addiw	a5,t1,-32
   113e2:	0007871b          	sext.w	a4,a5
   113e6:	fae4ffe3          	bgeu	s1,a4,113a4 <_vfprintf_r+0x140>
   113ea:	0e030763          	beqz	t1,114d8 <_vfprintf_r+0x274>
   113ee:	0e610c23          	sb	t1,248(sp)
   113f2:	0a0107a3          	sb	zero,175(sp)
   113f6:	4c05                	li	s8,1
   113f8:	4685                	li	a3,1
   113fa:	0f810d13          	addi	s10,sp,248
   113fe:	ec02                	sd	zero,24(sp)
   11400:	4b01                	li	s6,0
   11402:	e482                	sd	zero,72(sp)
   11404:	e082                	sd	zero,64(sp)
   11406:	f802                	sd	zero,48(sp)
   11408:	002df293          	andi	t0,s11,2
   1140c:	00028363          	beqz	t0,11412 <_vfprintf_r+0x1ae>
   11410:	2c09                	addiw	s8,s8,2
   11412:	084dfc93          	andi	s9,s11,132
   11416:	74ce                	ld	s1,240(sp)
   11418:	000c9663          	bnez	s9,11424 <_vfprintf_r+0x1c0>
   1141c:	418b873b          	subw	a4,s7,s8
   11420:	2ee044e3          	bgtz	a4,11f08 <_vfprintf_r+0xca4>
   11424:	0af14703          	lbu	a4,175(sp)
   11428:	c30d                	beqz	a4,1144a <_vfprintf_r+0x1e6>
   1142a:	572e                	lw	a4,232(sp)
   1142c:	0af10613          	addi	a2,sp,175
   11430:	e010                	sd	a2,0(s0)
   11432:	2705                	addiw	a4,a4,1
   11434:	4605                	li	a2,1
   11436:	0485                	addi	s1,s1,1
   11438:	e410                	sd	a2,8(s0)
   1143a:	d5ba                	sw	a4,232(sp)
   1143c:	0007061b          	sext.w	a2,a4
   11440:	f9a6                	sd	s1,240(sp)
   11442:	471d                	li	a4,7
   11444:	0441                	addi	s0,s0,16
   11446:	4ec74b63          	blt	a4,a2,1193c <_vfprintf_r+0x6d8>
   1144a:	02028163          	beqz	t0,1146c <_vfprintf_r+0x208>
   1144e:	572e                	lw	a4,232(sp)
   11450:	4609                	li	a2,2
   11452:	0489                	addi	s1,s1,2
   11454:	2705                	addiw	a4,a4,1
   11456:	191c                	addi	a5,sp,176
   11458:	e410                	sd	a2,8(s0)
   1145a:	e01c                	sd	a5,0(s0)
   1145c:	0007061b          	sext.w	a2,a4
   11460:	d5ba                	sw	a4,232(sp)
   11462:	f9a6                	sd	s1,240(sp)
   11464:	471d                	li	a4,7
   11466:	0441                	addi	s0,s0,16
   11468:	32c74fe3          	blt	a4,a2,11fa6 <_vfprintf_r+0xd42>
   1146c:	08000713          	li	a4,128
   11470:	10ec8ce3          	beq	s9,a4,11d88 <_vfprintf_r+0xb24>
   11474:	40db0b3b          	subw	s6,s6,a3
   11478:	1b604be3          	bgtz	s6,11e2e <_vfprintf_r+0xbca>
   1147c:	100df713          	andi	a4,s11,256
   11480:	020710e3          	bnez	a4,11ca0 <_vfprintf_r+0xa3c>
   11484:	572e                	lw	a4,232(sp)
   11486:	94b6                	add	s1,s1,a3
   11488:	01a43023          	sd	s10,0(s0)
   1148c:	2705                	addiw	a4,a4,1
   1148e:	e414                	sd	a3,8(s0)
   11490:	f9a6                	sd	s1,240(sp)
   11492:	d5ba                	sw	a4,232(sp)
   11494:	479d                	li	a5,7
   11496:	54e7cf63          	blt	a5,a4,119f4 <_vfprintf_r+0x790>
   1149a:	0441                	addi	s0,s0,16
   1149c:	004dfe13          	andi	t3,s11,4
   114a0:	000e0663          	beqz	t3,114ac <_vfprintf_r+0x248>
   114a4:	418b8b3b          	subw	s6,s7,s8
   114a8:	31604de3          	bgtz	s6,11fc2 <_vfprintf_r+0xd5e>
   114ac:	87de                	mv	a5,s7
   114ae:	018bd363          	bge	s7,s8,114b4 <_vfprintf_r+0x250>
   114b2:	87e2                	mv	a5,s8
   114b4:	6742                	ld	a4,16(sp)
   114b6:	9fb9                	addw	a5,a5,a4
   114b8:	e83e                	sd	a5,16(sp)
   114ba:	200497e3          	bnez	s1,11ec8 <_vfprintf_r+0xc64>
   114be:	67e2                	ld	a5,24(sp)
   114c0:	d582                	sw	zero,232(sp)
   114c2:	c789                	beqz	a5,114cc <_vfprintf_r+0x268>
   114c4:	65e2                	ld	a1,24(sp)
   114c6:	6522                	ld	a0,8(sp)
   114c8:	d52ff0ef          	jal	10a1a <_free_r>
   114cc:	8452                	mv	s0,s4
   114ce:	8d4e                	mv	s10,s3
   114d0:	000d4703          	lbu	a4,0(s10)
   114d4:	e60713e3          	bnez	a4,1133a <_vfprintf_r+0xd6>
   114d8:	77ce                	ld	a5,240(sp)
   114da:	c399                	beqz	a5,114e0 <_vfprintf_r+0x27c>
   114dc:	3a20106f          	j	1287e <_vfprintf_r+0x161a>
   114e0:	01095783          	lhu	a5,16(s2)
   114e4:	23813483          	ld	s1,568(sp)
   114e8:	22813983          	ld	s3,552(sp)
   114ec:	0407f793          	andi	a5,a5,64
   114f0:	22013a03          	ld	s4,544(sp)
   114f4:	21813a83          	ld	s5,536(sp)
   114f8:	21013b03          	ld	s6,528(sp)
   114fc:	20813b83          	ld	s7,520(sp)
   11500:	20013c03          	ld	s8,512(sp)
   11504:	7d5e                	ld	s10,496(sp)
   11506:	7dbe                	ld	s11,488(sp)
   11508:	c399                	beqz	a5,1150e <_vfprintf_r+0x2aa>
   1150a:	5600106f          	j	12a6a <_vfprintf_r+0x1806>
   1150e:	24813083          	ld	ra,584(sp)
   11512:	24013403          	ld	s0,576(sp)
   11516:	6542                	ld	a0,16(sp)
   11518:	23013903          	ld	s2,560(sp)
   1151c:	7cfe                	ld	s9,504(sp)
   1151e:	25010113          	addi	sp,sp,592
   11522:	8082                	ret
   11524:	010ded93          	ori	s11,s11,16
   11528:	0009c303          	lbu	t1,0(s3)
   1152c:	2d81                	sext.w	s11,s11
   1152e:	b59d                	j	11394 <_vfprintf_r+0x130>
   11530:	6522                	ld	a0,8(sp)
   11532:	85ca                	mv	a1,s2
   11534:	779010ef          	jal	134ac <__swsetup_r>
   11538:	c119                	beqz	a0,1153e <_vfprintf_r+0x2da>
   1153a:	5300106f          	j	12a6a <_vfprintf_r+0x1806>
   1153e:	01091703          	lh	a4,16(s2)
   11542:	46a9                	li	a3,10
   11544:	8b69                	andi	a4,a4,26
   11546:	dad711e3          	bne	a4,a3,112e8 <_vfprintf_r+0x84>
   1154a:	01291703          	lh	a4,18(s2)
   1154e:	d8074de3          	bltz	a4,112e8 <_vfprintf_r+0x84>
   11552:	7682                	ld	a3,32(sp)
   11554:	6522                	ld	a0,8(sp)
   11556:	8666                	mv	a2,s9
   11558:	85ca                	mv	a1,s2
   1155a:	05d010ef          	jal	12db6 <__sbprintf>
   1155e:	e82a                	sd	a0,16(sp)
   11560:	b77d                	j	1150e <_vfprintf_r+0x2aa>
   11562:	010dee13          	ori	t3,s11,16
   11566:	000e0d9b          	sext.w	s11,t3
   1156a:	7682                	ld	a3,32(sp)
   1156c:	020df793          	andi	a5,s11,32
   11570:	00868713          	addi	a4,a3,8
   11574:	4a078763          	beqz	a5,11a22 <_vfprintf_r+0x7be>
   11578:	629c                	ld	a5,0(a3)
   1157a:	84be                	mv	s1,a5
   1157c:	4c07c463          	bltz	a5,11a44 <_vfprintf_r+0x7e0>
   11580:	4c0b45e3          	bltz	s6,1224a <_vfprintf_r+0xfe6>
   11584:	f7fdfc93          	andi	s9,s11,-129
   11588:	2c81                	sext.w	s9,s9
   1158a:	c099                	beqz	s1,11590 <_vfprintf_r+0x32c>
   1158c:	7790006f          	j	12504 <_vfprintf_r+0x12a0>
   11590:	000b0463          	beqz	s6,11598 <_vfprintf_r+0x334>
   11594:	6740106f          	j	12c08 <_vfprintf_r+0x19a4>
   11598:	4681                	li	a3,0
   1159a:	f03a                	sd	a4,32(sp)
   1159c:	8de6                	mv	s11,s9
   1159e:	15c10d13          	addi	s10,sp,348
   115a2:	0af14703          	lbu	a4,175(sp)
   115a6:	885a                	mv	a6,s6
   115a8:	00db5363          	bge	s6,a3,115ae <_vfprintf_r+0x34a>
   115ac:	8836                	mv	a6,a3
   115ae:	ec02                	sd	zero,24(sp)
   115b0:	e482                	sd	zero,72(sp)
   115b2:	e082                	sd	zero,64(sp)
   115b4:	f802                	sd	zero,48(sp)
   115b6:	00080c1b          	sext.w	s8,a6
   115ba:	e40707e3          	beqz	a4,11408 <_vfprintf_r+0x1a4>
   115be:	2c05                	addiw	s8,s8,1
   115c0:	b5a1                	j	11408 <_vfprintf_r+0x1a4>
   115c2:	010dee13          	ori	t3,s11,16
   115c6:	000e0d9b          	sext.w	s11,t3
   115ca:	7682                	ld	a3,32(sp)
   115cc:	020df793          	andi	a5,s11,32
   115d0:	00868713          	addi	a4,a3,8
   115d4:	42078a63          	beqz	a5,11a08 <_vfprintf_r+0x7a4>
   115d8:	6284                	ld	s1,0(a3)
   115da:	bffdfc93          	andi	s9,s11,-1025
   115de:	2c81                	sext.w	s9,s9
   115e0:	f03a                	sd	a4,32(sp)
   115e2:	4781                	li	a5,0
   115e4:	4701                	li	a4,0
   115e6:	0ae107a3          	sb	a4,175(sp)
   115ea:	460b4863          	bltz	s6,11a5a <_vfprintf_r+0x7f6>
   115ee:	f7fcfe13          	andi	t3,s9,-129
   115f2:	000e0d9b          	sext.w	s11,t3
   115f6:	0e0498e3          	bnez	s1,11ee6 <_vfprintf_r+0xc82>
   115fa:	740b1e63          	bnez	s6,11d56 <_vfprintf_r+0xaf2>
   115fe:	3c079ae3          	bnez	a5,121d2 <_vfprintf_r+0xf6e>
   11602:	001cf693          	andi	a3,s9,1
   11606:	15c10d13          	addi	s10,sp,348
   1160a:	dec1                	beqz	a3,115a2 <_vfprintf_r+0x33e>
   1160c:	03000793          	li	a5,48
   11610:	14f10da3          	sb	a5,347(sp)
   11614:	15b10d13          	addi	s10,sp,347
   11618:	b769                	j	115a2 <_vfprintf_r+0x33e>
   1161a:	41a984bb          	subw	s1,s3,s10
   1161e:	d2049be3          	bnez	s1,11354 <_vfprintf_r+0xf0>
   11622:	0009c703          	lbu	a4,0(s3)
   11626:	bb99                	j	1137c <_vfprintf_r+0x118>
   11628:	6522                	ld	a0,8(sp)
   1162a:	1190                	addi	a2,sp,224
   1162c:	85ca                	mv	a1,s2
   1162e:	021010ef          	jal	12e4e <__sprint_r>
   11632:	ea0517e3          	bnez	a0,114e0 <_vfprintf_r+0x27c>
   11636:	8452                	mv	s0,s4
   11638:	bb2d                	j	11372 <_vfprintf_r+0x10e>
   1163a:	008df713          	andi	a4,s11,8
   1163e:	3e0713e3          	bnez	a4,12224 <_vfprintf_r+0xfc0>
   11642:	7782                	ld	a5,32(sp)
   11644:	ec1a                	sd	t1,24(sp)
   11646:	2388                	fld	fa0,0(a5)
   11648:	00878c13          	addi	s8,a5,8
   1164c:	2ca070ef          	jal	18916 <__extenddftf2>
   11650:	6362                	ld	t1,24(sp)
   11652:	872a                	mv	a4,a0
   11654:	f062                	sd	s8,32(sp)
   11656:	0988                	addi	a0,sp,208
   11658:	ec1a                	sd	t1,24(sp)
   1165a:	e9ba                	sd	a4,208(sp)
   1165c:	edae                	sd	a1,216(sp)
   1165e:	628020ef          	jal	13c86 <_ldcheck>
   11662:	dd2a                	sw	a0,184(sp)
   11664:	4709                	li	a4,2
   11666:	6362                	ld	t1,24(sp)
   11668:	6ae500e3          	beq	a0,a4,12508 <_vfprintf_r+0x12a4>
   1166c:	4705                	li	a4,1
   1166e:	00e51463          	bne	a0,a4,11676 <_vfprintf_r+0x412>
   11672:	7bb0006f          	j	1262c <_vfprintf_r+0x13c8>
   11676:	06100713          	li	a4,97
   1167a:	56e300e3          	beq	t1,a4,123da <_vfprintf_r+0x1176>
   1167e:	04100713          	li	a4,65
   11682:	05800793          	li	a5,88
   11686:	54e30ce3          	beq	t1,a4,123de <_vfprintf_r+0x117a>
   1168a:	577d                	li	a4,-1
   1168c:	00eb1463          	bne	s6,a4,11694 <_vfprintf_r+0x430>
   11690:	5700106f          	j	12c00 <_vfprintf_r+0x199c>
   11694:	fdf37713          	andi	a4,t1,-33
   11698:	04700693          	li	a3,71
   1169c:	ec02                	sd	zero,24(sp)
   1169e:	00d71463          	bne	a4,a3,116a6 <_vfprintf_r+0x442>
   116a2:	5720106f          	j	12c14 <_vfprintf_r+0x19b0>
   116a6:	67ce                	ld	a5,208(sp)
   116a8:	6cee                	ld	s9,216(sp)
   116aa:	100de713          	ori	a4,s11,256
   116ae:	f83e                	sd	a5,48(sp)
   116b0:	f482                	sd	zero,104(sp)
   116b2:	0007049b          	sext.w	s1,a4
   116b6:	000cd463          	bgez	s9,116be <_vfprintf_r+0x45a>
   116ba:	3720106f          	j	12a2c <_vfprintf_r+0x17c8>
   116be:	fbf3069b          	addiw	a3,t1,-65
   116c2:	02500713          	li	a4,37
   116c6:	00d77463          	bgeu	a4,a3,116ce <_vfprintf_r+0x46a>
   116ca:	3ce0106f          	j	12a98 <_vfprintf_r+0x1834>
   116ce:	4705                	li	a4,1
   116d0:	4c05                	li	s8,1
   116d2:	1716                	slli	a4,a4,0x25
   116d4:	00dc16b3          	sll	a3,s8,a3
   116d8:	02070713          	addi	a4,a4,32
   116dc:	8f75                	and	a4,a4,a3
   116de:	c319                	beqz	a4,116e4 <_vfprintf_r+0x480>
   116e0:	2680106f          	j	12948 <_vfprintf_r+0x16e4>
   116e4:	4705                	li	a4,1
   116e6:	1712                	slli	a4,a4,0x24
   116e8:	0741                	addi	a4,a4,16
   116ea:	8f75                	and	a4,a4,a3
   116ec:	c319                	beqz	a4,116f2 <_vfprintf_r+0x48e>
   116ee:	4d20106f          	j	12bc0 <_vfprintf_r+0x195c>
   116f2:	4705                	li	a4,1
   116f4:	1702                	slli	a4,a4,0x20
   116f6:	0705                	addi	a4,a4,1
   116f8:	8ef9                	and	a3,a3,a4
   116fa:	fc1a                	sd	t1,56(sp)
   116fc:	e299                	bnez	a3,11702 <_vfprintf_r+0x49e>
   116fe:	1d40106f          	j	128d2 <_vfprintf_r+0x166e>
   11702:	7542                	ld	a0,48(sp)
   11704:	1930                	addi	a2,sp,184
   11706:	85e6                	mv	a1,s9
   11708:	2f6020ef          	jal	139fe <frexpl>
   1170c:	00fff6b7          	lui	a3,0xfff
   11710:	4601                	li	a2,0
   11712:	169a                	slli	a3,a3,0x26
   11714:	2d8060ef          	jal	179ec <__multf3>
   11718:	4601                	li	a2,0
   1171a:	4681                	li	a3,0
   1171c:	8caa                	mv	s9,a0
   1171e:	84ae                	mv	s1,a1
   11720:	0e8060ef          	jal	17808 <__eqtf2>
   11724:	7362                	ld	t1,56(sp)
   11726:	e111                	bnez	a0,1172a <_vfprintf_r+0x4c6>
   11728:	dd62                	sw	s8,184(sp)
   1172a:	06100713          	li	a4,97
   1172e:	00e31463          	bne	t1,a4,11736 <_vfprintf_r+0x4d2>
   11732:	5ea0106f          	j	12d1c <_vfprintf_r+0x1ab8>
   11736:	6765                	lui	a4,0x19
   11738:	a5870793          	addi	a5,a4,-1448 # 18a58 <__clzdi2+0x82>
   1173c:	f83e                	sd	a5,48(sp)
   1173e:	020b1713          	slli	a4,s6,0x20
   11742:	9301                	srli	a4,a4,0x20
   11744:	0705                	addi	a4,a4,1
   11746:	040036b7          	lui	a3,0x4003
   1174a:	000b081b          	sext.w	a6,s6
   1174e:	00ed07b3          	add	a5,s10,a4
   11752:	1692                	slli	a3,a3,0x24
   11754:	fc4e                	sd	s3,56(sp)
   11756:	f8a2                	sd	s0,112(sp)
   11758:	8c4a                	mv	s8,s2
   1175a:	7b42                	ld	s6,48(sp)
   1175c:	e942                	sd	a6,144(sp)
   1175e:	e09a                	sd	t1,64(sp)
   11760:	e4de                	sd	s7,72(sp)
   11762:	89ea                	mv	s3,s10
   11764:	893e                	mv	s2,a5
   11766:	8436                	mv	s0,a3
   11768:	a801                	j	11778 <_vfprintf_r+0x514>
   1176a:	4601                	li	a2,0
   1176c:	4681                	li	a3,0
   1176e:	09a060ef          	jal	17808 <__eqtf2>
   11772:	e119                	bnez	a0,11778 <_vfprintf_r+0x514>
   11774:	5400106f          	j	12cb4 <_vfprintf_r+0x1a50>
   11778:	4601                	li	a2,0
   1177a:	86a2                	mv	a3,s0
   1177c:	8566                	mv	a0,s9
   1177e:	85a6                	mv	a1,s1
   11780:	26c060ef          	jal	179ec <__multf3>
   11784:	84ae                	mv	s1,a1
   11786:	8caa                	mv	s9,a0
   11788:	0a2070ef          	jal	1882a <__fixtfsi>
   1178c:	00050b9b          	sext.w	s7,a0
   11790:	130070ef          	jal	188c0 <__floatsitf>
   11794:	86ae                	mv	a3,a1
   11796:	862a                	mv	a2,a0
   11798:	85a6                	mv	a1,s1
   1179a:	8566                	mv	a0,s9
   1179c:	047060ef          	jal	17fe2 <__subtf3>
   117a0:	017b06b3          	add	a3,s6,s7
   117a4:	0006c683          	lbu	a3,0(a3) # 4003000 <__BSS_END__+0x3fe7c58>
   117a8:	88ce                	mv	a7,s3
   117aa:	0985                	addi	s3,s3,1
   117ac:	fed98fa3          	sb	a3,-1(s3)
   117b0:	8caa                	mv	s9,a0
   117b2:	84ae                	mv	s1,a1
   117b4:	fb391be3          	bne	s2,s3,1176a <_vfprintf_r+0x506>
   117b8:	6306                	ld	t1,64(sp)
   117ba:	01fff6b7          	lui	a3,0x1fff
   117be:	1696                	slli	a3,a3,0x25
   117c0:	4601                	li	a2,0
   117c2:	e91a                	sd	t1,144(sp)
   117c4:	e0c6                	sd	a7,64(sp)
   117c6:	8b5e                	mv	s6,s7
   117c8:	6ba6                	ld	s7,72(sp)
   117ca:	e4b6                	sd	a3,72(sp)
   117cc:	0e4060ef          	jal	178b0 <__getf2>
   117d0:	8962                	mv	s2,s8
   117d2:	7446                	ld	s0,112(sp)
   117d4:	8c4e                	mv	s8,s3
   117d6:	6886                	ld	a7,64(sp)
   117d8:	79e2                	ld	s3,56(sp)
   117da:	634a                	ld	t1,144(sp)
   117dc:	02a04063          	bgtz	a0,117fc <_vfprintf_r+0x598>
   117e0:	66a6                	ld	a3,72(sp)
   117e2:	4601                	li	a2,0
   117e4:	8566                	mv	a0,s9
   117e6:	85a6                	mv	a1,s1
   117e8:	fc1a                	sd	t1,56(sp)
   117ea:	01e060ef          	jal	17808 <__eqtf2>
   117ee:	7362                	ld	t1,56(sp)
   117f0:	e539                	bnez	a0,1183e <_vfprintf_r+0x5da>
   117f2:	001b7b13          	andi	s6,s6,1
   117f6:	6886                	ld	a7,64(sp)
   117f8:	040b0363          	beqz	s6,1183e <_vfprintf_r+0x5da>
   117fc:	77c2                	ld	a5,48(sp)
   117fe:	e5c6                	sd	a7,200(sp)
   11800:	fffc4603          	lbu	a2,-1(s8)
   11804:	00f7c583          	lbu	a1,15(a5)
   11808:	86e2                	mv	a3,s8
   1180a:	00c59e63          	bne	a1,a2,11826 <_vfprintf_r+0x5c2>
   1180e:	03000513          	li	a0,48
   11812:	fea68fa3          	sb	a0,-1(a3) # 1ffefff <__BSS_END__+0x1fe3c57>
   11816:	66ae                	ld	a3,200(sp)
   11818:	fff68793          	addi	a5,a3,-1
   1181c:	e5be                	sd	a5,200(sp)
   1181e:	fff6c603          	lbu	a2,-1(a3)
   11822:	fec588e3          	beq	a1,a2,11812 <_vfprintf_r+0x5ae>
   11826:	0016059b          	addiw	a1,a2,1
   1182a:	03900513          	li	a0,57
   1182e:	0ff5f593          	zext.b	a1,a1
   11832:	00a61463          	bne	a2,a0,1183a <_vfprintf_r+0x5d6>
   11836:	0f40106f          	j	1292a <_vfprintf_r+0x16c6>
   1183a:	feb68fa3          	sb	a1,-1(a3)
   1183e:	86e2                	mv	a3,s8
   11840:	57ea                	lw	a5,184(sp)
   11842:	41a6873b          	subw	a4,a3,s10
   11846:	fc3a                	sd	a4,56(sp)
   11848:	fff7871b          	addiw	a4,a5,-1
   1184c:	f83e                	sd	a5,48(sp)
   1184e:	06100613          	li	a2,97
   11852:	dd3a                	sw	a4,184(sp)
   11854:	00c31463          	bne	t1,a2,1185c <_vfprintf_r+0x5f8>
   11858:	4d80106f          	j	12d30 <_vfprintf_r+0x1acc>
   1185c:	04100613          	li	a2,65
   11860:	05000693          	li	a3,80
   11864:	00c30463          	beq	t1,a2,1186c <_vfprintf_r+0x608>
   11868:	0b80106f          	j	12920 <_vfprintf_r+0x16bc>
   1186c:	4605                	li	a2,1
   1186e:	0cd10023          	sb	a3,192(sp)
   11872:	02b00693          	li	a3,43
   11876:	00075763          	bgez	a4,11884 <_vfprintf_r+0x620>
   1187a:	77c2                	ld	a5,48(sp)
   1187c:	4705                	li	a4,1
   1187e:	02d00693          	li	a3,45
   11882:	9f1d                	subw	a4,a4,a5
   11884:	0cd100a3          	sb	a3,193(sp)
   11888:	46a5                	li	a3,9
   1188a:	00e6c463          	blt	a3,a4,11892 <_vfprintf_r+0x62e>
   1188e:	33a0106f          	j	12bc8 <_vfprintf_r+0x1964>
   11892:	0cf10893          	addi	a7,sp,207
   11896:	8546                	mv	a0,a7
   11898:	4829                	li	a6,10
   1189a:	06300f13          	li	t5,99
   1189e:	030767bb          	remw	a5,a4,a6
   118a2:	86aa                	mv	a3,a0
   118a4:	863a                	mv	a2,a4
   118a6:	157d                	addi	a0,a0,-1
   118a8:	0307879b          	addiw	a5,a5,48
   118ac:	fef68fa3          	sb	a5,-1(a3)
   118b0:	0307473b          	divw	a4,a4,a6
   118b4:	fecf45e3          	blt	t5,a2,1189e <_vfprintf_r+0x63a>
   118b8:	0307059b          	addiw	a1,a4,48
   118bc:	feb50fa3          	sb	a1,-1(a0)
   118c0:	ffe68713          	addi	a4,a3,-2
   118c4:	01176463          	bltu	a4,a7,118cc <_vfprintf_r+0x668>
   118c8:	4a00106f          	j	12d68 <_vfprintf_r+0x1b04>
   118cc:	0c210613          	addi	a2,sp,194
   118d0:	00074783          	lbu	a5,0(a4)
   118d4:	0705                	addi	a4,a4,1
   118d6:	0605                	addi	a2,a2,1
   118d8:	fef60fa3          	sb	a5,-1(a2)
   118dc:	ff171ae3          	bne	a4,a7,118d0 <_vfprintf_r+0x66c>
   118e0:	139c                	addi	a5,sp,480
   118e2:	40d786b3          	sub	a3,a5,a3
   118e6:	ef36879b          	addiw	a5,a3,-269
   118ea:	f8be                	sd	a5,112(sp)
   118ec:	7746                	ld	a4,112(sp)
   118ee:	77e2                	ld	a5,56(sp)
   118f0:	4605                	li	a2,1
   118f2:	00e786bb          	addw	a3,a5,a4
   118f6:	8736                	mv	a4,a3
   118f8:	00f64463          	blt	a2,a5,11900 <_vfprintf_r+0x69c>
   118fc:	2f60106f          	j	12bf2 <_vfprintf_r+0x198e>
   11900:	67c6                	ld	a5,80(sp)
   11902:	00f706bb          	addw	a3,a4,a5
   11906:	fff6c813          	not	a6,a3
   1190a:	bffdfe13          	andi	t3,s11,-1025
   1190e:	43f85813          	srai	a6,a6,0x3f
   11912:	2e01                	sext.w	t3,t3
   11914:	0106f833          	and	a6,a3,a6
   11918:	100e6d93          	ori	s11,t3,256
   1191c:	00080c1b          	sext.w	s8,a6
   11920:	e482                	sd	zero,72(sp)
   11922:	e082                	sd	zero,64(sp)
   11924:	f802                	sd	zero,48(sp)
   11926:	77a6                	ld	a5,104(sp)
   11928:	e399                	bnez	a5,1192e <_vfprintf_r+0x6ca>
   1192a:	00e0106f          	j	12938 <_vfprintf_r+0x16d4>
   1192e:	02d00713          	li	a4,45
   11932:	0ae107a3          	sb	a4,175(sp)
   11936:	4b01                	li	s6,0
   11938:	2c05                	addiw	s8,s8,1
   1193a:	b4f9                	j	11408 <_vfprintf_r+0x1a4>
   1193c:	6522                	ld	a0,8(sp)
   1193e:	1190                	addi	a2,sp,224
   11940:	85ca                	mv	a1,s2
   11942:	ed36                	sd	a3,152(sp)
   11944:	e91a                	sd	t1,144(sp)
   11946:	f496                	sd	t0,104(sp)
   11948:	506010ef          	jal	12e4e <__sprint_r>
   1194c:	58051563          	bnez	a0,11ed6 <_vfprintf_r+0xc72>
   11950:	74ce                	ld	s1,240(sp)
   11952:	66ea                	ld	a3,152(sp)
   11954:	634a                	ld	t1,144(sp)
   11956:	72a6                	ld	t0,104(sp)
   11958:	8452                	mv	s0,s4
   1195a:	bcc5                	j	1144a <_vfprintf_r+0x1e6>
   1195c:	572e                	lw	a4,232(sp)
   1195e:	77e2                	ld	a5,56(sp)
   11960:	4685                	li	a3,1
   11962:	00170b1b          	addiw	s6,a4,1
   11966:	01a43023          	sd	s10,0(s0)
   1196a:	0485                	addi	s1,s1,1
   1196c:	875a                	mv	a4,s6
   1196e:	01040c93          	addi	s9,s0,16
   11972:	7cf6d363          	bge	a3,a5,12138 <_vfprintf_r+0xed4>
   11976:	4685                	li	a3,1
   11978:	d5ba                	sw	a4,232(sp)
   1197a:	e414                	sd	a3,8(s0)
   1197c:	f9a6                	sd	s1,240(sp)
   1197e:	471d                	li	a4,7
   11980:	2b6744e3          	blt	a4,s6,12428 <_vfprintf_r+0x11c4>
   11984:	67c6                	ld	a5,80(sp)
   11986:	66e6                	ld	a3,88(sp)
   11988:	2b05                	addiw	s6,s6,1
   1198a:	94be                	add	s1,s1,a5
   1198c:	00dcb023          	sd	a3,0(s9)
   11990:	00fcb423          	sd	a5,8(s9)
   11994:	f9a6                	sd	s1,240(sp)
   11996:	d5da                	sw	s6,232(sp)
   11998:	471d                	li	a4,7
   1199a:	0cc1                	addi	s9,s9,16
   1199c:	2b6742e3          	blt	a4,s6,12440 <_vfprintf_r+0x11dc>
   119a0:	77e2                	ld	a5,56(sp)
   119a2:	654e                	ld	a0,208(sp)
   119a4:	65ee                	ld	a1,216(sp)
   119a6:	4601                	li	a2,0
   119a8:	4681                	li	a3,0
   119aa:	fff7841b          	addiw	s0,a5,-1
   119ae:	65b050ef          	jal	17808 <__eqtf2>
   119b2:	7a050863          	beqz	a0,12162 <_vfprintf_r+0xefe>
   119b6:	001d0793          	addi	a5,s10,1
   119ba:	2b05                	addiw	s6,s6,1
   119bc:	94a2                	add	s1,s1,s0
   119be:	00fcb023          	sd	a5,0(s9)
   119c2:	008cb423          	sd	s0,8(s9)
   119c6:	f9a6                	sd	s1,240(sp)
   119c8:	d5da                	sw	s6,232(sp)
   119ca:	479d                	li	a5,7
   119cc:	7967c063          	blt	a5,s6,1214c <_vfprintf_r+0xee8>
   119d0:	0cc1                	addi	s9,s9,16
   119d2:	7746                	ld	a4,112(sp)
   119d4:	2b05                	addiw	s6,s6,1
   119d6:	019c                	addi	a5,sp,192
   119d8:	94ba                	add	s1,s1,a4
   119da:	00fcb023          	sd	a5,0(s9)
   119de:	00ecb423          	sd	a4,8(s9)
   119e2:	f9a6                	sd	s1,240(sp)
   119e4:	000b071b          	sext.w	a4,s6
   119e8:	d5da                	sw	s6,232(sp)
   119ea:	479d                	li	a5,7
   119ec:	010c8413          	addi	s0,s9,16
   119f0:	aae7d6e3          	bge	a5,a4,1149c <_vfprintf_r+0x238>
   119f4:	6522                	ld	a0,8(sp)
   119f6:	1190                	addi	a2,sp,224
   119f8:	85ca                	mv	a1,s2
   119fa:	454010ef          	jal	12e4e <__sprint_r>
   119fe:	4c051c63          	bnez	a0,11ed6 <_vfprintf_r+0xc72>
   11a02:	74ce                	ld	s1,240(sp)
   11a04:	8452                	mv	s0,s4
   11a06:	bc59                	j	1149c <_vfprintf_r+0x238>
   11a08:	010df793          	andi	a5,s11,16
   11a0c:	7e079263          	bnez	a5,121f0 <_vfprintf_r+0xf8c>
   11a10:	7682                	ld	a3,32(sp)
   11a12:	040df793          	andi	a5,s11,64
   11a16:	4284                	lw	s1,0(a3)
   11a18:	3e0780e3          	beqz	a5,125f8 <_vfprintf_r+0x1394>
   11a1c:	14c2                	slli	s1,s1,0x30
   11a1e:	90c1                	srli	s1,s1,0x30
   11a20:	be6d                	j	115da <_vfprintf_r+0x376>
   11a22:	010df793          	andi	a5,s11,16
   11a26:	00079de3          	bnez	a5,12240 <_vfprintf_r+0xfdc>
   11a2a:	7682                	ld	a3,32(sp)
   11a2c:	040df793          	andi	a5,s11,64
   11a30:	4284                	lw	s1,0(a3)
   11a32:	3c078be3          	beqz	a5,12608 <_vfprintf_r+0x13a4>
   11a36:	0104949b          	slliw	s1,s1,0x10
   11a3a:	4104d49b          	sraiw	s1,s1,0x10
   11a3e:	87a6                	mv	a5,s1
   11a40:	b407d0e3          	bgez	a5,11580 <_vfprintf_r+0x31c>
   11a44:	f03a                	sd	a4,32(sp)
   11a46:	02d00713          	li	a4,45
   11a4a:	0ae107a3          	sb	a4,175(sp)
   11a4e:	409004b3          	neg	s1,s1
   11a52:	8cee                	mv	s9,s11
   11a54:	4785                	li	a5,1
   11a56:	b80b5ce3          	bgez	s6,115ee <_vfprintf_r+0x38a>
   11a5a:	4705                	li	a4,1
   11a5c:	48e78963          	beq	a5,a4,11eee <_vfprintf_r+0xc8a>
   11a60:	4709                	li	a4,2
   11a62:	30e78163          	beq	a5,a4,11d64 <_vfprintf_r+0xb00>
   11a66:	0af4                	addi	a3,sp,348
   11a68:	8d36                	mv	s10,a3
   11a6a:	0074f713          	andi	a4,s1,7
   11a6e:	03070713          	addi	a4,a4,48
   11a72:	feed0fa3          	sb	a4,-1(s10)
   11a76:	808d                	srli	s1,s1,0x3
   11a78:	866a                	mv	a2,s10
   11a7a:	1d7d                	addi	s10,s10,-1
   11a7c:	f4fd                	bnez	s1,11a6a <_vfprintf_r+0x806>
   11a7e:	001cf593          	andi	a1,s9,1
   11a82:	2e058e63          	beqz	a1,11d7e <_vfprintf_r+0xb1a>
   11a86:	03000593          	li	a1,48
   11a8a:	2eb70a63          	beq	a4,a1,11d7e <_vfprintf_r+0xb1a>
   11a8e:	1679                	addi	a2,a2,-2
   11a90:	febd0fa3          	sb	a1,-1(s10)
   11a94:	9e91                	subw	a3,a3,a2
   11a96:	8de6                	mv	s11,s9
   11a98:	8d32                	mv	s10,a2
   11a9a:	b621                	j	115a2 <_vfprintf_r+0x33e>
   11a9c:	7782                	ld	a5,32(sp)
   11a9e:	0a0107a3          	sb	zero,175(sp)
   11aa2:	0007bd03          	ld	s10,0(a5)
   11aa6:	00878493          	addi	s1,a5,8
   11aaa:	080d0ae3          	beqz	s10,1233e <_vfprintf_r+0x10da>
   11aae:	280b4fe3          	bltz	s6,1254c <_vfprintf_r+0x12e8>
   11ab2:	865a                	mv	a2,s6
   11ab4:	4581                	li	a1,0
   11ab6:	856a                	mv	a0,s10
   11ab8:	f01a                	sd	t1,32(sp)
   11aba:	2cd010ef          	jal	13586 <memchr>
   11abe:	ec2a                	sd	a0,24(sp)
   11ac0:	7302                	ld	t1,32(sp)
   11ac2:	e119                	bnez	a0,11ac8 <_vfprintf_r+0x864>
   11ac4:	7b90006f          	j	12a7c <_vfprintf_r+0x1818>
   11ac8:	67e2                	ld	a5,24(sp)
   11aca:	0af14703          	lbu	a4,175(sp)
   11ace:	f026                	sd	s1,32(sp)
   11ad0:	41a786bb          	subw	a3,a5,s10
   11ad4:	fff6c813          	not	a6,a3
   11ad8:	43f85813          	srai	a6,a6,0x3f
   11adc:	ec02                	sd	zero,24(sp)
   11ade:	e482                	sd	zero,72(sp)
   11ae0:	e082                	sd	zero,64(sp)
   11ae2:	f802                	sd	zero,48(sp)
   11ae4:	00d87c33          	and	s8,a6,a3
   11ae8:	4b01                	li	s6,0
   11aea:	ac071ae3          	bnez	a4,115be <_vfprintf_r+0x35a>
   11aee:	ba29                	j	11408 <_vfprintf_r+0x1a4>
   11af0:	7702                	ld	a4,32(sp)
   11af2:	0a0107a3          	sb	zero,175(sp)
   11af6:	4c05                	li	s8,1
   11af8:	431c                	lw	a5,0(a4)
   11afa:	0721                	addi	a4,a4,8
   11afc:	f03a                	sd	a4,32(sp)
   11afe:	0ef10c23          	sb	a5,248(sp)
   11b02:	4685                	li	a3,1
   11b04:	0f810d13          	addi	s10,sp,248
   11b08:	b8dd                	j	113fe <_vfprintf_r+0x19a>
   11b0a:	7782                	ld	a5,32(sp)
   11b0c:	0007ab83          	lw	s7,0(a5)
   11b10:	07a1                	addi	a5,a5,8
   11b12:	6c0bda63          	bgez	s7,121e6 <_vfprintf_r+0xf82>
   11b16:	41700bbb          	negw	s7,s7
   11b1a:	f03e                	sd	a5,32(sp)
   11b1c:	004ded93          	ori	s11,s11,4
   11b20:	0009c303          	lbu	t1,0(s3)
   11b24:	2d81                	sext.w	s11,s11
   11b26:	b0bd                	j	11394 <_vfprintf_r+0x130>
   11b28:	02b00793          	li	a5,43
   11b2c:	0009c303          	lbu	t1,0(s3)
   11b30:	0af107a3          	sb	a5,175(sp)
   11b34:	b085                	j	11394 <_vfprintf_r+0x130>
   11b36:	080ded93          	ori	s11,s11,128
   11b3a:	0009c303          	lbu	t1,0(s3)
   11b3e:	2d81                	sext.w	s11,s11
   11b40:	b891                	j	11394 <_vfprintf_r+0x130>
   11b42:	0009c303          	lbu	t1,0(s3)
   11b46:	02a00693          	li	a3,42
   11b4a:	00198713          	addi	a4,s3,1
   11b4e:	00d31463          	bne	t1,a3,11b56 <_vfprintf_r+0x8f2>
   11b52:	21e0106f          	j	12d70 <_vfprintf_r+0x1b0c>
   11b56:	fd03079b          	addiw	a5,t1,-48
   11b5a:	45a5                	li	a1,9
   11b5c:	4681                	li	a3,0
   11b5e:	4625                	li	a2,9
   11b60:	89ba                	mv	s3,a4
   11b62:	4b01                	li	s6,0
   11b64:	82f5eae3          	bltu	a1,a5,11398 <_vfprintf_r+0x134>
   11b68:	00074303          	lbu	t1,0(a4)
   11b6c:	00269b1b          	slliw	s6,a3,0x2
   11b70:	00db0b3b          	addw	s6,s6,a3
   11b74:	001b1b1b          	slliw	s6,s6,0x1
   11b78:	00fb06bb          	addw	a3,s6,a5
   11b7c:	fd03079b          	addiw	a5,t1,-48
   11b80:	8b36                	mv	s6,a3
   11b82:	0705                	addi	a4,a4,1
   11b84:	fef672e3          	bgeu	a2,a5,11b68 <_vfprintf_r+0x904>
   11b88:	7206c563          	bltz	a3,122b2 <_vfprintf_r+0x104e>
   11b8c:	89ba                	mv	s3,a4
   11b8e:	80bff06f          	j	11398 <_vfprintf_r+0x134>
   11b92:	010dec93          	ori	s9,s11,16
   11b96:	2c81                	sext.w	s9,s9
   11b98:	7682                	ld	a3,32(sp)
   11b9a:	020cf793          	andi	a5,s9,32
   11b9e:	00868713          	addi	a4,a3,8
   11ba2:	60078963          	beqz	a5,121b4 <_vfprintf_r+0xf50>
   11ba6:	6284                	ld	s1,0(a3)
   11ba8:	4785                	li	a5,1
   11baa:	f03a                	sd	a4,32(sp)
   11bac:	bc25                	j	115e4 <_vfprintf_r+0x380>
   11bae:	001ded93          	ori	s11,s11,1
   11bb2:	0009c303          	lbu	t1,0(s3)
   11bb6:	2d81                	sext.w	s11,s11
   11bb8:	fdcff06f          	j	11394 <_vfprintf_r+0x130>
   11bbc:	0af14783          	lbu	a5,175(sp)
   11bc0:	0009c303          	lbu	t1,0(s3)
   11bc4:	fc079863          	bnez	a5,11394 <_vfprintf_r+0x130>
   11bc8:	02000793          	li	a5,32
   11bcc:	0af107a3          	sb	a5,175(sp)
   11bd0:	fc4ff06f          	j	11394 <_vfprintf_r+0x130>
   11bd4:	6c22                	ld	s8,8(sp)
   11bd6:	8562                	mv	a0,s8
   11bd8:	2f7010ef          	jal	136ce <_localeconv_r>
   11bdc:	651c                	ld	a5,8(a0)
   11bde:	853e                	mv	a0,a5
   11be0:	fcbe                	sd	a5,120(sp)
   11be2:	57b010ef          	jal	1395c <strlen>
   11be6:	87aa                	mv	a5,a0
   11be8:	8562                	mv	a0,s8
   11bea:	e53e                	sd	a5,136(sp)
   11bec:	8c3e                	mv	s8,a5
   11bee:	2e1010ef          	jal	136ce <_localeconv_r>
   11bf2:	691c                	ld	a5,16(a0)
   11bf4:	0009c303          	lbu	t1,0(s3)
   11bf8:	e13e                	sd	a5,128(sp)
   11bfa:	f80c0d63          	beqz	s8,11394 <_vfprintf_r+0x130>
   11bfe:	f8078b63          	beqz	a5,11394 <_vfprintf_r+0x130>
   11c02:	0007c783          	lbu	a5,0(a5)
   11c06:	f8078763          	beqz	a5,11394 <_vfprintf_r+0x130>
   11c0a:	400ded93          	ori	s11,s11,1024
   11c0e:	2d81                	sext.w	s11,s11
   11c10:	f84ff06f          	j	11394 <_vfprintf_r+0x130>
   11c14:	008ded93          	ori	s11,s11,8
   11c18:	0009c303          	lbu	t1,0(s3)
   11c1c:	2d81                	sext.w	s11,s11
   11c1e:	f76ff06f          	j	11394 <_vfprintf_r+0x130>
   11c22:	020ded93          	ori	s11,s11,32
   11c26:	0009c303          	lbu	t1,0(s3)
   11c2a:	2d81                	sext.w	s11,s11
   11c2c:	f68ff06f          	j	11394 <_vfprintf_r+0x130>
   11c30:	7702                	ld	a4,32(sp)
   11c32:	67a1                	lui	a5,0x8
   11c34:	83078793          	addi	a5,a5,-2000 # 7830 <exit-0x88b8>
   11c38:	0af11823          	sh	a5,176(sp)
   11c3c:	00870793          	addi	a5,a4,8
   11c40:	f03e                	sd	a5,32(sp)
   11c42:	67e5                	lui	a5,0x19
   11c44:	a4078793          	addi	a5,a5,-1472 # 18a40 <__clzdi2+0x6a>
   11c48:	002dec93          	ori	s9,s11,2
   11c4c:	f0be                	sd	a5,96(sp)
   11c4e:	6304                	ld	s1,0(a4)
   11c50:	2c81                	sext.w	s9,s9
   11c52:	4789                	li	a5,2
   11c54:	07800313          	li	t1,120
   11c58:	b271                	j	115e4 <_vfprintf_r+0x380>
   11c5a:	7702                	ld	a4,32(sp)
   11c5c:	020df793          	andi	a5,s11,32
   11c60:	6318                	ld	a4,0(a4)
   11c62:	5a078163          	beqz	a5,12204 <_vfprintf_r+0xfa0>
   11c66:	67c2                	ld	a5,16(sp)
   11c68:	e31c                	sd	a5,0(a4)
   11c6a:	7782                	ld	a5,32(sp)
   11c6c:	8d4e                	mv	s10,s3
   11c6e:	07a1                	addi	a5,a5,8
   11c70:	f03e                	sd	a5,32(sp)
   11c72:	b8b9                	j	114d0 <_vfprintf_r+0x26c>
   11c74:	0009c303          	lbu	t1,0(s3)
   11c78:	06c00793          	li	a5,108
   11c7c:	68f30f63          	beq	t1,a5,1231a <_vfprintf_r+0x10b6>
   11c80:	010ded93          	ori	s11,s11,16
   11c84:	2d81                	sext.w	s11,s11
   11c86:	f0eff06f          	j	11394 <_vfprintf_r+0x130>
   11c8a:	0009c303          	lbu	t1,0(s3)
   11c8e:	06800793          	li	a5,104
   11c92:	66f30c63          	beq	t1,a5,1230a <_vfprintf_r+0x10a6>
   11c96:	040ded93          	ori	s11,s11,64
   11c9a:	2d81                	sext.w	s11,s11
   11c9c:	ef8ff06f          	j	11394 <_vfprintf_r+0x130>
   11ca0:	06500713          	li	a4,101
   11ca4:	ca675ce3          	bge	a4,t1,1195c <_vfprintf_r+0x6f8>
   11ca8:	654e                	ld	a0,208(sp)
   11caa:	65ee                	ld	a1,216(sp)
   11cac:	4601                	li	a2,0
   11cae:	4681                	li	a3,0
   11cb0:	359050ef          	jal	17808 <__eqtf2>
   11cb4:	38051463          	bnez	a0,1203c <_vfprintf_r+0xdd8>
   11cb8:	57ae                	lw	a5,232(sp)
   11cba:	6765                	lui	a4,0x19
   11cbc:	a7870713          	addi	a4,a4,-1416 # 18a78 <__clzdi2+0xa2>
   11cc0:	2785                	addiw	a5,a5,1
   11cc2:	e018                	sd	a4,0(s0)
   11cc4:	0485                	addi	s1,s1,1
   11cc6:	4705                	li	a4,1
   11cc8:	e418                	sd	a4,8(s0)
   11cca:	d5be                	sw	a5,232(sp)
   11ccc:	0007871b          	sext.w	a4,a5
   11cd0:	f9a6                	sd	s1,240(sp)
   11cd2:	479d                	li	a5,7
   11cd4:	0441                	addi	s0,s0,16
   11cd6:	7ee7c963          	blt	a5,a4,124c8 <_vfprintf_r+0x1264>
   11cda:	57ea                	lw	a5,184(sp)
   11cdc:	7762                	ld	a4,56(sp)
   11cde:	4ee7df63          	bge	a5,a4,121dc <_vfprintf_r+0xf78>
   11ce2:	6746                	ld	a4,80(sp)
   11ce4:	57ae                	lw	a5,232(sp)
   11ce6:	66e6                	ld	a3,88(sp)
   11ce8:	94ba                	add	s1,s1,a4
   11cea:	2785                	addiw	a5,a5,1
   11cec:	e418                	sd	a4,8(s0)
   11cee:	e014                	sd	a3,0(s0)
   11cf0:	0007871b          	sext.w	a4,a5
   11cf4:	d5be                	sw	a5,232(sp)
   11cf6:	f9a6                	sd	s1,240(sp)
   11cf8:	479d                	li	a5,7
   11cfa:	0441                	addi	s0,s0,16
   11cfc:	62e7c763          	blt	a5,a4,1232a <_vfprintf_r+0x10c6>
   11d00:	77e2                	ld	a5,56(sp)
   11d02:	fff78b1b          	addiw	s6,a5,-1
   11d06:	f9605b63          	blez	s6,1149c <_vfprintf_r+0x238>
   11d0a:	68e5                	lui	a7,0x19
   11d0c:	4741                	li	a4,16
   11d0e:	57ae                	lw	a5,232(sp)
   11d10:	d1888893          	addi	a7,a7,-744 # 18d18 <zeroes.0>
   11d14:	7d675863          	bge	a4,s6,124e4 <_vfprintf_r+0x1280>
   11d18:	f84e                	sd	s3,48(sp)
   11d1a:	4cc1                	li	s9,16
   11d1c:	89da                	mv	s3,s6
   11d1e:	4d1d                	li	s10,7
   11d20:	8b46                	mv	s6,a7
   11d22:	a021                	j	11d2a <_vfprintf_r+0xac6>
   11d24:	39c1                	addiw	s3,s3,-16
   11d26:	7b3cdc63          	bge	s9,s3,124de <_vfprintf_r+0x127a>
   11d2a:	2785                	addiw	a5,a5,1
   11d2c:	04c1                	addi	s1,s1,16
   11d2e:	01643023          	sd	s6,0(s0)
   11d32:	01943423          	sd	s9,8(s0)
   11d36:	f9a6                	sd	s1,240(sp)
   11d38:	d5be                	sw	a5,232(sp)
   11d3a:	0441                	addi	s0,s0,16
   11d3c:	fefd54e3          	bge	s10,a5,11d24 <_vfprintf_r+0xac0>
   11d40:	6522                	ld	a0,8(sp)
   11d42:	1190                	addi	a2,sp,224
   11d44:	85ca                	mv	a1,s2
   11d46:	108010ef          	jal	12e4e <__sprint_r>
   11d4a:	18051663          	bnez	a0,11ed6 <_vfprintf_r+0xc72>
   11d4e:	74ce                	ld	s1,240(sp)
   11d50:	57ae                	lw	a5,232(sp)
   11d52:	8452                	mv	s0,s4
   11d54:	bfc1                	j	11d24 <_vfprintf_r+0xac0>
   11d56:	4705                	li	a4,1
   11d58:	58e78fe3          	beq	a5,a4,12af6 <_vfprintf_r+0x1892>
   11d5c:	4709                	li	a4,2
   11d5e:	8cee                	mv	s9,s11
   11d60:	d0e793e3          	bne	a5,a4,11a66 <_vfprintf_r+0x802>
   11d64:	7706                	ld	a4,96(sp)
   11d66:	0af4                	addi	a3,sp,348
   11d68:	8d36                	mv	s10,a3
   11d6a:	00f4f793          	andi	a5,s1,15
   11d6e:	97ba                	add	a5,a5,a4
   11d70:	0007c783          	lbu	a5,0(a5)
   11d74:	8091                	srli	s1,s1,0x4
   11d76:	1d7d                	addi	s10,s10,-1
   11d78:	00fd0023          	sb	a5,0(s10)
   11d7c:	f4fd                	bnez	s1,11d6a <_vfprintf_r+0xb06>
   11d7e:	41a686bb          	subw	a3,a3,s10
   11d82:	8de6                	mv	s11,s9
   11d84:	81fff06f          	j	115a2 <_vfprintf_r+0x33e>
   11d88:	418b8cbb          	subw	s9,s7,s8
   11d8c:	ef905463          	blez	s9,11474 <_vfprintf_r+0x210>
   11d90:	68e5                	lui	a7,0x19
   11d92:	45c1                	li	a1,16
   11d94:	562e                	lw	a2,232(sp)
   11d96:	d1888893          	addi	a7,a7,-744 # 18d18 <zeroes.0>
   11d9a:	0595df63          	bge	a1,s9,11df8 <_vfprintf_r+0xb94>
   11d9e:	87a2                	mv	a5,s0
   11da0:	8726                	mv	a4,s1
   11da2:	8466                	mv	s0,s9
   11da4:	4f41                	li	t5,16
   11da6:	8ce2                	mv	s9,s8
   11da8:	4f9d                	li	t6,7
   11daa:	f49a                	sd	t1,104(sp)
   11dac:	8c36                	mv	s8,a3
   11dae:	84c6                	mv	s1,a7
   11db0:	a021                	j	11db8 <_vfprintf_r+0xb54>
   11db2:	3441                	addiw	s0,s0,-16
   11db4:	028f5b63          	bge	t5,s0,11dea <_vfprintf_r+0xb86>
   11db8:	2605                	addiw	a2,a2,1
   11dba:	0741                	addi	a4,a4,16
   11dbc:	e384                	sd	s1,0(a5)
   11dbe:	01e7b423          	sd	t5,8(a5)
   11dc2:	f9ba                	sd	a4,240(sp)
   11dc4:	d5b2                	sw	a2,232(sp)
   11dc6:	07c1                	addi	a5,a5,16
   11dc8:	fecfd5e3          	bge	t6,a2,11db2 <_vfprintf_r+0xb4e>
   11dcc:	6522                	ld	a0,8(sp)
   11dce:	1190                	addi	a2,sp,224
   11dd0:	85ca                	mv	a1,s2
   11dd2:	07c010ef          	jal	12e4e <__sprint_r>
   11dd6:	10051063          	bnez	a0,11ed6 <_vfprintf_r+0xc72>
   11dda:	4f41                	li	t5,16
   11ddc:	3441                	addiw	s0,s0,-16
   11dde:	774e                	ld	a4,240(sp)
   11de0:	562e                	lw	a2,232(sp)
   11de2:	87d2                	mv	a5,s4
   11de4:	4f9d                	li	t6,7
   11de6:	fc8f49e3          	blt	t5,s0,11db8 <_vfprintf_r+0xb54>
   11dea:	7326                	ld	t1,104(sp)
   11dec:	86e2                	mv	a3,s8
   11dee:	88a6                	mv	a7,s1
   11df0:	8c66                	mv	s8,s9
   11df2:	84ba                	mv	s1,a4
   11df4:	8ca2                	mv	s9,s0
   11df6:	843e                	mv	s0,a5
   11df8:	0016059b          	addiw	a1,a2,1
   11dfc:	94e6                	add	s1,s1,s9
   11dfe:	01143023          	sd	a7,0(s0)
   11e02:	01943423          	sd	s9,8(s0)
   11e06:	f9a6                	sd	s1,240(sp)
   11e08:	d5ae                	sw	a1,232(sp)
   11e0a:	471d                	li	a4,7
   11e0c:	0441                	addi	s0,s0,16
   11e0e:	e6b75363          	bge	a4,a1,11474 <_vfprintf_r+0x210>
   11e12:	6522                	ld	a0,8(sp)
   11e14:	1190                	addi	a2,sp,224
   11e16:	85ca                	mv	a1,s2
   11e18:	e936                	sd	a3,144(sp)
   11e1a:	f49a                	sd	t1,104(sp)
   11e1c:	032010ef          	jal	12e4e <__sprint_r>
   11e20:	e95d                	bnez	a0,11ed6 <_vfprintf_r+0xc72>
   11e22:	74ce                	ld	s1,240(sp)
   11e24:	66ca                	ld	a3,144(sp)
   11e26:	7326                	ld	t1,104(sp)
   11e28:	8452                	mv	s0,s4
   11e2a:	e4aff06f          	j	11474 <_vfprintf_r+0x210>
   11e2e:	68e5                	lui	a7,0x19
   11e30:	4741                	li	a4,16
   11e32:	562e                	lw	a2,232(sp)
   11e34:	d1888893          	addi	a7,a7,-744 # 18d18 <zeroes.0>
   11e38:	05675d63          	bge	a4,s6,11e92 <_vfprintf_r+0xc2e>
   11e3c:	85a6                	mv	a1,s1
   11e3e:	87a2                	mv	a5,s0
   11e40:	84b6                	mv	s1,a3
   11e42:	845a                	mv	s0,s6
   11e44:	4741                	li	a4,16
   11e46:	4c9d                	li	s9,7
   11e48:	f49a                	sd	t1,104(sp)
   11e4a:	8b56                	mv	s6,s5
   11e4c:	86ae                	mv	a3,a1
   11e4e:	a021                	j	11e56 <_vfprintf_r+0xbf2>
   11e50:	3441                	addiw	s0,s0,-16
   11e52:	02875963          	bge	a4,s0,11e84 <_vfprintf_r+0xc20>
   11e56:	2605                	addiw	a2,a2,1
   11e58:	06c1                	addi	a3,a3,16
   11e5a:	0157b023          	sd	s5,0(a5)
   11e5e:	e798                	sd	a4,8(a5)
   11e60:	f9b6                	sd	a3,240(sp)
   11e62:	d5b2                	sw	a2,232(sp)
   11e64:	07c1                	addi	a5,a5,16
   11e66:	feccd5e3          	bge	s9,a2,11e50 <_vfprintf_r+0xbec>
   11e6a:	6522                	ld	a0,8(sp)
   11e6c:	1190                	addi	a2,sp,224
   11e6e:	85ca                	mv	a1,s2
   11e70:	7df000ef          	jal	12e4e <__sprint_r>
   11e74:	e12d                	bnez	a0,11ed6 <_vfprintf_r+0xc72>
   11e76:	4741                	li	a4,16
   11e78:	3441                	addiw	s0,s0,-16
   11e7a:	76ce                	ld	a3,240(sp)
   11e7c:	562e                	lw	a2,232(sp)
   11e7e:	87d2                	mv	a5,s4
   11e80:	fc874be3          	blt	a4,s0,11e56 <_vfprintf_r+0xbf2>
   11e84:	7326                	ld	t1,104(sp)
   11e86:	8736                	mv	a4,a3
   11e88:	88da                	mv	a7,s6
   11e8a:	86a6                	mv	a3,s1
   11e8c:	8b22                	mv	s6,s0
   11e8e:	84ba                	mv	s1,a4
   11e90:	843e                	mv	s0,a5
   11e92:	0016059b          	addiw	a1,a2,1
   11e96:	94da                	add	s1,s1,s6
   11e98:	01143023          	sd	a7,0(s0)
   11e9c:	01643423          	sd	s6,8(s0)
   11ea0:	f9a6                	sd	s1,240(sp)
   11ea2:	d5ae                	sw	a1,232(sp)
   11ea4:	471d                	li	a4,7
   11ea6:	0441                	addi	s0,s0,16
   11ea8:	dcb75a63          	bge	a4,a1,1147c <_vfprintf_r+0x218>
   11eac:	6522                	ld	a0,8(sp)
   11eae:	1190                	addi	a2,sp,224
   11eb0:	85ca                	mv	a1,s2
   11eb2:	e936                	sd	a3,144(sp)
   11eb4:	f49a                	sd	t1,104(sp)
   11eb6:	799000ef          	jal	12e4e <__sprint_r>
   11eba:	ed11                	bnez	a0,11ed6 <_vfprintf_r+0xc72>
   11ebc:	74ce                	ld	s1,240(sp)
   11ebe:	66ca                	ld	a3,144(sp)
   11ec0:	7326                	ld	t1,104(sp)
   11ec2:	8452                	mv	s0,s4
   11ec4:	db8ff06f          	j	1147c <_vfprintf_r+0x218>
   11ec8:	6522                	ld	a0,8(sp)
   11eca:	1190                	addi	a2,sp,224
   11ecc:	85ca                	mv	a1,s2
   11ece:	781000ef          	jal	12e4e <__sprint_r>
   11ed2:	de050663          	beqz	a0,114be <_vfprintf_r+0x25a>
   11ed6:	65e2                	ld	a1,24(sp)
   11ed8:	e0058463          	beqz	a1,114e0 <_vfprintf_r+0x27c>
   11edc:	6522                	ld	a0,8(sp)
   11ede:	b3dfe0ef          	jal	10a1a <_free_r>
   11ee2:	dfeff06f          	j	114e0 <_vfprintf_r+0x27c>
   11ee6:	4705                	li	a4,1
   11ee8:	8cee                	mv	s9,s11
   11eea:	b6e79be3          	bne	a5,a4,11a60 <_vfprintf_r+0x7fc>
   11eee:	47a5                	li	a5,9
   11ef0:	3697e263          	bltu	a5,s1,12254 <_vfprintf_r+0xff0>
   11ef4:	0304849b          	addiw	s1,s1,48
   11ef8:	14910da3          	sb	s1,347(sp)
   11efc:	8de6                	mv	s11,s9
   11efe:	4685                	li	a3,1
   11f00:	15b10d13          	addi	s10,sp,347
   11f04:	e9eff06f          	j	115a2 <_vfprintf_r+0x33e>
   11f08:	68e5                	lui	a7,0x19
   11f0a:	45c1                	li	a1,16
   11f0c:	562e                	lw	a2,232(sp)
   11f0e:	d2888893          	addi	a7,a7,-728 # 18d28 <blanks.1>
   11f12:	04e5de63          	bge	a1,a4,11f6e <_vfprintf_r+0xd0a>
   11f16:	ed36                	sd	a3,152(sp)
   11f18:	87a2                	mv	a5,s0
   11f1a:	86a6                	mv	a3,s1
   11f1c:	4f41                	li	t5,16
   11f1e:	439d                	li	t2,7
   11f20:	f496                	sd	t0,104(sp)
   11f22:	e91a                	sd	t1,144(sp)
   11f24:	843a                	mv	s0,a4
   11f26:	84c6                	mv	s1,a7
   11f28:	a021                	j	11f30 <_vfprintf_r+0xccc>
   11f2a:	3441                	addiw	s0,s0,-16
   11f2c:	028f5a63          	bge	t5,s0,11f60 <_vfprintf_r+0xcfc>
   11f30:	2605                	addiw	a2,a2,1
   11f32:	06c1                	addi	a3,a3,16
   11f34:	e384                	sd	s1,0(a5)
   11f36:	01e7b423          	sd	t5,8(a5)
   11f3a:	f9b6                	sd	a3,240(sp)
   11f3c:	d5b2                	sw	a2,232(sp)
   11f3e:	07c1                	addi	a5,a5,16
   11f40:	fec3d5e3          	bge	t2,a2,11f2a <_vfprintf_r+0xcc6>
   11f44:	6522                	ld	a0,8(sp)
   11f46:	1190                	addi	a2,sp,224
   11f48:	85ca                	mv	a1,s2
   11f4a:	705000ef          	jal	12e4e <__sprint_r>
   11f4e:	f541                	bnez	a0,11ed6 <_vfprintf_r+0xc72>
   11f50:	4f41                	li	t5,16
   11f52:	3441                	addiw	s0,s0,-16
   11f54:	76ce                	ld	a3,240(sp)
   11f56:	562e                	lw	a2,232(sp)
   11f58:	87d2                	mv	a5,s4
   11f5a:	439d                	li	t2,7
   11f5c:	fc8f4ae3          	blt	t5,s0,11f30 <_vfprintf_r+0xccc>
   11f60:	88a6                	mv	a7,s1
   11f62:	72a6                	ld	t0,104(sp)
   11f64:	84b6                	mv	s1,a3
   11f66:	634a                	ld	t1,144(sp)
   11f68:	66ea                	ld	a3,152(sp)
   11f6a:	8722                	mv	a4,s0
   11f6c:	843e                	mv	s0,a5
   11f6e:	94ba                	add	s1,s1,a4
   11f70:	0016059b          	addiw	a1,a2,1
   11f74:	e418                	sd	a4,8(s0)
   11f76:	01143023          	sd	a7,0(s0)
   11f7a:	f9a6                	sd	s1,240(sp)
   11f7c:	d5ae                	sw	a1,232(sp)
   11f7e:	471d                	li	a4,7
   11f80:	0441                	addi	s0,s0,16
   11f82:	cab75163          	bge	a4,a1,11424 <_vfprintf_r+0x1c0>
   11f86:	6522                	ld	a0,8(sp)
   11f88:	1190                	addi	a2,sp,224
   11f8a:	85ca                	mv	a1,s2
   11f8c:	ed36                	sd	a3,152(sp)
   11f8e:	e91a                	sd	t1,144(sp)
   11f90:	f496                	sd	t0,104(sp)
   11f92:	6bd000ef          	jal	12e4e <__sprint_r>
   11f96:	f121                	bnez	a0,11ed6 <_vfprintf_r+0xc72>
   11f98:	74ce                	ld	s1,240(sp)
   11f9a:	66ea                	ld	a3,152(sp)
   11f9c:	634a                	ld	t1,144(sp)
   11f9e:	72a6                	ld	t0,104(sp)
   11fa0:	8452                	mv	s0,s4
   11fa2:	c82ff06f          	j	11424 <_vfprintf_r+0x1c0>
   11fa6:	6522                	ld	a0,8(sp)
   11fa8:	1190                	addi	a2,sp,224
   11faa:	85ca                	mv	a1,s2
   11fac:	e936                	sd	a3,144(sp)
   11fae:	f49a                	sd	t1,104(sp)
   11fb0:	69f000ef          	jal	12e4e <__sprint_r>
   11fb4:	f10d                	bnez	a0,11ed6 <_vfprintf_r+0xc72>
   11fb6:	74ce                	ld	s1,240(sp)
   11fb8:	66ca                	ld	a3,144(sp)
   11fba:	7326                	ld	t1,104(sp)
   11fbc:	8452                	mv	s0,s4
   11fbe:	caeff06f          	j	1146c <_vfprintf_r+0x208>
   11fc2:	68e5                	lui	a7,0x19
   11fc4:	d2888893          	addi	a7,a7,-728 # 18d28 <blanks.1>
   11fc8:	4741                	li	a4,16
   11fca:	57ae                	lw	a5,232(sp)
   11fcc:	4cc1                	li	s9,16
   11fce:	4d1d                	li	s10,7
   11fd0:	8dc6                	mv	s11,a7
   11fd2:	01674663          	blt	a4,s6,11fde <_vfprintf_r+0xd7a>
   11fd6:	a82d                	j	12010 <_vfprintf_r+0xdac>
   11fd8:	3b41                	addiw	s6,s6,-16
   11fda:	036cda63          	bge	s9,s6,1200e <_vfprintf_r+0xdaa>
   11fde:	2785                	addiw	a5,a5,1
   11fe0:	04c1                	addi	s1,s1,16
   11fe2:	01b43023          	sd	s11,0(s0)
   11fe6:	01943423          	sd	s9,8(s0)
   11fea:	f9a6                	sd	s1,240(sp)
   11fec:	d5be                	sw	a5,232(sp)
   11fee:	0441                	addi	s0,s0,16
   11ff0:	fefd54e3          	bge	s10,a5,11fd8 <_vfprintf_r+0xd74>
   11ff4:	6522                	ld	a0,8(sp)
   11ff6:	1190                	addi	a2,sp,224
   11ff8:	85ca                	mv	a1,s2
   11ffa:	655000ef          	jal	12e4e <__sprint_r>
   11ffe:	ec051ce3          	bnez	a0,11ed6 <_vfprintf_r+0xc72>
   12002:	3b41                	addiw	s6,s6,-16
   12004:	74ce                	ld	s1,240(sp)
   12006:	57ae                	lw	a5,232(sp)
   12008:	8452                	mv	s0,s4
   1200a:	fd6ccae3          	blt	s9,s6,11fde <_vfprintf_r+0xd7a>
   1200e:	88ee                	mv	a7,s11
   12010:	0017871b          	addiw	a4,a5,1
   12014:	94da                	add	s1,s1,s6
   12016:	01143023          	sd	a7,0(s0)
   1201a:	01643423          	sd	s6,8(s0)
   1201e:	f9a6                	sd	s1,240(sp)
   12020:	d5ba                	sw	a4,232(sp)
   12022:	479d                	li	a5,7
   12024:	c8e7d463          	bge	a5,a4,114ac <_vfprintf_r+0x248>
   12028:	6522                	ld	a0,8(sp)
   1202a:	1190                	addi	a2,sp,224
   1202c:	85ca                	mv	a1,s2
   1202e:	621000ef          	jal	12e4e <__sprint_r>
   12032:	ea0512e3          	bnez	a0,11ed6 <_vfprintf_r+0xc72>
   12036:	74ce                	ld	s1,240(sp)
   12038:	c74ff06f          	j	114ac <_vfprintf_r+0x248>
   1203c:	576a                	lw	a4,184(sp)
   1203e:	40e05d63          	blez	a4,12458 <_vfprintf_r+0x11f4>
   12042:	77c2                	ld	a5,48(sp)
   12044:	7762                	ld	a4,56(sp)
   12046:	00078b1b          	sext.w	s6,a5
   1204a:	24f74f63          	blt	a4,a5,122a8 <_vfprintf_r+0x1044>
   1204e:	03605063          	blez	s6,1206e <_vfprintf_r+0xe0a>
   12052:	572e                	lw	a4,232(sp)
   12054:	94da                	add	s1,s1,s6
   12056:	01a43023          	sd	s10,0(s0)
   1205a:	0017069b          	addiw	a3,a4,1
   1205e:	01643423          	sd	s6,8(s0)
   12062:	f9a6                	sd	s1,240(sp)
   12064:	d5b6                	sw	a3,232(sp)
   12066:	471d                	li	a4,7
   12068:	0441                	addi	s0,s0,16
   1206a:	7cd74863          	blt	a4,a3,1283a <_vfprintf_r+0x15d6>
   1206e:	fffb4713          	not	a4,s6
   12072:	77c2                	ld	a5,48(sp)
   12074:	977d                	srai	a4,a4,0x3f
   12076:	00eb7b33          	and	s6,s6,a4
   1207a:	41678b3b          	subw	s6,a5,s6
   1207e:	2d604c63          	bgtz	s6,12356 <_vfprintf_r+0x10f2>
   12082:	77c2                	ld	a5,48(sp)
   12084:	400df713          	andi	a4,s11,1024
   12088:	00fd0333          	add	t1,s10,a5
   1208c:	62071063          	bnez	a4,126ac <_vfprintf_r+0x1448>
   12090:	576a                	lw	a4,184(sp)
   12092:	77e2                	ld	a5,56(sp)
   12094:	30f74663          	blt	a4,a5,123a0 <_vfprintf_r+0x113c>
   12098:	001df693          	andi	a3,s11,1
   1209c:	30069263          	bnez	a3,123a0 <_vfprintf_r+0x113c>
   120a0:	76e2                	ld	a3,56(sp)
   120a2:	00dd07b3          	add	a5,s10,a3
   120a6:	40678b33          	sub	s6,a5,t1
   120aa:	9e99                	subw	a3,a3,a4
   120ac:	000b079b          	sext.w	a5,s6
   120b0:	00f6d363          	bge	a3,a5,120b6 <_vfprintf_r+0xe52>
   120b4:	8b36                	mv	s6,a3
   120b6:	2b01                	sext.w	s6,s6
   120b8:	03605063          	blez	s6,120d8 <_vfprintf_r+0xe74>
   120bc:	57ae                	lw	a5,232(sp)
   120be:	94da                	add	s1,s1,s6
   120c0:	00643023          	sd	t1,0(s0)
   120c4:	0017871b          	addiw	a4,a5,1
   120c8:	01643423          	sd	s6,8(s0)
   120cc:	f9a6                	sd	s1,240(sp)
   120ce:	d5ba                	sw	a4,232(sp)
   120d0:	479d                	li	a5,7
   120d2:	0441                	addi	s0,s0,16
   120d4:	1ee7cee3          	blt	a5,a4,12ad0 <_vfprintf_r+0x186c>
   120d8:	fffb4793          	not	a5,s6
   120dc:	97fd                	srai	a5,a5,0x3f
   120de:	00fb7b33          	and	s6,s6,a5
   120e2:	41668b3b          	subw	s6,a3,s6
   120e6:	bb605b63          	blez	s6,1149c <_vfprintf_r+0x238>
   120ea:	68e5                	lui	a7,0x19
   120ec:	4741                	li	a4,16
   120ee:	57ae                	lw	a5,232(sp)
   120f0:	d1888893          	addi	a7,a7,-744 # 18d18 <zeroes.0>
   120f4:	3f675863          	bge	a4,s6,124e4 <_vfprintf_r+0x1280>
   120f8:	f84e                	sd	s3,48(sp)
   120fa:	4cc1                	li	s9,16
   120fc:	89ca                	mv	s3,s2
   120fe:	4d1d                	li	s10,7
   12100:	895a                	mv	s2,s6
   12102:	8b46                	mv	s6,a7
   12104:	a021                	j	1210c <_vfprintf_r+0xea8>
   12106:	3941                	addiw	s2,s2,-16
   12108:	172cd5e3          	bge	s9,s2,12a72 <_vfprintf_r+0x180e>
   1210c:	2785                	addiw	a5,a5,1
   1210e:	04c1                	addi	s1,s1,16
   12110:	01643023          	sd	s6,0(s0)
   12114:	01943423          	sd	s9,8(s0)
   12118:	f9a6                	sd	s1,240(sp)
   1211a:	d5be                	sw	a5,232(sp)
   1211c:	0441                	addi	s0,s0,16
   1211e:	fefd54e3          	bge	s10,a5,12106 <_vfprintf_r+0xea2>
   12122:	6522                	ld	a0,8(sp)
   12124:	1190                	addi	a2,sp,224
   12126:	85ce                	mv	a1,s3
   12128:	527000ef          	jal	12e4e <__sprint_r>
   1212c:	3c0510e3          	bnez	a0,12cec <_vfprintf_r+0x1a88>
   12130:	74ce                	ld	s1,240(sp)
   12132:	57ae                	lw	a5,232(sp)
   12134:	8452                	mv	s0,s4
   12136:	bfc1                	j	12106 <_vfprintf_r+0xea2>
   12138:	001df613          	andi	a2,s11,1
   1213c:	82061de3          	bnez	a2,11976 <_vfprintf_r+0x712>
   12140:	e414                	sd	a3,8(s0)
   12142:	f9a6                	sd	s1,240(sp)
   12144:	d5da                	sw	s6,232(sp)
   12146:	479d                	li	a5,7
   12148:	8967d5e3          	bge	a5,s6,119d2 <_vfprintf_r+0x76e>
   1214c:	6522                	ld	a0,8(sp)
   1214e:	1190                	addi	a2,sp,224
   12150:	85ca                	mv	a1,s2
   12152:	4fd000ef          	jal	12e4e <__sprint_r>
   12156:	d80510e3          	bnez	a0,11ed6 <_vfprintf_r+0xc72>
   1215a:	74ce                	ld	s1,240(sp)
   1215c:	5b2e                	lw	s6,232(sp)
   1215e:	8cd2                	mv	s9,s4
   12160:	b88d                	j	119d2 <_vfprintf_r+0x76e>
   12162:	7762                	ld	a4,56(sp)
   12164:	4785                	li	a5,1
   12166:	86e7d6e3          	bge	a5,a4,119d2 <_vfprintf_r+0x76e>
   1216a:	68e5                	lui	a7,0x19
   1216c:	47c5                	li	a5,17
   1216e:	d1888893          	addi	a7,a7,-744 # 18d18 <zeroes.0>
   12172:	44e7dd63          	bge	a5,a4,125cc <_vfprintf_r+0x1368>
   12176:	f84e                	sd	s3,48(sp)
   12178:	4741                	li	a4,16
   1217a:	4d1d                	li	s10,7
   1217c:	89c6                	mv	s3,a7
   1217e:	a021                	j	12186 <_vfprintf_r+0xf22>
   12180:	3441                	addiw	s0,s0,-16
   12182:	44875363          	bge	a4,s0,125c8 <_vfprintf_r+0x1364>
   12186:	2b05                	addiw	s6,s6,1
   12188:	04c1                	addi	s1,s1,16
   1218a:	013cb023          	sd	s3,0(s9)
   1218e:	00ecb423          	sd	a4,8(s9)
   12192:	f9a6                	sd	s1,240(sp)
   12194:	d5da                	sw	s6,232(sp)
   12196:	0cc1                	addi	s9,s9,16
   12198:	ff6d54e3          	bge	s10,s6,12180 <_vfprintf_r+0xf1c>
   1219c:	6522                	ld	a0,8(sp)
   1219e:	1190                	addi	a2,sp,224
   121a0:	85ca                	mv	a1,s2
   121a2:	4ad000ef          	jal	12e4e <__sprint_r>
   121a6:	d20518e3          	bnez	a0,11ed6 <_vfprintf_r+0xc72>
   121aa:	74ce                	ld	s1,240(sp)
   121ac:	5b2e                	lw	s6,232(sp)
   121ae:	8cd2                	mv	s9,s4
   121b0:	4741                	li	a4,16
   121b2:	b7f9                	j	12180 <_vfprintf_r+0xf1c>
   121b4:	010cf793          	andi	a5,s9,16
   121b8:	e3a1                	bnez	a5,121f8 <_vfprintf_r+0xf94>
   121ba:	7682                	ld	a3,32(sp)
   121bc:	040cf793          	andi	a5,s9,64
   121c0:	4284                	lw	s1,0(a3)
   121c2:	42078163          	beqz	a5,125e4 <_vfprintf_r+0x1380>
   121c6:	14c2                	slli	s1,s1,0x30
   121c8:	90c1                	srli	s1,s1,0x30
   121ca:	f03a                	sd	a4,32(sp)
   121cc:	4785                	li	a5,1
   121ce:	c16ff06f          	j	115e4 <_vfprintf_r+0x380>
   121d2:	4681                	li	a3,0
   121d4:	15c10d13          	addi	s10,sp,348
   121d8:	bcaff06f          	j	115a2 <_vfprintf_r+0x33e>
   121dc:	001df793          	andi	a5,s11,1
   121e0:	aa078e63          	beqz	a5,1149c <_vfprintf_r+0x238>
   121e4:	bcfd                	j	11ce2 <_vfprintf_r+0xa7e>
   121e6:	0009c303          	lbu	t1,0(s3)
   121ea:	f03e                	sd	a5,32(sp)
   121ec:	9a8ff06f          	j	11394 <_vfprintf_r+0x130>
   121f0:	7782                	ld	a5,32(sp)
   121f2:	6384                	ld	s1,0(a5)
   121f4:	be6ff06f          	j	115da <_vfprintf_r+0x376>
   121f8:	7782                	ld	a5,32(sp)
   121fa:	f03a                	sd	a4,32(sp)
   121fc:	6384                	ld	s1,0(a5)
   121fe:	4785                	li	a5,1
   12200:	be4ff06f          	j	115e4 <_vfprintf_r+0x380>
   12204:	010df793          	andi	a5,s11,16
   12208:	a4079fe3          	bnez	a5,11c66 <_vfprintf_r+0xa02>
   1220c:	040df793          	andi	a5,s11,64
   12210:	66079263          	bnez	a5,12874 <_vfprintf_r+0x1610>
   12214:	200dfe13          	andi	t3,s11,512
   12218:	67c2                	ld	a5,16(sp)
   1221a:	1e0e0ae3          	beqz	t3,12c0e <_vfprintf_r+0x19aa>
   1221e:	00f70023          	sb	a5,0(a4)
   12222:	b4a1                	j	11c6a <_vfprintf_r+0xa06>
   12224:	7782                	ld	a5,32(sp)
   12226:	00f78c13          	addi	s8,a5,15
   1222a:	ff0c7c13          	andi	s8,s8,-16
   1222e:	010c0793          	addi	a5,s8,16
   12232:	000c3703          	ld	a4,0(s8)
   12236:	008c3583          	ld	a1,8(s8)
   1223a:	f03e                	sd	a5,32(sp)
   1223c:	c1aff06f          	j	11656 <_vfprintf_r+0x3f2>
   12240:	7782                	ld	a5,32(sp)
   12242:	639c                	ld	a5,0(a5)
   12244:	84be                	mv	s1,a5
   12246:	b36ff06f          	j	1157c <_vfprintf_r+0x318>
   1224a:	f03a                	sd	a4,32(sp)
   1224c:	47a5                	li	a5,9
   1224e:	8cee                	mv	s9,s11
   12250:	ca97f2e3          	bgeu	a5,s1,11ef4 <_vfprintf_r+0xc90>
   12254:	0af4                	addi	a3,sp,348
   12256:	688a                	ld	a7,128(sp)
   12258:	400cf713          	andi	a4,s9,1024
   1225c:	4601                	li	a2,0
   1225e:	85b6                	mv	a1,a3
   12260:	4da9                	li	s11,10
   12262:	4825                	li	a6,9
   12264:	0ff00c13          	li	s8,255
   12268:	a039                	j	12276 <_vfprintf_r+0x1012>
   1226a:	03b4d7b3          	divu	a5,s1,s11
   1226e:	02987663          	bgeu	a6,s1,1229a <_vfprintf_r+0x1036>
   12272:	84be                	mv	s1,a5
   12274:	85ea                	mv	a1,s10
   12276:	fff58d13          	addi	s10,a1,-1 # 1fff <exit-0xe0e9>
   1227a:	2605                	addiw	a2,a2,1
   1227c:	03b4f7b3          	remu	a5,s1,s11
   12280:	0307879b          	addiw	a5,a5,48
   12284:	fef58fa3          	sb	a5,-1(a1)
   12288:	d36d                	beqz	a4,1226a <_vfprintf_r+0x1006>
   1228a:	0008c783          	lbu	a5,0(a7)
   1228e:	fcf61ee3          	bne	a2,a5,1226a <_vfprintf_r+0x1006>
   12292:	fd878ce3          	beq	a5,s8,1226a <_vfprintf_r+0x1006>
   12296:	3e986063          	bltu	a6,s1,12676 <_vfprintf_r+0x1412>
   1229a:	fc32                	sd	a2,56(sp)
   1229c:	e146                	sd	a7,128(sp)
   1229e:	41a686bb          	subw	a3,a3,s10
   122a2:	8de6                	mv	s11,s9
   122a4:	afeff06f          	j	115a2 <_vfprintf_r+0x33e>
   122a8:	00070b1b          	sext.w	s6,a4
   122ac:	db6043e3          	bgtz	s6,12052 <_vfprintf_r+0xdee>
   122b0:	bb7d                	j	1206e <_vfprintf_r+0xe0a>
   122b2:	5b7d                	li	s6,-1
   122b4:	89ba                	mv	s3,a4
   122b6:	8e2ff06f          	j	11398 <_vfprintf_r+0x134>
   122ba:	67e5                	lui	a5,0x19
   122bc:	a5878793          	addi	a5,a5,-1448 # 18a58 <__clzdi2+0x82>
   122c0:	f0be                	sd	a5,96(sp)
   122c2:	7682                	ld	a3,32(sp)
   122c4:	020df793          	andi	a5,s11,32
   122c8:	00868713          	addi	a4,a3,8
   122cc:	14078863          	beqz	a5,1241c <_vfprintf_r+0x11b8>
   122d0:	6284                	ld	s1,0(a3)
   122d2:	001df793          	andi	a5,s11,1
   122d6:	cf81                	beqz	a5,122ee <_vfprintf_r+0x108a>
   122d8:	c899                	beqz	s1,122ee <_vfprintf_r+0x108a>
   122da:	002dee13          	ori	t3,s11,2
   122de:	03000793          	li	a5,48
   122e2:	0af10823          	sb	a5,176(sp)
   122e6:	0a6108a3          	sb	t1,177(sp)
   122ea:	000e0d9b          	sext.w	s11,t3
   122ee:	bffdfc93          	andi	s9,s11,-1025
   122f2:	2c81                	sext.w	s9,s9
   122f4:	f03a                	sd	a4,32(sp)
   122f6:	4789                	li	a5,2
   122f8:	aecff06f          	j	115e4 <_vfprintf_r+0x380>
   122fc:	8cee                	mv	s9,s11
   122fe:	b869                	j	11b98 <_vfprintf_r+0x934>
   12300:	67e5                	lui	a5,0x19
   12302:	a4078793          	addi	a5,a5,-1472 # 18a40 <__clzdi2+0x6a>
   12306:	f0be                	sd	a5,96(sp)
   12308:	bf6d                	j	122c2 <_vfprintf_r+0x105e>
   1230a:	200ded93          	ori	s11,s11,512
   1230e:	0019c303          	lbu	t1,1(s3)
   12312:	2d81                	sext.w	s11,s11
   12314:	0985                	addi	s3,s3,1
   12316:	87eff06f          	j	11394 <_vfprintf_r+0x130>
   1231a:	020ded93          	ori	s11,s11,32
   1231e:	0019c303          	lbu	t1,1(s3)
   12322:	2d81                	sext.w	s11,s11
   12324:	0985                	addi	s3,s3,1
   12326:	86eff06f          	j	11394 <_vfprintf_r+0x130>
   1232a:	6522                	ld	a0,8(sp)
   1232c:	1190                	addi	a2,sp,224
   1232e:	85ca                	mv	a1,s2
   12330:	31f000ef          	jal	12e4e <__sprint_r>
   12334:	ba0511e3          	bnez	a0,11ed6 <_vfprintf_r+0xc72>
   12338:	74ce                	ld	s1,240(sp)
   1233a:	8452                	mv	s0,s4
   1233c:	b2d1                	j	11d00 <_vfprintf_r+0xa9c>
   1233e:	4799                	li	a5,6
   12340:	000b069b          	sext.w	a3,s6
   12344:	5167e663          	bltu	a5,s6,12850 <_vfprintf_r+0x15ec>
   12348:	67e5                	lui	a5,0x19
   1234a:	8c36                	mv	s8,a3
   1234c:	f026                	sd	s1,32(sp)
   1234e:	a7078d13          	addi	s10,a5,-1424 # 18a70 <__clzdi2+0x9a>
   12352:	8acff06f          	j	113fe <_vfprintf_r+0x19a>
   12356:	68e5                	lui	a7,0x19
   12358:	46c1                	li	a3,16
   1235a:	572e                	lw	a4,232(sp)
   1235c:	d1888893          	addi	a7,a7,-744 # 18d18 <zeroes.0>
   12360:	2f66d463          	bge	a3,s6,12648 <_vfprintf_r+0x13e4>
   12364:	46c1                	li	a3,16
   12366:	431d                	li	t1,7
   12368:	8cc6                	mv	s9,a7
   1236a:	a021                	j	12372 <_vfprintf_r+0x110e>
   1236c:	3b41                	addiw	s6,s6,-16
   1236e:	2d66dc63          	bge	a3,s6,12646 <_vfprintf_r+0x13e2>
   12372:	2705                	addiw	a4,a4,1
   12374:	04c1                	addi	s1,s1,16
   12376:	01943023          	sd	s9,0(s0)
   1237a:	e414                	sd	a3,8(s0)
   1237c:	f9a6                	sd	s1,240(sp)
   1237e:	d5ba                	sw	a4,232(sp)
   12380:	0441                	addi	s0,s0,16
   12382:	fee355e3          	bge	t1,a4,1236c <_vfprintf_r+0x1108>
   12386:	6522                	ld	a0,8(sp)
   12388:	1190                	addi	a2,sp,224
   1238a:	85ca                	mv	a1,s2
   1238c:	2c3000ef          	jal	12e4e <__sprint_r>
   12390:	b40513e3          	bnez	a0,11ed6 <_vfprintf_r+0xc72>
   12394:	74ce                	ld	s1,240(sp)
   12396:	572e                	lw	a4,232(sp)
   12398:	8452                	mv	s0,s4
   1239a:	431d                	li	t1,7
   1239c:	46c1                	li	a3,16
   1239e:	b7f9                	j	1236c <_vfprintf_r+0x1108>
   123a0:	56ae                	lw	a3,232(sp)
   123a2:	67c6                	ld	a5,80(sp)
   123a4:	6666                	ld	a2,88(sp)
   123a6:	0441                	addi	s0,s0,16
   123a8:	94be                	add	s1,s1,a5
   123aa:	fec43823          	sd	a2,-16(s0)
   123ae:	0016861b          	addiw	a2,a3,1
   123b2:	fef43c23          	sd	a5,-8(s0)
   123b6:	f9a6                	sd	s1,240(sp)
   123b8:	d5b2                	sw	a2,232(sp)
   123ba:	469d                	li	a3,7
   123bc:	cec6d2e3          	bge	a3,a2,120a0 <_vfprintf_r+0xe3c>
   123c0:	6522                	ld	a0,8(sp)
   123c2:	1190                	addi	a2,sp,224
   123c4:	85ca                	mv	a1,s2
   123c6:	f81a                	sd	t1,48(sp)
   123c8:	287000ef          	jal	12e4e <__sprint_r>
   123cc:	b00515e3          	bnez	a0,11ed6 <_vfprintf_r+0xc72>
   123d0:	576a                	lw	a4,184(sp)
   123d2:	74ce                	ld	s1,240(sp)
   123d4:	7342                	ld	t1,48(sp)
   123d6:	8452                	mv	s0,s4
   123d8:	b1e1                	j	120a0 <_vfprintf_r+0xe3c>
   123da:	07800793          	li	a5,120
   123de:	03000693          	li	a3,48
   123e2:	002de713          	ori	a4,s11,2
   123e6:	0af108a3          	sb	a5,177(sp)
   123ea:	0ad10823          	sb	a3,176(sp)
   123ee:	06300793          	li	a5,99
   123f2:	2701                	sext.w	a4,a4
   123f4:	4b67cf63          	blt	a5,s6,128b2 <_vfprintf_r+0x164e>
   123f8:	67ce                	ld	a5,208(sp)
   123fa:	6cee                	ld	s9,216(sp)
   123fc:	102dee13          	ori	t3,s11,258
   12400:	f83e                	sd	a5,48(sp)
   12402:	000e049b          	sext.w	s1,t3
   12406:	600ccf63          	bltz	s9,12a24 <_vfprintf_r+0x17c0>
   1240a:	fbf3069b          	addiw	a3,t1,-65
   1240e:	8dba                	mv	s11,a4
   12410:	f482                	sd	zero,104(sp)
   12412:	ec02                	sd	zero,24(sp)
   12414:	0f810d13          	addi	s10,sp,248
   12418:	ab6ff06f          	j	116ce <_vfprintf_r+0x46a>
   1241c:	010df793          	andi	a5,s11,16
   12420:	c7d1                	beqz	a5,124ac <_vfprintf_r+0x1248>
   12422:	7782                	ld	a5,32(sp)
   12424:	6384                	ld	s1,0(a5)
   12426:	b575                	j	122d2 <_vfprintf_r+0x106e>
   12428:	6522                	ld	a0,8(sp)
   1242a:	1190                	addi	a2,sp,224
   1242c:	85ca                	mv	a1,s2
   1242e:	221000ef          	jal	12e4e <__sprint_r>
   12432:	aa0512e3          	bnez	a0,11ed6 <_vfprintf_r+0xc72>
   12436:	74ce                	ld	s1,240(sp)
   12438:	5b2e                	lw	s6,232(sp)
   1243a:	8cd2                	mv	s9,s4
   1243c:	d48ff06f          	j	11984 <_vfprintf_r+0x720>
   12440:	6522                	ld	a0,8(sp)
   12442:	1190                	addi	a2,sp,224
   12444:	85ca                	mv	a1,s2
   12446:	209000ef          	jal	12e4e <__sprint_r>
   1244a:	a80516e3          	bnez	a0,11ed6 <_vfprintf_r+0xc72>
   1244e:	74ce                	ld	s1,240(sp)
   12450:	5b2e                	lw	s6,232(sp)
   12452:	8cd2                	mv	s9,s4
   12454:	d4cff06f          	j	119a0 <_vfprintf_r+0x73c>
   12458:	56ae                	lw	a3,232(sp)
   1245a:	6665                	lui	a2,0x19
   1245c:	a7860613          	addi	a2,a2,-1416 # 18a78 <__clzdi2+0xa2>
   12460:	2685                	addiw	a3,a3,1
   12462:	e010                	sd	a2,0(s0)
   12464:	0485                	addi	s1,s1,1
   12466:	4605                	li	a2,1
   12468:	e410                	sd	a2,8(s0)
   1246a:	d5b6                	sw	a3,232(sp)
   1246c:	0006861b          	sext.w	a2,a3
   12470:	f9a6                	sd	s1,240(sp)
   12472:	469d                	li	a3,7
   12474:	0441                	addi	s0,s0,16
   12476:	3ac6c363          	blt	a3,a2,1281c <_vfprintf_r+0x15b8>
   1247a:	10071363          	bnez	a4,12580 <_vfprintf_r+0x131c>
   1247e:	77e2                	ld	a5,56(sp)
   12480:	001df713          	andi	a4,s11,1
   12484:	8f5d                	or	a4,a4,a5
   12486:	e319                	bnez	a4,1248c <_vfprintf_r+0x1228>
   12488:	814ff06f          	j	1149c <_vfprintf_r+0x238>
   1248c:	572e                	lw	a4,232(sp)
   1248e:	67c6                	ld	a5,80(sp)
   12490:	66e6                	ld	a3,88(sp)
   12492:	00978633          	add	a2,a5,s1
   12496:	e014                	sd	a3,0(s0)
   12498:	0017069b          	addiw	a3,a4,1
   1249c:	e41c                	sd	a5,8(s0)
   1249e:	f9b2                	sd	a2,240(sp)
   124a0:	d5b6                	sw	a3,232(sp)
   124a2:	471d                	li	a4,7
   124a4:	3ed74b63          	blt	a4,a3,1289a <_vfprintf_r+0x1636>
   124a8:	0441                	addi	s0,s0,16
   124aa:	a8f5                	j	125a6 <_vfprintf_r+0x1342>
   124ac:	7682                	ld	a3,32(sp)
   124ae:	040df793          	andi	a5,s11,64
   124b2:	4284                	lw	s1,0(a3)
   124b4:	16078563          	beqz	a5,1261e <_vfprintf_r+0x13ba>
   124b8:	14c2                	slli	s1,s1,0x30
   124ba:	90c1                	srli	s1,s1,0x30
   124bc:	bd19                	j	122d2 <_vfprintf_r+0x106e>
   124be:	6522                	ld	a0,8(sp)
   124c0:	f3bfd0ef          	jal	103fa <__sinit>
   124c4:	ddbfe06f          	j	1129e <_vfprintf_r+0x3a>
   124c8:	6522                	ld	a0,8(sp)
   124ca:	1190                	addi	a2,sp,224
   124cc:	85ca                	mv	a1,s2
   124ce:	181000ef          	jal	12e4e <__sprint_r>
   124d2:	a00512e3          	bnez	a0,11ed6 <_vfprintf_r+0xc72>
   124d6:	74ce                	ld	s1,240(sp)
   124d8:	8452                	mv	s0,s4
   124da:	801ff06f          	j	11cda <_vfprintf_r+0xa76>
   124de:	88da                	mv	a7,s6
   124e0:	8b4e                	mv	s6,s3
   124e2:	79c2                	ld	s3,48(sp)
   124e4:	0017871b          	addiw	a4,a5,1
   124e8:	01143023          	sd	a7,0(s0)
   124ec:	01643423          	sd	s6,8(s0)
   124f0:	94da                	add	s1,s1,s6
   124f2:	f9a6                	sd	s1,240(sp)
   124f4:	d5ba                	sw	a4,232(sp)
   124f6:	479d                	li	a5,7
   124f8:	00e7c463          	blt	a5,a4,12500 <_vfprintf_r+0x129c>
   124fc:	f9ffe06f          	j	1149a <_vfprintf_r+0x236>
   12500:	cf4ff06f          	j	119f4 <_vfprintf_r+0x790>
   12504:	f03a                	sd	a4,32(sp)
   12506:	b2e5                	j	11eee <_vfprintf_r+0xc8a>
   12508:	654e                	ld	a0,208(sp)
   1250a:	65ee                	ld	a1,216(sp)
   1250c:	4601                	li	a2,0
   1250e:	4681                	li	a3,0
   12510:	43e050ef          	jal	1794e <__letf2>
   12514:	6362                	ld	t1,24(sp)
   12516:	54054363          	bltz	a0,12a5c <_vfprintf_r+0x17f8>
   1251a:	0af14703          	lbu	a4,175(sp)
   1251e:	04700793          	li	a5,71
   12522:	3067d863          	bge	a5,t1,12832 <_vfprintf_r+0x15ce>
   12526:	67e5                	lui	a5,0x19
   12528:	a2878d13          	addi	s10,a5,-1496 # 18a28 <__clzdi2+0x52>
   1252c:	f7fdfe13          	andi	t3,s11,-129
   12530:	ec02                	sd	zero,24(sp)
   12532:	e482                	sd	zero,72(sp)
   12534:	e082                	sd	zero,64(sp)
   12536:	f802                	sd	zero,48(sp)
   12538:	000e0d9b          	sext.w	s11,t3
   1253c:	4c0d                	li	s8,3
   1253e:	468d                	li	a3,3
   12540:	4b01                	li	s6,0
   12542:	c319                	beqz	a4,12548 <_vfprintf_r+0x12e4>
   12544:	87aff06f          	j	115be <_vfprintf_r+0x35a>
   12548:	ec1fe06f          	j	11408 <_vfprintf_r+0x1a4>
   1254c:	856a                	mv	a0,s10
   1254e:	f49a                	sd	t1,104(sp)
   12550:	40c010ef          	jal	1395c <strlen>
   12554:	0005069b          	sext.w	a3,a0
   12558:	0af14703          	lbu	a4,175(sp)
   1255c:	fff6c813          	not	a6,a3
   12560:	43f85813          	srai	a6,a6,0x3f
   12564:	f026                	sd	s1,32(sp)
   12566:	ec02                	sd	zero,24(sp)
   12568:	e482                	sd	zero,72(sp)
   1256a:	e082                	sd	zero,64(sp)
   1256c:	f802                	sd	zero,48(sp)
   1256e:	7326                	ld	t1,104(sp)
   12570:	00d87c33          	and	s8,a6,a3
   12574:	4b01                	li	s6,0
   12576:	c319                	beqz	a4,1257c <_vfprintf_r+0x1318>
   12578:	846ff06f          	j	115be <_vfprintf_r+0x35a>
   1257c:	e8dfe06f          	j	11408 <_vfprintf_r+0x1a4>
   12580:	55ae                	lw	a1,232(sp)
   12582:	67c6                	ld	a5,80(sp)
   12584:	66e6                	ld	a3,88(sp)
   12586:	0441                	addi	s0,s0,16
   12588:	00978633          	add	a2,a5,s1
   1258c:	fed43823          	sd	a3,-16(s0)
   12590:	0015869b          	addiw	a3,a1,1
   12594:	fef43c23          	sd	a5,-8(s0)
   12598:	f9b2                	sd	a2,240(sp)
   1259a:	d5b6                	sw	a3,232(sp)
   1259c:	459d                	li	a1,7
   1259e:	2ed5ce63          	blt	a1,a3,1289a <_vfprintf_r+0x1636>
   125a2:	5a074163          	bltz	a4,12b44 <_vfprintf_r+0x18e0>
   125a6:	77e2                	ld	a5,56(sp)
   125a8:	0016871b          	addiw	a4,a3,1
   125ac:	01a43023          	sd	s10,0(s0)
   125b0:	00c784b3          	add	s1,a5,a2
   125b4:	e41c                	sd	a5,8(s0)
   125b6:	f9a6                	sd	s1,240(sp)
   125b8:	d5ba                	sw	a4,232(sp)
   125ba:	479d                	li	a5,7
   125bc:	00e7c463          	blt	a5,a4,125c4 <_vfprintf_r+0x1360>
   125c0:	edbfe06f          	j	1149a <_vfprintf_r+0x236>
   125c4:	c30ff06f          	j	119f4 <_vfprintf_r+0x790>
   125c8:	88ce                	mv	a7,s3
   125ca:	79c2                	ld	s3,48(sp)
   125cc:	2b05                	addiw	s6,s6,1
   125ce:	94a2                	add	s1,s1,s0
   125d0:	011cb023          	sd	a7,0(s9)
   125d4:	008cb423          	sd	s0,8(s9)
   125d8:	f9a6                	sd	s1,240(sp)
   125da:	d5da                	sw	s6,232(sp)
   125dc:	479d                	li	a5,7
   125de:	bf67d963          	bge	a5,s6,119d0 <_vfprintf_r+0x76c>
   125e2:	b6ad                	j	1214c <_vfprintf_r+0xee8>
   125e4:	200cf793          	andi	a5,s9,512
   125e8:	28078063          	beqz	a5,12868 <_vfprintf_r+0x1604>
   125ec:	0ff4f493          	zext.b	s1,s1
   125f0:	f03a                	sd	a4,32(sp)
   125f2:	4785                	li	a5,1
   125f4:	ff1fe06f          	j	115e4 <_vfprintf_r+0x380>
   125f8:	200df793          	andi	a5,s11,512
   125fc:	26078263          	beqz	a5,12860 <_vfprintf_r+0x15fc>
   12600:	0ff4f493          	zext.b	s1,s1
   12604:	fd7fe06f          	j	115da <_vfprintf_r+0x376>
   12608:	200df793          	andi	a5,s11,512
   1260c:	24078763          	beqz	a5,1285a <_vfprintf_r+0x15f6>
   12610:	0184949b          	slliw	s1,s1,0x18
   12614:	4184d49b          	sraiw	s1,s1,0x18
   12618:	87a6                	mv	a5,s1
   1261a:	f63fe06f          	j	1157c <_vfprintf_r+0x318>
   1261e:	200df793          	andi	a5,s11,512
   12622:	22078963          	beqz	a5,12854 <_vfprintf_r+0x15f0>
   12626:	0ff4f493          	zext.b	s1,s1
   1262a:	b165                	j	122d2 <_vfprintf_r+0x106e>
   1262c:	67ee                	ld	a5,216(sp)
   1262e:	2407cf63          	bltz	a5,1288c <_vfprintf_r+0x1628>
   12632:	0af14703          	lbu	a4,175(sp)
   12636:	04700793          	li	a5,71
   1263a:	4a67ca63          	blt	a5,t1,12aee <_vfprintf_r+0x188a>
   1263e:	67e5                	lui	a5,0x19
   12640:	a3078d13          	addi	s10,a5,-1488 # 18a30 <__clzdi2+0x5a>
   12644:	b5e5                	j	1252c <_vfprintf_r+0x12c8>
   12646:	88e6                	mv	a7,s9
   12648:	0017069b          	addiw	a3,a4,1
   1264c:	94da                	add	s1,s1,s6
   1264e:	01143023          	sd	a7,0(s0)
   12652:	01643423          	sd	s6,8(s0)
   12656:	f9a6                	sd	s1,240(sp)
   12658:	d5b6                	sw	a3,232(sp)
   1265a:	471d                	li	a4,7
   1265c:	0441                	addi	s0,s0,16
   1265e:	a2d752e3          	bge	a4,a3,12082 <_vfprintf_r+0xe1e>
   12662:	6522                	ld	a0,8(sp)
   12664:	1190                	addi	a2,sp,224
   12666:	85ca                	mv	a1,s2
   12668:	7e6000ef          	jal	12e4e <__sprint_r>
   1266c:	860515e3          	bnez	a0,11ed6 <_vfprintf_r+0xc72>
   12670:	74ce                	ld	s1,240(sp)
   12672:	8452                	mv	s0,s4
   12674:	b439                	j	12082 <_vfprintf_r+0xe1e>
   12676:	67aa                	ld	a5,136(sp)
   12678:	75e6                	ld	a1,120(sp)
   1267a:	e0b6                	sd	a3,64(sp)
   1267c:	40fd0d33          	sub	s10,s10,a5
   12680:	863e                	mv	a2,a5
   12682:	856a                	mv	a0,s10
   12684:	fc3a                	sd	a4,56(sp)
   12686:	f81a                	sd	t1,48(sp)
   12688:	ec46                	sd	a7,24(sp)
   1268a:	7ab000ef          	jal	13634 <strncpy>
   1268e:	68e2                	ld	a7,24(sp)
   12690:	47a9                	li	a5,10
   12692:	02f4d7b3          	divu	a5,s1,a5
   12696:	0018c603          	lbu	a2,1(a7)
   1269a:	7342                	ld	t1,48(sp)
   1269c:	7762                	ld	a4,56(sp)
   1269e:	00c03633          	snez	a2,a2
   126a2:	98b2                	add	a7,a7,a2
   126a4:	6686                	ld	a3,64(sp)
   126a6:	4601                	li	a2,0
   126a8:	4825                	li	a6,9
   126aa:	b6e1                	j	12272 <_vfprintf_r+0x100e>
   126ac:	77e2                	ld	a5,56(sp)
   126ae:	6c86                	ld	s9,64(sp)
   126b0:	68e5                	lui	a7,0x19
   126b2:	00fd05b3          	add	a1,s10,a5
   126b6:	f4ce                	sd	s3,104(sp)
   126b8:	e96e                	sd	s11,144(sp)
   126ba:	ed5e                	sd	s7,152(sp)
   126bc:	6da6                	ld	s11,72(sp)
   126be:	e0e2                	sd	s8,64(sp)
   126c0:	e4ea                	sd	s10,72(sp)
   126c2:	8626                	mv	a2,s1
   126c4:	6baa                	ld	s7,136(sp)
   126c6:	6c0a                	ld	s8,128(sp)
   126c8:	69a2                	ld	s3,8(sp)
   126ca:	469d                	li	a3,7
   126cc:	4741                	li	a4,16
   126ce:	d1888b13          	addi	s6,a7,-744 # 18d18 <zeroes.0>
   126d2:	87a2                	mv	a5,s0
   126d4:	8d1a                	mv	s10,t1
   126d6:	84ae                	mv	s1,a1
   126d8:	07905d63          	blez	s9,12752 <_vfprintf_r+0x14ee>
   126dc:	11b05163          	blez	s11,127de <_vfprintf_r+0x157a>
   126e0:	3dfd                	addiw	s11,s11,-1
   126e2:	55ae                	lw	a1,232(sp)
   126e4:	7566                	ld	a0,120(sp)
   126e6:	965e                	add	a2,a2,s7
   126e8:	0177b423          	sd	s7,8(a5)
   126ec:	e388                	sd	a0,0(a5)
   126ee:	0015851b          	addiw	a0,a1,1
   126f2:	f9b2                	sd	a2,240(sp)
   126f4:	d5aa                	sw	a0,232(sp)
   126f6:	07c1                	addi	a5,a5,16
   126f8:	0ea6c663          	blt	a3,a0,127e4 <_vfprintf_r+0x1580>
   126fc:	000c4583          	lbu	a1,0(s8)
   12700:	41a48f33          	sub	t5,s1,s10
   12704:	000f051b          	sext.w	a0,t5
   12708:	0005881b          	sext.w	a6,a1
   1270c:	00a5d363          	bge	a1,a0,12712 <_vfprintf_r+0x14ae>
   12710:	8f42                	mv	t5,a6
   12712:	000f041b          	sext.w	s0,t5
   12716:	02805263          	blez	s0,1273a <_vfprintf_r+0x14d6>
   1271a:	55ae                	lw	a1,232(sp)
   1271c:	9622                	add	a2,a2,s0
   1271e:	01a7b023          	sd	s10,0(a5)
   12722:	0015851b          	addiw	a0,a1,1
   12726:	e780                	sd	s0,8(a5)
   12728:	f9b2                	sd	a2,240(sp)
   1272a:	d5aa                	sw	a0,232(sp)
   1272c:	0ca6c863          	blt	a3,a0,127fc <_vfprintf_r+0x1598>
   12730:	000c4583          	lbu	a1,0(s8)
   12734:	07c1                	addi	a5,a5,16
   12736:	0005881b          	sext.w	a6,a1
   1273a:	fff44513          	not	a0,s0
   1273e:	957d                	srai	a0,a0,0x3f
   12740:	00a47f33          	and	t5,s0,a0
   12744:	41e8043b          	subw	s0,a6,t5
   12748:	02804763          	bgtz	s0,12776 <_vfprintf_r+0x1512>
   1274c:	9d2e                	add	s10,s10,a1
   1274e:	f99047e3          	bgtz	s9,126dc <_vfprintf_r+0x1478>
   12752:	f9b047e3          	bgtz	s11,126e0 <_vfprintf_r+0x147c>
   12756:	836a                	mv	t1,s10
   12758:	843e                	mv	s0,a5
   1275a:	6d26                	ld	s10,72(sp)
   1275c:	77e2                	ld	a5,56(sp)
   1275e:	e162                	sd	s8,128(sp)
   12760:	79a6                	ld	s3,104(sp)
   12762:	00fd0733          	add	a4,s10,a5
   12766:	6dca                	ld	s11,144(sp)
   12768:	6bea                	ld	s7,152(sp)
   1276a:	6c06                	ld	s8,64(sp)
   1276c:	84b2                	mv	s1,a2
   1276e:	926771e3          	bgeu	a4,t1,12090 <_vfprintf_r+0xe2c>
   12772:	833a                	mv	t1,a4
   12774:	ba31                	j	12090 <_vfprintf_r+0xe2c>
   12776:	6f65                	lui	t5,0x19
   12778:	55ae                	lw	a1,232(sp)
   1277a:	d18f0f13          	addi	t5,t5,-744 # 18d18 <zeroes.0>
   1277e:	04875163          	bge	a4,s0,127c0 <_vfprintf_r+0x155c>
   12782:	f85a                	sd	s6,48(sp)
   12784:	a021                	j	1278c <_vfprintf_r+0x1528>
   12786:	3441                	addiw	s0,s0,-16
   12788:	02875b63          	bge	a4,s0,127be <_vfprintf_r+0x155a>
   1278c:	2585                	addiw	a1,a1,1
   1278e:	0641                	addi	a2,a2,16
   12790:	0167b023          	sd	s6,0(a5)
   12794:	e798                	sd	a4,8(a5)
   12796:	f9b2                	sd	a2,240(sp)
   12798:	d5ae                	sw	a1,232(sp)
   1279a:	07c1                	addi	a5,a5,16
   1279c:	feb6d5e3          	bge	a3,a1,12786 <_vfprintf_r+0x1522>
   127a0:	1190                	addi	a2,sp,224
   127a2:	85ca                	mv	a1,s2
   127a4:	854e                	mv	a0,s3
   127a6:	6a8000ef          	jal	12e4e <__sprint_r>
   127aa:	f2051663          	bnez	a0,11ed6 <_vfprintf_r+0xc72>
   127ae:	4741                	li	a4,16
   127b0:	3441                	addiw	s0,s0,-16
   127b2:	764e                	ld	a2,240(sp)
   127b4:	55ae                	lw	a1,232(sp)
   127b6:	87d2                	mv	a5,s4
   127b8:	469d                	li	a3,7
   127ba:	fc8749e3          	blt	a4,s0,1278c <_vfprintf_r+0x1528>
   127be:	7f42                	ld	t5,48(sp)
   127c0:	0015851b          	addiw	a0,a1,1
   127c4:	9622                	add	a2,a2,s0
   127c6:	01e7b023          	sd	t5,0(a5)
   127ca:	e780                	sd	s0,8(a5)
   127cc:	f9b2                	sd	a2,240(sp)
   127ce:	d5aa                	sw	a0,232(sp)
   127d0:	26a6c763          	blt	a3,a0,12a3e <_vfprintf_r+0x17da>
   127d4:	000c4583          	lbu	a1,0(s8)
   127d8:	07c1                	addi	a5,a5,16
   127da:	9d2e                	add	s10,s10,a1
   127dc:	bf8d                	j	1274e <_vfprintf_r+0x14ea>
   127de:	1c7d                	addi	s8,s8,-1
   127e0:	3cfd                	addiw	s9,s9,-1
   127e2:	b701                	j	126e2 <_vfprintf_r+0x147e>
   127e4:	1190                	addi	a2,sp,224
   127e6:	85ca                	mv	a1,s2
   127e8:	854e                	mv	a0,s3
   127ea:	664000ef          	jal	12e4e <__sprint_r>
   127ee:	ee051463          	bnez	a0,11ed6 <_vfprintf_r+0xc72>
   127f2:	764e                	ld	a2,240(sp)
   127f4:	87d2                	mv	a5,s4
   127f6:	4741                	li	a4,16
   127f8:	469d                	li	a3,7
   127fa:	b709                	j	126fc <_vfprintf_r+0x1498>
   127fc:	1190                	addi	a2,sp,224
   127fe:	85ca                	mv	a1,s2
   12800:	854e                	mv	a0,s3
   12802:	64c000ef          	jal	12e4e <__sprint_r>
   12806:	ec051863          	bnez	a0,11ed6 <_vfprintf_r+0xc72>
   1280a:	000c4583          	lbu	a1,0(s8)
   1280e:	764e                	ld	a2,240(sp)
   12810:	87d2                	mv	a5,s4
   12812:	0005881b          	sext.w	a6,a1
   12816:	4741                	li	a4,16
   12818:	469d                	li	a3,7
   1281a:	b705                	j	1273a <_vfprintf_r+0x14d6>
   1281c:	6522                	ld	a0,8(sp)
   1281e:	1190                	addi	a2,sp,224
   12820:	85ca                	mv	a1,s2
   12822:	62c000ef          	jal	12e4e <__sprint_r>
   12826:	ea051863          	bnez	a0,11ed6 <_vfprintf_r+0xc72>
   1282a:	576a                	lw	a4,184(sp)
   1282c:	74ce                	ld	s1,240(sp)
   1282e:	8452                	mv	s0,s4
   12830:	b1a9                	j	1247a <_vfprintf_r+0x1216>
   12832:	67e5                	lui	a5,0x19
   12834:	a2078d13          	addi	s10,a5,-1504 # 18a20 <__clzdi2+0x4a>
   12838:	b9d5                	j	1252c <_vfprintf_r+0x12c8>
   1283a:	6522                	ld	a0,8(sp)
   1283c:	1190                	addi	a2,sp,224
   1283e:	85ca                	mv	a1,s2
   12840:	60e000ef          	jal	12e4e <__sprint_r>
   12844:	e8051963          	bnez	a0,11ed6 <_vfprintf_r+0xc72>
   12848:	74ce                	ld	s1,240(sp)
   1284a:	8452                	mv	s0,s4
   1284c:	823ff06f          	j	1206e <_vfprintf_r+0xe0a>
   12850:	4699                	li	a3,6
   12852:	bcdd                	j	12348 <_vfprintf_r+0x10e4>
   12854:	1482                	slli	s1,s1,0x20
   12856:	9081                	srli	s1,s1,0x20
   12858:	bcad                	j	122d2 <_vfprintf_r+0x106e>
   1285a:	87a6                	mv	a5,s1
   1285c:	d21fe06f          	j	1157c <_vfprintf_r+0x318>
   12860:	1482                	slli	s1,s1,0x20
   12862:	9081                	srli	s1,s1,0x20
   12864:	d77fe06f          	j	115da <_vfprintf_r+0x376>
   12868:	1482                	slli	s1,s1,0x20
   1286a:	9081                	srli	s1,s1,0x20
   1286c:	f03a                	sd	a4,32(sp)
   1286e:	4785                	li	a5,1
   12870:	d75fe06f          	j	115e4 <_vfprintf_r+0x380>
   12874:	67c2                	ld	a5,16(sp)
   12876:	00f71023          	sh	a5,0(a4)
   1287a:	bf0ff06f          	j	11c6a <_vfprintf_r+0xa06>
   1287e:	6522                	ld	a0,8(sp)
   12880:	1190                	addi	a2,sp,224
   12882:	85ca                	mv	a1,s2
   12884:	5ca000ef          	jal	12e4e <__sprint_r>
   12888:	c59fe06f          	j	114e0 <_vfprintf_r+0x27c>
   1288c:	02d00793          	li	a5,45
   12890:	0af107a3          	sb	a5,175(sp)
   12894:	02d00713          	li	a4,45
   12898:	bb79                	j	12636 <_vfprintf_r+0x13d2>
   1289a:	6522                	ld	a0,8(sp)
   1289c:	1190                	addi	a2,sp,224
   1289e:	85ca                	mv	a1,s2
   128a0:	5ae000ef          	jal	12e4e <__sprint_r>
   128a4:	e2051963          	bnez	a0,11ed6 <_vfprintf_r+0xc72>
   128a8:	576a                	lw	a4,184(sp)
   128aa:	764e                	ld	a2,240(sp)
   128ac:	56ae                	lw	a3,232(sp)
   128ae:	8452                	mv	s0,s4
   128b0:	b9cd                	j	125a2 <_vfprintf_r+0x133e>
   128b2:	6522                	ld	a0,8(sp)
   128b4:	001b059b          	addiw	a1,s6,1
   128b8:	f83a                	sd	a4,48(sp)
   128ba:	ec1a                	sd	t1,24(sp)
   128bc:	ba2fe0ef          	jal	10c5e <_malloc_r>
   128c0:	6362                	ld	t1,24(sp)
   128c2:	7742                	ld	a4,48(sp)
   128c4:	8d2a                	mv	s10,a0
   128c6:	4c050563          	beqz	a0,12d90 <_vfprintf_r+0x1b2c>
   128ca:	ec2a                	sd	a0,24(sp)
   128cc:	8dba                	mv	s11,a4
   128ce:	dd9fe06f          	j	116a6 <_vfprintf_r+0x442>
   128d2:	75c2                	ld	a1,48(sp)
   128d4:	6522                	ld	a0,8(sp)
   128d6:	875a                	mv	a4,s6
   128d8:	0c810893          	addi	a7,sp,200
   128dc:	0bc10813          	addi	a6,sp,188
   128e0:	193c                	addi	a5,sp,184
   128e2:	4689                	li	a3,2
   128e4:	8666                	mv	a2,s9
   128e6:	240010ef          	jal	13b26 <_ldtoa_r>
   128ea:	7362                	ld	t1,56(sp)
   128ec:	04700713          	li	a4,71
   128f0:	8d2a                	mv	s10,a0
   128f2:	48e31d63          	bne	t1,a4,12d8c <_vfprintf_r+0x1b28>
   128f6:	001df713          	andi	a4,s11,1
   128fa:	1c071263          	bnez	a4,12abe <_vfprintf_r+0x185a>
   128fe:	57ea                	lw	a5,184(sp)
   12900:	f83e                	sd	a5,48(sp)
   12902:	67ae                	ld	a5,200(sp)
   12904:	41a787bb          	subw	a5,a5,s10
   12908:	fc3e                	sd	a5,56(sp)
   1290a:	77c2                	ld	a5,48(sp)
   1290c:	5775                	li	a4,-3
   1290e:	00e7c463          	blt	a5,a4,12916 <_vfprintf_r+0x16b2>
   12912:	0cfb5763          	bge	s6,a5,129e0 <_vfprintf_r+0x177c>
   12916:	77c2                	ld	a5,48(sp)
   12918:	3379                	addiw	t1,t1,-2
   1291a:	fff7871b          	addiw	a4,a5,-1
   1291e:	dd3a                	sw	a4,184(sp)
   12920:	0ff37693          	zext.b	a3,t1
   12924:	4601                	li	a2,0
   12926:	f49fe06f          	j	1186e <_vfprintf_r+0x60a>
   1292a:	77c2                	ld	a5,48(sp)
   1292c:	00a7c583          	lbu	a1,10(a5)
   12930:	feb68fa3          	sb	a1,-1(a3)
   12934:	f0bfe06f          	j	1183e <_vfprintf_r+0x5da>
   12938:	0af14703          	lbu	a4,175(sp)
   1293c:	4b01                	li	s6,0
   1293e:	c319                	beqz	a4,12944 <_vfprintf_r+0x16e0>
   12940:	c7ffe06f          	j	115be <_vfprintf_r+0x35a>
   12944:	ac5fe06f          	j	11408 <_vfprintf_r+0x1a4>
   12948:	875a                	mv	a4,s6
   1294a:	468d                	li	a3,3
   1294c:	75c2                	ld	a1,48(sp)
   1294e:	6522                	ld	a0,8(sp)
   12950:	0c810893          	addi	a7,sp,200
   12954:	0bc10813          	addi	a6,sp,188
   12958:	193c                	addi	a5,sp,184
   1295a:	8666                	mv	a2,s9
   1295c:	e09a                	sd	t1,64(sp)
   1295e:	fc3a                	sd	a4,56(sp)
   12960:	1c6010ef          	jal	13b26 <_ldtoa_r>
   12964:	7762                	ld	a4,56(sp)
   12966:	6306                	ld	t1,64(sp)
   12968:	8d2a                	mv	s10,a0
   1296a:	fdf37c13          	andi	s8,t1,-33
   1296e:	04600693          	li	a3,70
   12972:	00ed0833          	add	a6,s10,a4
   12976:	00dc1a63          	bne	s8,a3,1298a <_vfprintf_r+0x1726>
   1297a:	000d4603          	lbu	a2,0(s10)
   1297e:	03000693          	li	a3,48
   12982:	2ad60063          	beq	a2,a3,12c22 <_vfprintf_r+0x19be>
   12986:	56ea                	lw	a3,184(sp)
   12988:	9836                	add	a6,a6,a3
   1298a:	7542                	ld	a0,48(sp)
   1298c:	4601                	li	a2,0
   1298e:	4681                	li	a3,0
   12990:	85e6                	mv	a1,s9
   12992:	e0c2                	sd	a6,64(sp)
   12994:	fc1a                	sd	t1,56(sp)
   12996:	673040ef          	jal	17808 <__eqtf2>
   1299a:	7362                	ld	t1,56(sp)
   1299c:	6806                	ld	a6,64(sp)
   1299e:	12050563          	beqz	a0,12ac8 <_vfprintf_r+0x1864>
   129a2:	67ae                	ld	a5,200(sp)
   129a4:	0107fc63          	bgeu	a5,a6,129bc <_vfprintf_r+0x1758>
   129a8:	03000693          	li	a3,48
   129ac:	00178713          	addi	a4,a5,1
   129b0:	e5ba                	sd	a4,200(sp)
   129b2:	00d78023          	sb	a3,0(a5)
   129b6:	67ae                	ld	a5,200(sp)
   129b8:	ff07eae3          	bltu	a5,a6,129ac <_vfprintf_r+0x1748>
   129bc:	576a                	lw	a4,184(sp)
   129be:	f83a                	sd	a4,48(sp)
   129c0:	41a787bb          	subw	a5,a5,s10
   129c4:	04700713          	li	a4,71
   129c8:	fc3e                	sd	a5,56(sp)
   129ca:	f4ec00e3          	beq	s8,a4,1290a <_vfprintf_r+0x16a6>
   129ce:	04600713          	li	a4,70
   129d2:	14ec0c63          	beq	s8,a4,12b2a <_vfprintf_r+0x18c6>
   129d6:	77c2                	ld	a5,48(sp)
   129d8:	fff7871b          	addiw	a4,a5,-1
   129dc:	dd3a                	sw	a4,184(sp)
   129de:	b789                	j	12920 <_vfprintf_r+0x16bc>
   129e0:	77e2                	ld	a5,56(sp)
   129e2:	7742                	ld	a4,48(sp)
   129e4:	10f74c63          	blt	a4,a5,12afc <_vfprintf_r+0x1898>
   129e8:	77c2                	ld	a5,48(sp)
   129ea:	001df713          	andi	a4,s11,1
   129ee:	86be                	mv	a3,a5
   129f0:	c701                	beqz	a4,129f8 <_vfprintf_r+0x1794>
   129f2:	6746                	ld	a4,80(sp)
   129f4:	00f706bb          	addw	a3,a4,a5
   129f8:	400dfe13          	andi	t3,s11,1024
   129fc:	000e0563          	beqz	t3,12a06 <_vfprintf_r+0x17a2>
   12a00:	77c2                	ld	a5,48(sp)
   12a02:	24f04463          	bgtz	a5,12c4a <_vfprintf_r+0x19e6>
   12a06:	fff6c813          	not	a6,a3
   12a0a:	43f85813          	srai	a6,a6,0x3f
   12a0e:	0106f833          	and	a6,a3,a6
   12a12:	00080c1b          	sext.w	s8,a6
   12a16:	8da6                	mv	s11,s1
   12a18:	06700313          	li	t1,103
   12a1c:	e482                	sd	zero,72(sp)
   12a1e:	e082                	sd	zero,64(sp)
   12a20:	f07fe06f          	j	11926 <_vfprintf_r+0x6c2>
   12a24:	8dba                	mv	s11,a4
   12a26:	ec02                	sd	zero,24(sp)
   12a28:	0f810d13          	addi	s10,sp,248
   12a2c:	577d                	li	a4,-1
   12a2e:	177e                	slli	a4,a4,0x3f
   12a30:	02d00793          	li	a5,45
   12a34:	00ecccb3          	xor	s9,s9,a4
   12a38:	f4be                	sd	a5,104(sp)
   12a3a:	c85fe06f          	j	116be <_vfprintf_r+0x45a>
   12a3e:	1190                	addi	a2,sp,224
   12a40:	85ca                	mv	a1,s2
   12a42:	854e                	mv	a0,s3
   12a44:	40a000ef          	jal	12e4e <__sprint_r>
   12a48:	c8051763          	bnez	a0,11ed6 <_vfprintf_r+0xc72>
   12a4c:	000c4583          	lbu	a1,0(s8)
   12a50:	764e                	ld	a2,240(sp)
   12a52:	87d2                	mv	a5,s4
   12a54:	4741                	li	a4,16
   12a56:	469d                	li	a3,7
   12a58:	9d2e                	add	s10,s10,a1
   12a5a:	b9d5                	j	1274e <_vfprintf_r+0x14ea>
   12a5c:	02d00793          	li	a5,45
   12a60:	0af107a3          	sb	a5,175(sp)
   12a64:	02d00713          	li	a4,45
   12a68:	bc5d                	j	1251e <_vfprintf_r+0x12ba>
   12a6a:	57fd                	li	a5,-1
   12a6c:	e83e                	sd	a5,16(sp)
   12a6e:	aa1fe06f          	j	1150e <_vfprintf_r+0x2aa>
   12a72:	88da                	mv	a7,s6
   12a74:	8b4a                	mv	s6,s2
   12a76:	894e                	mv	s2,s3
   12a78:	79c2                	ld	s3,48(sp)
   12a7a:	b4ad                	j	124e4 <_vfprintf_r+0x1280>
   12a7c:	0af14703          	lbu	a4,175(sp)
   12a80:	f026                	sd	s1,32(sp)
   12a82:	e482                	sd	zero,72(sp)
   12a84:	e082                	sd	zero,64(sp)
   12a86:	f802                	sd	zero,48(sp)
   12a88:	8c5a                	mv	s8,s6
   12a8a:	86da                	mv	a3,s6
   12a8c:	4b01                	li	s6,0
   12a8e:	c319                	beqz	a4,12a94 <_vfprintf_r+0x1830>
   12a90:	b2ffe06f          	j	115be <_vfprintf_r+0x35a>
   12a94:	975fe06f          	j	11408 <_vfprintf_r+0x1a4>
   12a98:	75c2                	ld	a1,48(sp)
   12a9a:	6522                	ld	a0,8(sp)
   12a9c:	875a                	mv	a4,s6
   12a9e:	0c810893          	addi	a7,sp,200
   12aa2:	0bc10813          	addi	a6,sp,188
   12aa6:	193c                	addi	a5,sp,184
   12aa8:	4689                	li	a3,2
   12aaa:	8666                	mv	a2,s9
   12aac:	fc1a                	sd	t1,56(sp)
   12aae:	078010ef          	jal	13b26 <_ldtoa_r>
   12ab2:	001df713          	andi	a4,s11,1
   12ab6:	7362                	ld	t1,56(sp)
   12ab8:	8d2a                	mv	s10,a0
   12aba:	e40702e3          	beqz	a4,128fe <_vfprintf_r+0x169a>
   12abe:	016d0833          	add	a6,s10,s6
   12ac2:	04700c13          	li	s8,71
   12ac6:	b5d1                	j	1298a <_vfprintf_r+0x1726>
   12ac8:	57ea                	lw	a5,184(sp)
   12aca:	f83e                	sd	a5,48(sp)
   12acc:	87c2                	mv	a5,a6
   12ace:	bdcd                	j	129c0 <_vfprintf_r+0x175c>
   12ad0:	6522                	ld	a0,8(sp)
   12ad2:	1190                	addi	a2,sp,224
   12ad4:	85ca                	mv	a1,s2
   12ad6:	378000ef          	jal	12e4e <__sprint_r>
   12ada:	be051e63          	bnez	a0,11ed6 <_vfprintf_r+0xc72>
   12ade:	56ea                	lw	a3,184(sp)
   12ae0:	77e2                	ld	a5,56(sp)
   12ae2:	74ce                	ld	s1,240(sp)
   12ae4:	8452                	mv	s0,s4
   12ae6:	40d786bb          	subw	a3,a5,a3
   12aea:	deeff06f          	j	120d8 <_vfprintf_r+0xe74>
   12aee:	67e5                	lui	a5,0x19
   12af0:	a3878d13          	addi	s10,a5,-1480 # 18a38 <__clzdi2+0x62>
   12af4:	bc25                	j	1252c <_vfprintf_r+0x12c8>
   12af6:	8cee                	mv	s9,s11
   12af8:	bfcff06f          	j	11ef4 <_vfprintf_r+0xc90>
   12afc:	67c6                	ld	a5,80(sp)
   12afe:	7762                	ld	a4,56(sp)
   12b00:	06700313          	li	t1,103
   12b04:	00e786bb          	addw	a3,a5,a4
   12b08:	77c2                	ld	a5,48(sp)
   12b0a:	1ef05c63          	blez	a5,12d02 <_vfprintf_r+0x1a9e>
   12b0e:	400dfe13          	andi	t3,s11,1024
   12b12:	120e1e63          	bnez	t3,12c4e <_vfprintf_r+0x19ea>
   12b16:	fff6c813          	not	a6,a3
   12b1a:	43f85813          	srai	a6,a6,0x3f
   12b1e:	0106f833          	and	a6,a3,a6
   12b22:	00080c1b          	sext.w	s8,a6
   12b26:	8da6                	mv	s11,s1
   12b28:	bdd5                	j	12a1c <_vfprintf_r+0x17b8>
   12b2a:	77c2                	ld	a5,48(sp)
   12b2c:	001df713          	andi	a4,s11,1
   12b30:	00eb6733          	or	a4,s6,a4
   12b34:	20f05263          	blez	a5,12d38 <_vfprintf_r+0x1ad4>
   12b38:	1a071e63          	bnez	a4,12cf4 <_vfprintf_r+0x1a90>
   12b3c:	76c2                	ld	a3,48(sp)
   12b3e:	06600313          	li	t1,102
   12b42:	b7f1                	j	12b0e <_vfprintf_r+0x18aa>
   12b44:	68e5                	lui	a7,0x19
   12b46:	55c1                	li	a1,-16
   12b48:	40e00b3b          	negw	s6,a4
   12b4c:	d1888893          	addi	a7,a7,-744 # 18d18 <zeroes.0>
   12b50:	04b75263          	bge	a4,a1,12b94 <_vfprintf_r+0x1930>
   12b54:	f84e                	sd	s3,48(sp)
   12b56:	4cc1                	li	s9,16
   12b58:	449d                	li	s1,7
   12b5a:	89c6                	mv	s3,a7
   12b5c:	a021                	j	12b64 <_vfprintf_r+0x1900>
   12b5e:	3b41                	addiw	s6,s6,-16
   12b60:	036cd863          	bge	s9,s6,12b90 <_vfprintf_r+0x192c>
   12b64:	2685                	addiw	a3,a3,1
   12b66:	0641                	addi	a2,a2,16
   12b68:	01343023          	sd	s3,0(s0)
   12b6c:	01943423          	sd	s9,8(s0)
   12b70:	f9b2                	sd	a2,240(sp)
   12b72:	d5b6                	sw	a3,232(sp)
   12b74:	0441                	addi	s0,s0,16
   12b76:	fed4d4e3          	bge	s1,a3,12b5e <_vfprintf_r+0x18fa>
   12b7a:	6522                	ld	a0,8(sp)
   12b7c:	1190                	addi	a2,sp,224
   12b7e:	85ca                	mv	a1,s2
   12b80:	2ce000ef          	jal	12e4e <__sprint_r>
   12b84:	b4051963          	bnez	a0,11ed6 <_vfprintf_r+0xc72>
   12b88:	764e                	ld	a2,240(sp)
   12b8a:	56ae                	lw	a3,232(sp)
   12b8c:	8452                	mv	s0,s4
   12b8e:	bfc1                	j	12b5e <_vfprintf_r+0x18fa>
   12b90:	88ce                	mv	a7,s3
   12b92:	79c2                	ld	s3,48(sp)
   12b94:	2685                	addiw	a3,a3,1
   12b96:	965a                	add	a2,a2,s6
   12b98:	01143023          	sd	a7,0(s0)
   12b9c:	01643423          	sd	s6,8(s0)
   12ba0:	f9b2                	sd	a2,240(sp)
   12ba2:	d5b6                	sw	a3,232(sp)
   12ba4:	471d                	li	a4,7
   12ba6:	90d751e3          	bge	a4,a3,124a8 <_vfprintf_r+0x1244>
   12baa:	6522                	ld	a0,8(sp)
   12bac:	1190                	addi	a2,sp,224
   12bae:	85ca                	mv	a1,s2
   12bb0:	29e000ef          	jal	12e4e <__sprint_r>
   12bb4:	b2051163          	bnez	a0,11ed6 <_vfprintf_r+0xc72>
   12bb8:	764e                	ld	a2,240(sp)
   12bba:	56ae                	lw	a3,232(sp)
   12bbc:	8452                	mv	s0,s4
   12bbe:	b2e5                	j	125a6 <_vfprintf_r+0x1342>
   12bc0:	001b071b          	addiw	a4,s6,1
   12bc4:	4689                	li	a3,2
   12bc6:	b359                	j	1294c <_vfprintf_r+0x16e8>
   12bc8:	0c210693          	addi	a3,sp,194
   12bcc:	e619                	bnez	a2,12bda <_vfprintf_r+0x1976>
   12bce:	03000693          	li	a3,48
   12bd2:	0cd10123          	sb	a3,194(sp)
   12bd6:	0c310693          	addi	a3,sp,195
   12bda:	139c                	addi	a5,sp,480
   12bdc:	40f68633          	sub	a2,a3,a5
   12be0:	0307071b          	addiw	a4,a4,48
   12be4:	1216079b          	addiw	a5,a2,289
   12be8:	00e68023          	sb	a4,0(a3)
   12bec:	f8be                	sd	a5,112(sp)
   12bee:	cfffe06f          	j	118ec <_vfprintf_r+0x688>
   12bf2:	001df613          	andi	a2,s11,1
   12bf6:	e219                	bnez	a2,12bfc <_vfprintf_r+0x1998>
   12bf8:	d0ffe06f          	j	11906 <_vfprintf_r+0x6a2>
   12bfc:	d05fe06f          	j	11900 <_vfprintf_r+0x69c>
   12c00:	ec02                	sd	zero,24(sp)
   12c02:	4b19                	li	s6,6
   12c04:	aa3fe06f          	j	116a6 <_vfprintf_r+0x442>
   12c08:	f03a                	sd	a4,32(sp)
   12c0a:	aeaff06f          	j	11ef4 <_vfprintf_r+0xc90>
   12c0e:	c31c                	sw	a5,0(a4)
   12c10:	85aff06f          	j	11c6a <_vfprintf_r+0xa06>
   12c14:	000b0463          	beqz	s6,12c1c <_vfprintf_r+0x19b8>
   12c18:	a8ffe06f          	j	116a6 <_vfprintf_r+0x442>
   12c1c:	4b05                	li	s6,1
   12c1e:	a89fe06f          	j	116a6 <_vfprintf_r+0x442>
   12c22:	7542                	ld	a0,48(sp)
   12c24:	4601                	li	a2,0
   12c26:	4681                	li	a3,0
   12c28:	85e6                	mv	a1,s9
   12c2a:	e4c2                	sd	a6,72(sp)
   12c2c:	e09a                	sd	t1,64(sp)
   12c2e:	fc3a                	sd	a4,56(sp)
   12c30:	3d9040ef          	jal	17808 <__eqtf2>
   12c34:	7762                	ld	a4,56(sp)
   12c36:	6306                	ld	t1,64(sp)
   12c38:	6826                	ld	a6,72(sp)
   12c3a:	e57d                	bnez	a0,12d28 <_vfprintf_r+0x1ac4>
   12c3c:	57ea                	lw	a5,184(sp)
   12c3e:	983e                	add	a6,a6,a5
   12c40:	f83e                	sd	a5,48(sp)
   12c42:	41a807bb          	subw	a5,a6,s10
   12c46:	fc3e                	sd	a5,56(sp)
   12c48:	b359                	j	129ce <_vfprintf_r+0x176a>
   12c4a:	06700313          	li	t1,103
   12c4e:	678a                	ld	a5,128(sp)
   12c50:	0ff00613          	li	a2,255
   12c54:	0007c703          	lbu	a4,0(a5)
   12c58:	14c70463          	beq	a4,a2,12da0 <_vfprintf_r+0x1b3c>
   12c5c:	863e                	mv	a2,a5
   12c5e:	77c2                	ld	a5,48(sp)
   12c60:	4881                	li	a7,0
   12c62:	4801                	li	a6,0
   12c64:	0ff00593          	li	a1,255
   12c68:	0007051b          	sext.w	a0,a4
   12c6c:	00f75a63          	bge	a4,a5,12c80 <_vfprintf_r+0x1a1c>
   12c70:	00164703          	lbu	a4,1(a2)
   12c74:	9f89                	subw	a5,a5,a0
   12c76:	cb1d                	beqz	a4,12cac <_vfprintf_r+0x1a48>
   12c78:	2805                	addiw	a6,a6,1
   12c7a:	0605                	addi	a2,a2,1
   12c7c:	feb716e3          	bne	a4,a1,12c68 <_vfprintf_r+0x1a04>
   12c80:	e132                	sd	a2,128(sp)
   12c82:	e0c2                	sd	a6,64(sp)
   12c84:	e4c6                	sd	a7,72(sp)
   12c86:	f83e                	sd	a5,48(sp)
   12c88:	67a6                	ld	a5,72(sp)
   12c8a:	6706                	ld	a4,64(sp)
   12c8c:	8da6                	mv	s11,s1
   12c8e:	9f3d                	addw	a4,a4,a5
   12c90:	67aa                	ld	a5,136(sp)
   12c92:	02f7073b          	mulw	a4,a4,a5
   12c96:	9f35                	addw	a4,a4,a3
   12c98:	0007069b          	sext.w	a3,a4
   12c9c:	fff6c613          	not	a2,a3
   12ca0:	967d                	srai	a2,a2,0x3f
   12ca2:	8f71                	and	a4,a4,a2
   12ca4:	00070c1b          	sext.w	s8,a4
   12ca8:	c7ffe06f          	j	11926 <_vfprintf_r+0x6c2>
   12cac:	00064703          	lbu	a4,0(a2)
   12cb0:	2885                	addiw	a7,a7,1
   12cb2:	b7e9                	j	12c7c <_vfprintf_r+0x1a18>
   12cb4:	684a                	ld	a6,144(sp)
   12cb6:	8962                	mv	s2,s8
   12cb8:	8c4e                	mv	s8,s3
   12cba:	010d06bb          	addw	a3,s10,a6
   12cbe:	418686bb          	subw	a3,a3,s8
   12cc2:	02069613          	slli	a2,a3,0x20
   12cc6:	6306                	ld	t1,64(sp)
   12cc8:	6ba6                	ld	s7,72(sp)
   12cca:	7446                	ld	s0,112(sp)
   12ccc:	79e2                	ld	s3,56(sp)
   12cce:	00065463          	bgez	a2,12cd6 <_vfprintf_r+0x1a72>
   12cd2:	b6dfe06f          	j	1183e <_vfprintf_r+0x5da>
   12cd6:	2685                	addiw	a3,a3,1
   12cd8:	96e2                	add	a3,a3,s8
   12cda:	03000613          	li	a2,48
   12cde:	0c05                	addi	s8,s8,1
   12ce0:	fecc0fa3          	sb	a2,-1(s8)
   12ce4:	ff869de3          	bne	a3,s8,12cde <_vfprintf_r+0x1a7a>
   12ce8:	b59fe06f          	j	11840 <_vfprintf_r+0x5dc>
   12cec:	65e2                	ld	a1,24(sp)
   12cee:	894e                	mv	s2,s3
   12cf0:	9e8ff06f          	j	11ed8 <_vfprintf_r+0xc74>
   12cf4:	6746                	ld	a4,80(sp)
   12cf6:	06600313          	li	t1,102
   12cfa:	016706bb          	addw	a3,a4,s6
   12cfe:	9ebd                	addw	a3,a3,a5
   12d00:	b539                	j	12b0e <_vfprintf_r+0x18aa>
   12d02:	40f6873b          	subw	a4,a3,a5
   12d06:	2705                	addiw	a4,a4,1
   12d08:	0007069b          	sext.w	a3,a4
   12d0c:	fff6c613          	not	a2,a3
   12d10:	967d                	srai	a2,a2,0x3f
   12d12:	8f71                	and	a4,a4,a2
   12d14:	00070c1b          	sext.w	s8,a4
   12d18:	8da6                	mv	s11,s1
   12d1a:	b309                	j	12a1c <_vfprintf_r+0x17b8>
   12d1c:	6765                	lui	a4,0x19
   12d1e:	a4070793          	addi	a5,a4,-1472 # 18a40 <__clzdi2+0x6a>
   12d22:	f83e                	sd	a5,48(sp)
   12d24:	a1bfe06f          	j	1173e <_vfprintf_r+0x4da>
   12d28:	4685                	li	a3,1
   12d2a:	9e99                	subw	a3,a3,a4
   12d2c:	dd36                	sw	a3,184(sp)
   12d2e:	b9a9                	j	12988 <_vfprintf_r+0x1724>
   12d30:	07000693          	li	a3,112
   12d34:	b39fe06f          	j	1186c <_vfprintf_r+0x608>
   12d38:	e719                	bnez	a4,12d46 <_vfprintf_r+0x1ae2>
   12d3a:	8da6                	mv	s11,s1
   12d3c:	4c05                	li	s8,1
   12d3e:	06600313          	li	t1,102
   12d42:	4685                	li	a3,1
   12d44:	b9e1                	j	12a1c <_vfprintf_r+0x17b8>
   12d46:	67c6                	ld	a5,80(sp)
   12d48:	8da6                	mv	s11,s1
   12d4a:	06600313          	li	t1,102
   12d4e:	0017871b          	addiw	a4,a5,1
   12d52:	0167073b          	addw	a4,a4,s6
   12d56:	0007069b          	sext.w	a3,a4
   12d5a:	fff6c613          	not	a2,a3
   12d5e:	967d                	srai	a2,a2,0x3f
   12d60:	8f71                	and	a4,a4,a2
   12d62:	00070c1b          	sext.w	s8,a4
   12d66:	b95d                	j	12a1c <_vfprintf_r+0x17b8>
   12d68:	4789                	li	a5,2
   12d6a:	f8be                	sd	a5,112(sp)
   12d6c:	b81fe06f          	j	118ec <_vfprintf_r+0x688>
   12d70:	7682                	ld	a3,32(sp)
   12d72:	429c                	lw	a5,0(a3)
   12d74:	06a1                	addi	a3,a3,8
   12d76:	00078b1b          	sext.w	s6,a5
   12d7a:	0007d363          	bgez	a5,12d80 <_vfprintf_r+0x1b1c>
   12d7e:	5b7d                	li	s6,-1
   12d80:	0019c303          	lbu	t1,1(s3)
   12d84:	f036                	sd	a3,32(sp)
   12d86:	89ba                	mv	s3,a4
   12d88:	e0cfe06f          	j	11394 <_vfprintf_r+0x130>
   12d8c:	875a                	mv	a4,s6
   12d8e:	bef1                	j	1296a <_vfprintf_r+0x1706>
   12d90:	01095783          	lhu	a5,16(s2)
   12d94:	0407e793          	ori	a5,a5,64
   12d98:	00f91823          	sh	a5,16(s2)
   12d9c:	f44fe06f          	j	114e0 <_vfprintf_r+0x27c>
   12da0:	e482                	sd	zero,72(sp)
   12da2:	e082                	sd	zero,64(sp)
   12da4:	b5d5                	j	12c88 <_vfprintf_r+0x1a24>

0000000000012da6 <vfprintf>:
   12da6:	87aa                	mv	a5,a0
   12da8:	2201b503          	ld	a0,544(gp) # 1adc8 <_impure_ptr>
   12dac:	86b2                	mv	a3,a2
   12dae:	862e                	mv	a2,a1
   12db0:	85be                	mv	a1,a5
   12db2:	cb2fe06f          	j	11264 <_vfprintf_r>

0000000000012db6 <__sbprintf>:
   12db6:	b3010113          	addi	sp,sp,-1232
   12dba:	0125d703          	lhu	a4,18(a1)
   12dbe:	0105d783          	lhu	a5,16(a1)
   12dc2:	4c813023          	sd	s0,1216(sp)
   12dc6:	842e                	mv	s0,a1
   12dc8:	65c1                	lui	a1,0x10
   12dca:	35f5                	addiw	a1,a1,-3 # fffd <exit-0xeb>
   12dcc:	0ac42e03          	lw	t3,172(s0)
   12dd0:	03043303          	ld	t1,48(s0)
   12dd4:	04043883          	ld	a7,64(s0)
   12dd8:	0107171b          	slliw	a4,a4,0x10
   12ddc:	8fed                	and	a5,a5,a1
   12dde:	8fd9                	or	a5,a5,a4
   12de0:	40000813          	li	a6,1024
   12de4:	c83e                	sw	a5,16(sp)
   12de6:	858a                	mv	a1,sp
   12de8:	191c                	addi	a5,sp,176
   12dea:	4a913c23          	sd	s1,1208(sp)
   12dee:	4b213823          	sd	s2,1200(sp)
   12df2:	4c113423          	sd	ra,1224(sp)
   12df6:	892a                	mv	s2,a0
   12df8:	d772                	sw	t3,172(sp)
   12dfa:	f81a                	sd	t1,48(sp)
   12dfc:	e0c6                	sd	a7,64(sp)
   12dfe:	e03e                	sd	a5,0(sp)
   12e00:	ec3e                	sd	a5,24(sp)
   12e02:	c642                	sw	a6,12(sp)
   12e04:	d042                	sw	a6,32(sp)
   12e06:	d402                	sw	zero,40(sp)
   12e08:	c5cfe0ef          	jal	11264 <_vfprintf_r>
   12e0c:	84aa                	mv	s1,a0
   12e0e:	02055963          	bgez	a0,12e40 <__sbprintf+0x8a>
   12e12:	01015783          	lhu	a5,16(sp)
   12e16:	0407f793          	andi	a5,a5,64
   12e1a:	c799                	beqz	a5,12e28 <__sbprintf+0x72>
   12e1c:	01045783          	lhu	a5,16(s0)
   12e20:	0407e793          	ori	a5,a5,64
   12e24:	00f41823          	sh	a5,16(s0)
   12e28:	4c813083          	ld	ra,1224(sp)
   12e2c:	4c013403          	ld	s0,1216(sp)
   12e30:	4b013903          	ld	s2,1200(sp)
   12e34:	8526                	mv	a0,s1
   12e36:	4b813483          	ld	s1,1208(sp)
   12e3a:	4d010113          	addi	sp,sp,1232
   12e3e:	8082                	ret
   12e40:	858a                	mv	a1,sp
   12e42:	854a                	mv	a0,s2
   12e44:	280000ef          	jal	130c4 <_fflush_r>
   12e48:	d569                	beqz	a0,12e12 <__sbprintf+0x5c>
   12e4a:	54fd                	li	s1,-1
   12e4c:	b7d9                	j	12e12 <__sbprintf+0x5c>

0000000000012e4e <__sprint_r>:
   12e4e:	6a1c                	ld	a5,16(a2)
   12e50:	1141                	addi	sp,sp,-16
   12e52:	e022                	sd	s0,0(sp)
   12e54:	e406                	sd	ra,8(sp)
   12e56:	8432                	mv	s0,a2
   12e58:	eb81                	bnez	a5,12e68 <__sprint_r+0x1a>
   12e5a:	60a2                	ld	ra,8(sp)
   12e5c:	00042423          	sw	zero,8(s0)
   12e60:	6402                	ld	s0,0(sp)
   12e62:	4501                	li	a0,0
   12e64:	0141                	addi	sp,sp,16
   12e66:	8082                	ret
   12e68:	2e2000ef          	jal	1314a <__sfvwrite_r>
   12e6c:	60a2                	ld	ra,8(sp)
   12e6e:	00043823          	sd	zero,16(s0)
   12e72:	00042423          	sw	zero,8(s0)
   12e76:	6402                	ld	s0,0(sp)
   12e78:	0141                	addi	sp,sp,16
   12e7a:	8082                	ret

0000000000012e7c <_fclose_r>:
   12e7c:	1101                	addi	sp,sp,-32
   12e7e:	ec06                	sd	ra,24(sp)
   12e80:	e04a                	sd	s2,0(sp)
   12e82:	cd89                	beqz	a1,12e9c <_fclose_r+0x20>
   12e84:	e822                	sd	s0,16(sp)
   12e86:	e426                	sd	s1,8(sp)
   12e88:	842e                	mv	s0,a1
   12e8a:	84aa                	mv	s1,a0
   12e8c:	c119                	beqz	a0,12e92 <_fclose_r+0x16>
   12e8e:	653c                	ld	a5,72(a0)
   12e90:	c7d9                	beqz	a5,12f1e <_fclose_r+0xa2>
   12e92:	01041783          	lh	a5,16(s0)
   12e96:	eb89                	bnez	a5,12ea8 <_fclose_r+0x2c>
   12e98:	6442                	ld	s0,16(sp)
   12e9a:	64a2                	ld	s1,8(sp)
   12e9c:	60e2                	ld	ra,24(sp)
   12e9e:	4901                	li	s2,0
   12ea0:	854a                	mv	a0,s2
   12ea2:	6902                	ld	s2,0(sp)
   12ea4:	6105                	addi	sp,sp,32
   12ea6:	8082                	ret
   12ea8:	85a2                	mv	a1,s0
   12eaa:	8526                	mv	a0,s1
   12eac:	080000ef          	jal	12f2c <__sflush_r>
   12eb0:	683c                	ld	a5,80(s0)
   12eb2:	892a                	mv	s2,a0
   12eb4:	c791                	beqz	a5,12ec0 <_fclose_r+0x44>
   12eb6:	780c                	ld	a1,48(s0)
   12eb8:	8526                	mv	a0,s1
   12eba:	9782                	jalr	a5
   12ebc:	04054663          	bltz	a0,12f08 <_fclose_r+0x8c>
   12ec0:	01045783          	lhu	a5,16(s0)
   12ec4:	0807f793          	andi	a5,a5,128
   12ec8:	e7b1                	bnez	a5,12f14 <_fclose_r+0x98>
   12eca:	6c2c                	ld	a1,88(s0)
   12ecc:	c991                	beqz	a1,12ee0 <_fclose_r+0x64>
   12ece:	07440793          	addi	a5,s0,116
   12ed2:	00f58563          	beq	a1,a5,12edc <_fclose_r+0x60>
   12ed6:	8526                	mv	a0,s1
   12ed8:	b43fd0ef          	jal	10a1a <_free_r>
   12edc:	04043c23          	sd	zero,88(s0)
   12ee0:	7c2c                	ld	a1,120(s0)
   12ee2:	c591                	beqz	a1,12eee <_fclose_r+0x72>
   12ee4:	8526                	mv	a0,s1
   12ee6:	b35fd0ef          	jal	10a1a <_free_r>
   12eea:	06043c23          	sd	zero,120(s0)
   12eee:	d22fd0ef          	jal	10410 <__sfp_lock_acquire>
   12ef2:	00041823          	sh	zero,16(s0)
   12ef6:	d1cfd0ef          	jal	10412 <__sfp_lock_release>
   12efa:	60e2                	ld	ra,24(sp)
   12efc:	6442                	ld	s0,16(sp)
   12efe:	64a2                	ld	s1,8(sp)
   12f00:	854a                	mv	a0,s2
   12f02:	6902                	ld	s2,0(sp)
   12f04:	6105                	addi	sp,sp,32
   12f06:	8082                	ret
   12f08:	01045783          	lhu	a5,16(s0)
   12f0c:	597d                	li	s2,-1
   12f0e:	0807f793          	andi	a5,a5,128
   12f12:	dfc5                	beqz	a5,12eca <_fclose_r+0x4e>
   12f14:	6c0c                	ld	a1,24(s0)
   12f16:	8526                	mv	a0,s1
   12f18:	b03fd0ef          	jal	10a1a <_free_r>
   12f1c:	b77d                	j	12eca <_fclose_r+0x4e>
   12f1e:	cdcfd0ef          	jal	103fa <__sinit>
   12f22:	bf85                	j	12e92 <_fclose_r+0x16>

0000000000012f24 <fclose>:
   12f24:	85aa                	mv	a1,a0
   12f26:	2201b503          	ld	a0,544(gp) # 1adc8 <_impure_ptr>
   12f2a:	bf89                	j	12e7c <_fclose_r>

0000000000012f2c <__sflush_r>:
   12f2c:	01059703          	lh	a4,16(a1)
   12f30:	7179                	addi	sp,sp,-48
   12f32:	f022                	sd	s0,32(sp)
   12f34:	e44e                	sd	s3,8(sp)
   12f36:	f406                	sd	ra,40(sp)
   12f38:	00877793          	andi	a5,a4,8
   12f3c:	842e                	mv	s0,a1
   12f3e:	89aa                	mv	s3,a0
   12f40:	e7f1                	bnez	a5,1300c <__sflush_r+0xe0>
   12f42:	6785                	lui	a5,0x1
   12f44:	80078793          	addi	a5,a5,-2048 # 800 <exit-0xf8e8>
   12f48:	4594                	lw	a3,8(a1)
   12f4a:	8fd9                	or	a5,a5,a4
   12f4c:	00f59823          	sh	a5,16(a1)
   12f50:	10d05763          	blez	a3,1305e <__sflush_r+0x132>
   12f54:	04843803          	ld	a6,72(s0)
   12f58:	0a080463          	beqz	a6,13000 <__sflush_r+0xd4>
   12f5c:	ec26                	sd	s1,24(sp)
   12f5e:	03371693          	slli	a3,a4,0x33
   12f62:	0009a483          	lw	s1,0(s3)
   12f66:	0009a023          	sw	zero,0(s3)
   12f6a:	780c                	ld	a1,48(s0)
   12f6c:	1006c063          	bltz	a3,1306c <__sflush_r+0x140>
   12f70:	4601                	li	a2,0
   12f72:	4685                	li	a3,1
   12f74:	854e                	mv	a0,s3
   12f76:	9802                	jalr	a6
   12f78:	57fd                	li	a5,-1
   12f7a:	862a                	mv	a2,a0
   12f7c:	12f50163          	beq	a0,a5,1309e <__sflush_r+0x172>
   12f80:	01041783          	lh	a5,16(s0)
   12f84:	04843803          	ld	a6,72(s0)
   12f88:	780c                	ld	a1,48(s0)
   12f8a:	8b91                	andi	a5,a5,4
   12f8c:	c799                	beqz	a5,12f9a <__sflush_r+0x6e>
   12f8e:	4418                	lw	a4,8(s0)
   12f90:	6c3c                	ld	a5,88(s0)
   12f92:	8e19                	sub	a2,a2,a4
   12f94:	c399                	beqz	a5,12f9a <__sflush_r+0x6e>
   12f96:	583c                	lw	a5,112(s0)
   12f98:	8e1d                	sub	a2,a2,a5
   12f9a:	4681                	li	a3,0
   12f9c:	854e                	mv	a0,s3
   12f9e:	9802                	jalr	a6
   12fa0:	57fd                	li	a5,-1
   12fa2:	0cf51763          	bne	a0,a5,13070 <__sflush_r+0x144>
   12fa6:	0009a683          	lw	a3,0(s3)
   12faa:	47f5                	li	a5,29
   12fac:	01041703          	lh	a4,16(s0)
   12fb0:	0006861b          	sext.w	a2,a3
   12fb4:	10d7e163          	bltu	a5,a3,130b6 <__sflush_r+0x18a>
   12fb8:	204007b7          	lui	a5,0x20400
   12fbc:	0785                	addi	a5,a5,1 # 20400001 <__BSS_END__+0x203e4c59>
   12fbe:	00c7d7b3          	srl	a5,a5,a2
   12fc2:	8b85                	andi	a5,a5,1
   12fc4:	cbed                	beqz	a5,130b6 <__sflush_r+0x18a>
   12fc6:	6c10                	ld	a2,24(s0)
   12fc8:	77fd                	lui	a5,0xfffff
   12fca:	7ff78793          	addi	a5,a5,2047 # fffffffffffff7ff <__BSS_END__+0xfffffffffffe4457>
   12fce:	8ff9                	and	a5,a5,a4
   12fd0:	00f41823          	sh	a5,16(s0)
   12fd4:	00042423          	sw	zero,8(s0)
   12fd8:	e010                	sd	a2,0(s0)
   12fda:	03371793          	slli	a5,a4,0x33
   12fde:	0007d363          	bgez	a5,12fe4 <__sflush_r+0xb8>
   12fe2:	c6dd                	beqz	a3,13090 <__sflush_r+0x164>
   12fe4:	6c2c                	ld	a1,88(s0)
   12fe6:	0099a023          	sw	s1,0(s3)
   12fea:	c9c5                	beqz	a1,1309a <__sflush_r+0x16e>
   12fec:	07440793          	addi	a5,s0,116
   12ff0:	00f58563          	beq	a1,a5,12ffa <__sflush_r+0xce>
   12ff4:	854e                	mv	a0,s3
   12ff6:	a25fd0ef          	jal	10a1a <_free_r>
   12ffa:	64e2                	ld	s1,24(sp)
   12ffc:	04043c23          	sd	zero,88(s0)
   13000:	4501                	li	a0,0
   13002:	70a2                	ld	ra,40(sp)
   13004:	7402                	ld	s0,32(sp)
   13006:	69a2                	ld	s3,8(sp)
   13008:	6145                	addi	sp,sp,48
   1300a:	8082                	ret
   1300c:	e84a                	sd	s2,16(sp)
   1300e:	0185b903          	ld	s2,24(a1)
   13012:	04090b63          	beqz	s2,13068 <__sflush_r+0x13c>
   13016:	ec26                	sd	s1,24(sp)
   13018:	6184                	ld	s1,0(a1)
   1301a:	8b0d                	andi	a4,a4,3
   1301c:	0125b023          	sd	s2,0(a1)
   13020:	412484bb          	subw	s1,s1,s2
   13024:	4781                	li	a5,0
   13026:	e311                	bnez	a4,1302a <__sflush_r+0xfe>
   13028:	519c                	lw	a5,32(a1)
   1302a:	c45c                	sw	a5,12(s0)
   1302c:	00904663          	bgtz	s1,13038 <__sflush_r+0x10c>
   13030:	a81d                	j	13066 <__sflush_r+0x13a>
   13032:	992a                	add	s2,s2,a0
   13034:	02905963          	blez	s1,13066 <__sflush_r+0x13a>
   13038:	603c                	ld	a5,64(s0)
   1303a:	780c                	ld	a1,48(s0)
   1303c:	86a6                	mv	a3,s1
   1303e:	864a                	mv	a2,s2
   13040:	854e                	mv	a0,s3
   13042:	9782                	jalr	a5
   13044:	9c89                	subw	s1,s1,a0
   13046:	fea046e3          	bgtz	a0,13032 <__sflush_r+0x106>
   1304a:	01041703          	lh	a4,16(s0)
   1304e:	6942                	ld	s2,16(sp)
   13050:	04076713          	ori	a4,a4,64
   13054:	64e2                	ld	s1,24(sp)
   13056:	00e41823          	sh	a4,16(s0)
   1305a:	557d                	li	a0,-1
   1305c:	b75d                	j	13002 <__sflush_r+0xd6>
   1305e:	59b4                	lw	a3,112(a1)
   13060:	eed04ae3          	bgtz	a3,12f54 <__sflush_r+0x28>
   13064:	bf71                	j	13000 <__sflush_r+0xd4>
   13066:	64e2                	ld	s1,24(sp)
   13068:	6942                	ld	s2,16(sp)
   1306a:	bf59                	j	13000 <__sflush_r+0xd4>
   1306c:	6850                	ld	a2,144(s0)
   1306e:	bf31                	j	12f8a <__sflush_r+0x5e>
   13070:	01041703          	lh	a4,16(s0)
   13074:	6c14                	ld	a3,24(s0)
   13076:	77fd                	lui	a5,0xfffff
   13078:	7ff78793          	addi	a5,a5,2047 # fffffffffffff7ff <__BSS_END__+0xfffffffffffe4457>
   1307c:	8ff9                	and	a5,a5,a4
   1307e:	00f41823          	sh	a5,16(s0)
   13082:	00042423          	sw	zero,8(s0)
   13086:	e014                	sd	a3,0(s0)
   13088:	03371793          	slli	a5,a4,0x33
   1308c:	f407dce3          	bgez	a5,12fe4 <__sflush_r+0xb8>
   13090:	6c2c                	ld	a1,88(s0)
   13092:	e848                	sd	a0,144(s0)
   13094:	0099a023          	sw	s1,0(s3)
   13098:	f9b1                	bnez	a1,12fec <__sflush_r+0xc0>
   1309a:	64e2                	ld	s1,24(sp)
   1309c:	b795                	j	13000 <__sflush_r+0xd4>
   1309e:	0009a783          	lw	a5,0(s3)
   130a2:	ec078fe3          	beqz	a5,12f80 <__sflush_r+0x54>
   130a6:	4775                	li	a4,29
   130a8:	00e78a63          	beq	a5,a4,130bc <__sflush_r+0x190>
   130ac:	4759                	li	a4,22
   130ae:	00e78763          	beq	a5,a4,130bc <__sflush_r+0x190>
   130b2:	01041703          	lh	a4,16(s0)
   130b6:	04076713          	ori	a4,a4,64
   130ba:	bf69                	j	13054 <__sflush_r+0x128>
   130bc:	0099a023          	sw	s1,0(s3)
   130c0:	64e2                	ld	s1,24(sp)
   130c2:	bf3d                	j	13000 <__sflush_r+0xd4>

00000000000130c4 <_fflush_r>:
   130c4:	1101                	addi	sp,sp,-32
   130c6:	e822                	sd	s0,16(sp)
   130c8:	ec06                	sd	ra,24(sp)
   130ca:	842a                	mv	s0,a0
   130cc:	c119                	beqz	a0,130d2 <_fflush_r+0xe>
   130ce:	653c                	ld	a5,72(a0)
   130d0:	cf91                	beqz	a5,130ec <_fflush_r+0x28>
   130d2:	01059783          	lh	a5,16(a1)
   130d6:	e791                	bnez	a5,130e2 <_fflush_r+0x1e>
   130d8:	60e2                	ld	ra,24(sp)
   130da:	6442                	ld	s0,16(sp)
   130dc:	4501                	li	a0,0
   130de:	6105                	addi	sp,sp,32
   130e0:	8082                	ret
   130e2:	8522                	mv	a0,s0
   130e4:	6442                	ld	s0,16(sp)
   130e6:	60e2                	ld	ra,24(sp)
   130e8:	6105                	addi	sp,sp,32
   130ea:	b589                	j	12f2c <__sflush_r>
   130ec:	e42e                	sd	a1,8(sp)
   130ee:	b0cfd0ef          	jal	103fa <__sinit>
   130f2:	65a2                	ld	a1,8(sp)
   130f4:	bff9                	j	130d2 <_fflush_r+0xe>

00000000000130f6 <fflush>:
   130f6:	cd05                	beqz	a0,1312e <fflush+0x38>
   130f8:	85aa                	mv	a1,a0
   130fa:	2201b503          	ld	a0,544(gp) # 1adc8 <_impure_ptr>
   130fe:	c119                	beqz	a0,13104 <fflush+0xe>
   13100:	653c                	ld	a5,72(a0)
   13102:	c799                	beqz	a5,13110 <fflush+0x1a>
   13104:	01059783          	lh	a5,16(a1)
   13108:	e399                	bnez	a5,1310e <fflush+0x18>
   1310a:	4501                	li	a0,0
   1310c:	8082                	ret
   1310e:	bd39                	j	12f2c <__sflush_r>
   13110:	1101                	addi	sp,sp,-32
   13112:	e42e                	sd	a1,8(sp)
   13114:	e02a                	sd	a0,0(sp)
   13116:	ec06                	sd	ra,24(sp)
   13118:	ae2fd0ef          	jal	103fa <__sinit>
   1311c:	65a2                	ld	a1,8(sp)
   1311e:	6502                	ld	a0,0(sp)
   13120:	01059783          	lh	a5,16(a1)
   13124:	e385                	bnez	a5,13144 <fflush+0x4e>
   13126:	60e2                	ld	ra,24(sp)
   13128:	4501                	li	a0,0
   1312a:	6105                	addi	sp,sp,32
   1312c:	8082                	ret
   1312e:	6669                	lui	a2,0x1a
   13130:	65cd                	lui	a1,0x13
   13132:	6569                	lui	a0,0x1a
   13134:	22860613          	addi	a2,a2,552 # 1a228 <__sglue>
   13138:	0c458593          	addi	a1,a1,196 # 130c4 <_fflush_r>
   1313c:	24050513          	addi	a0,a0,576 # 1a240 <_impure_data>
   13140:	af4fd06f          	j	10434 <_fwalk_sglue>
   13144:	60e2                	ld	ra,24(sp)
   13146:	6105                	addi	sp,sp,32
   13148:	b3d5                	j	12f2c <__sflush_r>

000000000001314a <__sfvwrite_r>:
   1314a:	6a1c                	ld	a5,16(a2)
   1314c:	1c078b63          	beqz	a5,13322 <__sfvwrite_r+0x1d8>
   13150:	01059703          	lh	a4,16(a1)
   13154:	711d                	addi	sp,sp,-96
   13156:	e8a2                	sd	s0,80(sp)
   13158:	f456                	sd	s5,40(sp)
   1315a:	ec5e                	sd	s7,24(sp)
   1315c:	ec86                	sd	ra,88(sp)
   1315e:	00877793          	andi	a5,a4,8
   13162:	8bb2                	mv	s7,a2
   13164:	8aaa                	mv	s5,a0
   13166:	842e                	mv	s0,a1
   13168:	c7b5                	beqz	a5,131d4 <__sfvwrite_r+0x8a>
   1316a:	6d9c                	ld	a5,24(a1)
   1316c:	c7a5                	beqz	a5,131d4 <__sfvwrite_r+0x8a>
   1316e:	e4a6                	sd	s1,72(sp)
   13170:	e0ca                	sd	s2,64(sp)
   13172:	fc4e                	sd	s3,56(sp)
   13174:	f852                	sd	s4,48(sp)
   13176:	00277793          	andi	a5,a4,2
   1317a:	000bb483          	ld	s1,0(s7)
   1317e:	cfa5                	beqz	a5,131f6 <__sfvwrite_r+0xac>
   13180:	603c                	ld	a5,64(s0)
   13182:	780c                	ld	a1,48(s0)
   13184:	80000a37          	lui	s4,0x80000
   13188:	4981                	li	s3,0
   1318a:	4901                	li	s2,0
   1318c:	c00a4a13          	xori	s4,s4,-1024
   13190:	864e                	mv	a2,s3
   13192:	8556                	mv	a0,s5
   13194:	02090a63          	beqz	s2,131c8 <__sfvwrite_r+0x7e>
   13198:	86ca                	mv	a3,s2
   1319a:	012a7363          	bgeu	s4,s2,131a0 <__sfvwrite_r+0x56>
   1319e:	86d2                	mv	a3,s4
   131a0:	2681                	sext.w	a3,a3
   131a2:	9782                	jalr	a5
   131a4:	2ea05863          	blez	a0,13494 <__sfvwrite_r+0x34a>
   131a8:	010bb783          	ld	a5,16(s7)
   131ac:	99aa                	add	s3,s3,a0
   131ae:	40a90933          	sub	s2,s2,a0
   131b2:	8f89                	sub	a5,a5,a0
   131b4:	00fbb823          	sd	a5,16(s7)
   131b8:	12078163          	beqz	a5,132da <__sfvwrite_r+0x190>
   131bc:	603c                	ld	a5,64(s0)
   131be:	780c                	ld	a1,48(s0)
   131c0:	864e                	mv	a2,s3
   131c2:	8556                	mv	a0,s5
   131c4:	fc091ae3          	bnez	s2,13198 <__sfvwrite_r+0x4e>
   131c8:	0004b983          	ld	s3,0(s1)
   131cc:	0084b903          	ld	s2,8(s1)
   131d0:	04c1                	addi	s1,s1,16
   131d2:	bf7d                	j	13190 <__sfvwrite_r+0x46>
   131d4:	85a2                	mv	a1,s0
   131d6:	8556                	mv	a0,s5
   131d8:	2d4000ef          	jal	134ac <__swsetup_r>
   131dc:	12051c63          	bnez	a0,13314 <__sfvwrite_r+0x1ca>
   131e0:	01041703          	lh	a4,16(s0)
   131e4:	e4a6                	sd	s1,72(sp)
   131e6:	e0ca                	sd	s2,64(sp)
   131e8:	fc4e                	sd	s3,56(sp)
   131ea:	f852                	sd	s4,48(sp)
   131ec:	00277793          	andi	a5,a4,2
   131f0:	000bb483          	ld	s1,0(s7)
   131f4:	f7d1                	bnez	a5,13180 <__sfvwrite_r+0x36>
   131f6:	f05a                	sd	s6,32(sp)
   131f8:	e862                	sd	s8,16(sp)
   131fa:	e466                	sd	s9,8(sp)
   131fc:	00177793          	andi	a5,a4,1
   13200:	ebad                	bnez	a5,13272 <__sfvwrite_r+0x128>
   13202:	00c42a03          	lw	s4,12(s0)
   13206:	601c                	ld	a5,0(s0)
   13208:	80000b37          	lui	s6,0x80000
   1320c:	4c01                	li	s8,0
   1320e:	4901                	li	s2,0
   13210:	fffb4b13          	not	s6,s6
   13214:	853e                	mv	a0,a5
   13216:	04090863          	beqz	s2,13266 <__sfvwrite_r+0x11c>
   1321a:	20077693          	andi	a3,a4,512
   1321e:	14068663          	beqz	a3,1336a <__sfvwrite_r+0x220>
   13222:	1b497563          	bgeu	s2,s4,133cc <__sfvwrite_r+0x282>
   13226:	8cca                	mv	s9,s2
   13228:	8a4a                	mv	s4,s2
   1322a:	8652                	mv	a2,s4
   1322c:	85e2                	mv	a1,s8
   1322e:	516000ef          	jal	13744 <memmove>
   13232:	4458                	lw	a4,12(s0)
   13234:	601c                	ld	a5,0(s0)
   13236:	89ca                	mv	s3,s2
   13238:	4197073b          	subw	a4,a4,s9
   1323c:	9a3e                	add	s4,s4,a5
   1323e:	c458                	sw	a4,12(s0)
   13240:	01443023          	sd	s4,0(s0)
   13244:	4901                	li	s2,0
   13246:	010bb783          	ld	a5,16(s7)
   1324a:	9c4e                	add	s8,s8,s3
   1324c:	413787b3          	sub	a5,a5,s3
   13250:	00fbb823          	sd	a5,16(s7)
   13254:	c3c1                	beqz	a5,132d4 <__sfvwrite_r+0x18a>
   13256:	601c                	ld	a5,0(s0)
   13258:	01041703          	lh	a4,16(s0)
   1325c:	00c42a03          	lw	s4,12(s0)
   13260:	853e                	mv	a0,a5
   13262:	fa091ce3          	bnez	s2,1321a <__sfvwrite_r+0xd0>
   13266:	0004bc03          	ld	s8,0(s1)
   1326a:	0084b903          	ld	s2,8(s1)
   1326e:	04c1                	addi	s1,s1,16
   13270:	b755                	j	13214 <__sfvwrite_r+0xca>
   13272:	4b01                	li	s6,0
   13274:	4501                	li	a0,0
   13276:	4c81                	li	s9,0
   13278:	4c01                	li	s8,0
   1327a:	0a0c0663          	beqz	s8,13326 <__sfvwrite_r+0x1dc>
   1327e:	cd45                	beqz	a0,13336 <__sfvwrite_r+0x1ec>
   13280:	8a5a                	mv	s4,s6
   13282:	016c7363          	bgeu	s8,s6,13288 <__sfvwrite_r+0x13e>
   13286:	8a62                	mv	s4,s8
   13288:	6008                	ld	a0,0(s0)
   1328a:	6c18                	ld	a4,24(s0)
   1328c:	445c                	lw	a5,12(s0)
   1328e:	5014                	lw	a3,32(s0)
   13290:	8952                	mv	s2,s4
   13292:	00a77663          	bgeu	a4,a0,1329e <__sfvwrite_r+0x154>
   13296:	00d789bb          	addw	s3,a5,a3
   1329a:	0b49c963          	blt	s3,s4,1334c <__sfvwrite_r+0x202>
   1329e:	1ada4363          	blt	s4,a3,13444 <__sfvwrite_r+0x2fa>
   132a2:	603c                	ld	a5,64(s0)
   132a4:	780c                	ld	a1,48(s0)
   132a6:	8666                	mv	a2,s9
   132a8:	8556                	mv	a0,s5
   132aa:	9782                	jalr	a5
   132ac:	892a                	mv	s2,a0
   132ae:	04a05663          	blez	a0,132fa <__sfvwrite_r+0x1b0>
   132b2:	0005079b          	sext.w	a5,a0
   132b6:	40fb0b3b          	subw	s6,s6,a5
   132ba:	4505                	li	a0,1
   132bc:	020b0a63          	beqz	s6,132f0 <__sfvwrite_r+0x1a6>
   132c0:	010bb783          	ld	a5,16(s7)
   132c4:	9cca                	add	s9,s9,s2
   132c6:	412c0c33          	sub	s8,s8,s2
   132ca:	412787b3          	sub	a5,a5,s2
   132ce:	00fbb823          	sd	a5,16(s7)
   132d2:	f7c5                	bnez	a5,1327a <__sfvwrite_r+0x130>
   132d4:	7b02                	ld	s6,32(sp)
   132d6:	6c42                	ld	s8,16(sp)
   132d8:	6ca2                	ld	s9,8(sp)
   132da:	60e6                	ld	ra,88(sp)
   132dc:	6446                	ld	s0,80(sp)
   132de:	64a6                	ld	s1,72(sp)
   132e0:	6906                	ld	s2,64(sp)
   132e2:	79e2                	ld	s3,56(sp)
   132e4:	7a42                	ld	s4,48(sp)
   132e6:	7aa2                	ld	s5,40(sp)
   132e8:	6be2                	ld	s7,24(sp)
   132ea:	4501                	li	a0,0
   132ec:	6125                	addi	sp,sp,96
   132ee:	8082                	ret
   132f0:	85a2                	mv	a1,s0
   132f2:	8556                	mv	a0,s5
   132f4:	dd1ff0ef          	jal	130c4 <_fflush_r>
   132f8:	d561                	beqz	a0,132c0 <__sfvwrite_r+0x176>
   132fa:	01041783          	lh	a5,16(s0)
   132fe:	7b02                	ld	s6,32(sp)
   13300:	6c42                	ld	s8,16(sp)
   13302:	6ca2                	ld	s9,8(sp)
   13304:	64a6                	ld	s1,72(sp)
   13306:	6906                	ld	s2,64(sp)
   13308:	79e2                	ld	s3,56(sp)
   1330a:	7a42                	ld	s4,48(sp)
   1330c:	0407e793          	ori	a5,a5,64
   13310:	00f41823          	sh	a5,16(s0)
   13314:	60e6                	ld	ra,88(sp)
   13316:	6446                	ld	s0,80(sp)
   13318:	7aa2                	ld	s5,40(sp)
   1331a:	6be2                	ld	s7,24(sp)
   1331c:	557d                	li	a0,-1
   1331e:	6125                	addi	sp,sp,96
   13320:	8082                	ret
   13322:	4501                	li	a0,0
   13324:	8082                	ret
   13326:	0084bc03          	ld	s8,8(s1)
   1332a:	87a6                	mv	a5,s1
   1332c:	04c1                	addi	s1,s1,16
   1332e:	fe0c0ce3          	beqz	s8,13326 <__sfvwrite_r+0x1dc>
   13332:	0007bc83          	ld	s9,0(a5)
   13336:	8662                	mv	a2,s8
   13338:	45a9                	li	a1,10
   1333a:	8566                	mv	a0,s9
   1333c:	24a000ef          	jal	13586 <memchr>
   13340:	14050763          	beqz	a0,1348e <__sfvwrite_r+0x344>
   13344:	0505                	addi	a0,a0,1
   13346:	41950b3b          	subw	s6,a0,s9
   1334a:	bf1d                	j	13280 <__sfvwrite_r+0x136>
   1334c:	85e6                	mv	a1,s9
   1334e:	864e                	mv	a2,s3
   13350:	3f4000ef          	jal	13744 <memmove>
   13354:	601c                	ld	a5,0(s0)
   13356:	85a2                	mv	a1,s0
   13358:	8556                	mv	a0,s5
   1335a:	97ce                	add	a5,a5,s3
   1335c:	e01c                	sd	a5,0(s0)
   1335e:	d67ff0ef          	jal	130c4 <_fflush_r>
   13362:	fd41                	bnez	a0,132fa <__sfvwrite_r+0x1b0>
   13364:	87ce                	mv	a5,s3
   13366:	894e                	mv	s2,s3
   13368:	b7b9                	j	132b6 <__sfvwrite_r+0x16c>
   1336a:	6c18                	ld	a4,24(s0)
   1336c:	02f76763          	bltu	a4,a5,1339a <__sfvwrite_r+0x250>
   13370:	5018                	lw	a4,32(s0)
   13372:	02e96463          	bltu	s2,a4,1339a <__sfvwrite_r+0x250>
   13376:	86ca                	mv	a3,s2
   13378:	012b7363          	bgeu	s6,s2,1337e <__sfvwrite_r+0x234>
   1337c:	86da                	mv	a3,s6
   1337e:	02e6e73b          	remw	a4,a3,a4
   13382:	603c                	ld	a5,64(s0)
   13384:	780c                	ld	a1,48(s0)
   13386:	8662                	mv	a2,s8
   13388:	8556                	mv	a0,s5
   1338a:	9e99                	subw	a3,a3,a4
   1338c:	9782                	jalr	a5
   1338e:	89aa                	mv	s3,a0
   13390:	f6a055e3          	blez	a0,132fa <__sfvwrite_r+0x1b0>
   13394:	41390933          	sub	s2,s2,s3
   13398:	b57d                	j	13246 <__sfvwrite_r+0xfc>
   1339a:	89d2                	mv	s3,s4
   1339c:	01497363          	bgeu	s2,s4,133a2 <__sfvwrite_r+0x258>
   133a0:	89ca                	mv	s3,s2
   133a2:	853e                	mv	a0,a5
   133a4:	864e                	mv	a2,s3
   133a6:	85e2                	mv	a1,s8
   133a8:	39c000ef          	jal	13744 <memmove>
   133ac:	4458                	lw	a4,12(s0)
   133ae:	601c                	ld	a5,0(s0)
   133b0:	413706bb          	subw	a3,a4,s3
   133b4:	97ce                	add	a5,a5,s3
   133b6:	c454                	sw	a3,12(s0)
   133b8:	e01c                	sd	a5,0(s0)
   133ba:	fee9                	bnez	a3,13394 <__sfvwrite_r+0x24a>
   133bc:	85a2                	mv	a1,s0
   133be:	8556                	mv	a0,s5
   133c0:	d05ff0ef          	jal	130c4 <_fflush_r>
   133c4:	f91d                	bnez	a0,132fa <__sfvwrite_r+0x1b0>
   133c6:	41390933          	sub	s2,s2,s3
   133ca:	bdb5                	j	13246 <__sfvwrite_r+0xfc>
   133cc:	48077693          	andi	a3,a4,1152
   133d0:	cac1                	beqz	a3,13460 <__sfvwrite_r+0x316>
   133d2:	5010                	lw	a2,32(s0)
   133d4:	6c0c                	ld	a1,24(s0)
   133d6:	0016169b          	slliw	a3,a2,0x1
   133da:	9eb1                	addw	a3,a3,a2
   133dc:	8f8d                	sub	a5,a5,a1
   133de:	01f6d99b          	srliw	s3,a3,0x1f
   133e2:	00078c9b          	sext.w	s9,a5
   133e6:	00d989bb          	addw	s3,s3,a3
   133ea:	001c8693          	addi	a3,s9,1
   133ee:	4019d99b          	sraiw	s3,s3,0x1
   133f2:	96ca                	add	a3,a3,s2
   133f4:	00d9f663          	bgeu	s3,a3,13400 <__sfvwrite_r+0x2b6>
   133f8:	0017869b          	addiw	a3,a5,1
   133fc:	012689bb          	addw	s3,a3,s2
   13400:	40077713          	andi	a4,a4,1024
   13404:	c325                	beqz	a4,13464 <__sfvwrite_r+0x31a>
   13406:	85ce                	mv	a1,s3
   13408:	8556                	mv	a0,s5
   1340a:	855fd0ef          	jal	10c5e <_malloc_r>
   1340e:	8a2a                	mv	s4,a0
   13410:	c549                	beqz	a0,1349a <__sfvwrite_r+0x350>
   13412:	6c0c                	ld	a1,24(s0)
   13414:	8666                	mv	a2,s9
   13416:	400000ef          	jal	13816 <memcpy>
   1341a:	01045783          	lhu	a5,16(s0)
   1341e:	b7f7f793          	andi	a5,a5,-1153
   13422:	0807e793          	ori	a5,a5,128
   13426:	00f41823          	sh	a5,16(s0)
   1342a:	019a0533          	add	a0,s4,s9
   1342e:	419987bb          	subw	a5,s3,s9
   13432:	01443c23          	sd	s4,24(s0)
   13436:	e008                	sd	a0,0(s0)
   13438:	03342023          	sw	s3,32(s0)
   1343c:	8cca                	mv	s9,s2
   1343e:	c45c                	sw	a5,12(s0)
   13440:	8a4a                	mv	s4,s2
   13442:	b3e5                	j	1322a <__sfvwrite_r+0xe0>
   13444:	8652                	mv	a2,s4
   13446:	85e6                	mv	a1,s9
   13448:	2fc000ef          	jal	13744 <memmove>
   1344c:	4454                	lw	a3,12(s0)
   1344e:	6018                	ld	a4,0(s0)
   13450:	000a079b          	sext.w	a5,s4
   13454:	414686bb          	subw	a3,a3,s4
   13458:	9752                	add	a4,a4,s4
   1345a:	c454                	sw	a3,12(s0)
   1345c:	e018                	sd	a4,0(s0)
   1345e:	bda1                	j	132b6 <__sfvwrite_r+0x16c>
   13460:	8cd2                	mv	s9,s4
   13462:	b3e1                	j	1322a <__sfvwrite_r+0xe0>
   13464:	864e                	mv	a2,s3
   13466:	8556                	mv	a0,s5
   13468:	0c1020ef          	jal	15d28 <_realloc_r>
   1346c:	8a2a                	mv	s4,a0
   1346e:	fd55                	bnez	a0,1342a <__sfvwrite_r+0x2e0>
   13470:	6c0c                	ld	a1,24(s0)
   13472:	8556                	mv	a0,s5
   13474:	da6fd0ef          	jal	10a1a <_free_r>
   13478:	01041783          	lh	a5,16(s0)
   1347c:	4731                	li	a4,12
   1347e:	7b02                	ld	s6,32(sp)
   13480:	6c42                	ld	s8,16(sp)
   13482:	6ca2                	ld	s9,8(sp)
   13484:	00eaa023          	sw	a4,0(s5)
   13488:	f7f7f793          	andi	a5,a5,-129
   1348c:	bda5                	j	13304 <__sfvwrite_r+0x1ba>
   1348e:	001c0b1b          	addiw	s6,s8,1
   13492:	b3fd                	j	13280 <__sfvwrite_r+0x136>
   13494:	01041783          	lh	a5,16(s0)
   13498:	b5b5                	j	13304 <__sfvwrite_r+0x1ba>
   1349a:	4731                	li	a4,12
   1349c:	01041783          	lh	a5,16(s0)
   134a0:	7b02                	ld	s6,32(sp)
   134a2:	6c42                	ld	s8,16(sp)
   134a4:	6ca2                	ld	s9,8(sp)
   134a6:	00eaa023          	sw	a4,0(s5)
   134aa:	bda9                	j	13304 <__sfvwrite_r+0x1ba>

00000000000134ac <__swsetup_r>:
   134ac:	2201b783          	ld	a5,544(gp) # 1adc8 <_impure_ptr>
   134b0:	1101                	addi	sp,sp,-32
   134b2:	e822                	sd	s0,16(sp)
   134b4:	e426                	sd	s1,8(sp)
   134b6:	ec06                	sd	ra,24(sp)
   134b8:	84aa                	mv	s1,a0
   134ba:	842e                	mv	s0,a1
   134bc:	c399                	beqz	a5,134c2 <__swsetup_r+0x16>
   134be:	67b8                	ld	a4,72(a5)
   134c0:	c75d                	beqz	a4,1356e <__swsetup_r+0xc2>
   134c2:	01041783          	lh	a5,16(s0)
   134c6:	0087f713          	andi	a4,a5,8
   134ca:	c721                	beqz	a4,13512 <__swsetup_r+0x66>
   134cc:	6c18                	ld	a4,24(s0)
   134ce:	cf31                	beqz	a4,1352a <__swsetup_r+0x7e>
   134d0:	0017f693          	andi	a3,a5,1
   134d4:	ce91                	beqz	a3,134f0 <__swsetup_r+0x44>
   134d6:	5014                	lw	a3,32(s0)
   134d8:	00042623          	sw	zero,12(s0)
   134dc:	4501                	li	a0,0
   134de:	40d006bb          	negw	a3,a3
   134e2:	d414                	sw	a3,40(s0)
   134e4:	cf11                	beqz	a4,13500 <__swsetup_r+0x54>
   134e6:	60e2                	ld	ra,24(sp)
   134e8:	6442                	ld	s0,16(sp)
   134ea:	64a2                	ld	s1,8(sp)
   134ec:	6105                	addi	sp,sp,32
   134ee:	8082                	ret
   134f0:	0027f693          	andi	a3,a5,2
   134f4:	4601                	li	a2,0
   134f6:	e291                	bnez	a3,134fa <__swsetup_r+0x4e>
   134f8:	5010                	lw	a2,32(s0)
   134fa:	c450                	sw	a2,12(s0)
   134fc:	4501                	li	a0,0
   134fe:	f765                	bnez	a4,134e6 <__swsetup_r+0x3a>
   13500:	0807f713          	andi	a4,a5,128
   13504:	d36d                	beqz	a4,134e6 <__swsetup_r+0x3a>
   13506:	0407e793          	ori	a5,a5,64
   1350a:	00f41823          	sh	a5,16(s0)
   1350e:	557d                	li	a0,-1
   13510:	bfd9                	j	134e6 <__swsetup_r+0x3a>
   13512:	0107f713          	andi	a4,a5,16
   13516:	c325                	beqz	a4,13576 <__swsetup_r+0xca>
   13518:	0047f713          	andi	a4,a5,4
   1351c:	e70d                	bnez	a4,13546 <__swsetup_r+0x9a>
   1351e:	6c18                	ld	a4,24(s0)
   13520:	0087e793          	ori	a5,a5,8
   13524:	00f41823          	sh	a5,16(s0)
   13528:	f745                	bnez	a4,134d0 <__swsetup_r+0x24>
   1352a:	2807f693          	andi	a3,a5,640
   1352e:	20000613          	li	a2,512
   13532:	f8c68fe3          	beq	a3,a2,134d0 <__swsetup_r+0x24>
   13536:	85a2                	mv	a1,s0
   13538:	8526                	mv	a0,s1
   1353a:	3e7020ef          	jal	16120 <__smakebuf_r>
   1353e:	01041783          	lh	a5,16(s0)
   13542:	6c18                	ld	a4,24(s0)
   13544:	b771                	j	134d0 <__swsetup_r+0x24>
   13546:	6c2c                	ld	a1,88(s0)
   13548:	cd81                	beqz	a1,13560 <__swsetup_r+0xb4>
   1354a:	07440713          	addi	a4,s0,116
   1354e:	00e58763          	beq	a1,a4,1355c <__swsetup_r+0xb0>
   13552:	8526                	mv	a0,s1
   13554:	cc6fd0ef          	jal	10a1a <_free_r>
   13558:	01041783          	lh	a5,16(s0)
   1355c:	04043c23          	sd	zero,88(s0)
   13560:	6c18                	ld	a4,24(s0)
   13562:	fdb7f793          	andi	a5,a5,-37
   13566:	00042423          	sw	zero,8(s0)
   1356a:	e018                	sd	a4,0(s0)
   1356c:	bf55                	j	13520 <__swsetup_r+0x74>
   1356e:	853e                	mv	a0,a5
   13570:	e8bfc0ef          	jal	103fa <__sinit>
   13574:	b7b9                	j	134c2 <__swsetup_r+0x16>
   13576:	4725                	li	a4,9
   13578:	c098                	sw	a4,0(s1)
   1357a:	0407e793          	ori	a5,a5,64
   1357e:	00f41823          	sh	a5,16(s0)
   13582:	557d                	li	a0,-1
   13584:	b78d                	j	134e6 <__swsetup_r+0x3a>

0000000000013586 <memchr>:
   13586:	00757793          	andi	a5,a0,7
   1358a:	0ff5f693          	zext.b	a3,a1
   1358e:	c395                	beqz	a5,135b2 <memchr+0x2c>
   13590:	fff60793          	addi	a5,a2,-1
   13594:	c605                	beqz	a2,135bc <memchr+0x36>
   13596:	567d                	li	a2,-1
   13598:	a801                	j	135a8 <memchr+0x22>
   1359a:	0505                	addi	a0,a0,1
   1359c:	00757713          	andi	a4,a0,7
   135a0:	cb11                	beqz	a4,135b4 <memchr+0x2e>
   135a2:	17fd                	addi	a5,a5,-1
   135a4:	00c78c63          	beq	a5,a2,135bc <memchr+0x36>
   135a8:	00054703          	lbu	a4,0(a0)
   135ac:	fed717e3          	bne	a4,a3,1359a <memchr+0x14>
   135b0:	8082                	ret
   135b2:	87b2                	mv	a5,a2
   135b4:	471d                	li	a4,7
   135b6:	00f76563          	bltu	a4,a5,135c0 <memchr+0x3a>
   135ba:	e3bd                	bnez	a5,13620 <memchr+0x9a>
   135bc:	4501                	li	a0,0
   135be:	8082                	ret
   135c0:	0ff5f593          	zext.b	a1,a1
   135c4:	f0101837          	lui	a6,0xf0101
   135c8:	00859713          	slli	a4,a1,0x8
   135cc:	feff08b7          	lui	a7,0xfeff0
   135d0:	0812                	slli	a6,a6,0x4
   135d2:	972e                	add	a4,a4,a1
   135d4:	eff88893          	addi	a7,a7,-257 # fffffffffefefeff <__BSS_END__+0xfffffffffefd4b57>
   135d8:	10180813          	addi	a6,a6,257 # fffffffff0101101 <__BSS_END__+0xfffffffff00e5d59>
   135dc:	01071593          	slli	a1,a4,0x10
   135e0:	08c2                	slli	a7,a7,0x10
   135e2:	0842                	slli	a6,a6,0x10
   135e4:	95ba                	add	a1,a1,a4
   135e6:	eff88893          	addi	a7,a7,-257
   135ea:	10180813          	addi	a6,a6,257
   135ee:	02059713          	slli	a4,a1,0x20
   135f2:	08c2                	slli	a7,a7,0x10
   135f4:	083e                	slli	a6,a6,0xf
   135f6:	95ba                	add	a1,a1,a4
   135f8:	eff88893          	addi	a7,a7,-257
   135fc:	08080813          	addi	a6,a6,128
   13600:	431d                	li	t1,7
   13602:	a029                	j	1360c <memchr+0x86>
   13604:	17e1                	addi	a5,a5,-8
   13606:	0521                	addi	a0,a0,8
   13608:	faf379e3          	bgeu	t1,a5,135ba <memchr+0x34>
   1360c:	6118                	ld	a4,0(a0)
   1360e:	8f2d                	xor	a4,a4,a1
   13610:	01170633          	add	a2,a4,a7
   13614:	fff74713          	not	a4,a4
   13618:	8f71                	and	a4,a4,a2
   1361a:	01077733          	and	a4,a4,a6
   1361e:	d37d                	beqz	a4,13604 <memchr+0x7e>
   13620:	97aa                	add	a5,a5,a0
   13622:	a021                	j	1362a <memchr+0xa4>
   13624:	0505                	addi	a0,a0,1
   13626:	f8a78be3          	beq	a5,a0,135bc <memchr+0x36>
   1362a:	00054703          	lbu	a4,0(a0)
   1362e:	fed71be3          	bne	a4,a3,13624 <memchr+0x9e>
   13632:	8082                	ret

0000000000013634 <strncpy>:
   13634:	00a5e7b3          	or	a5,a1,a0
   13638:	8b9d                	andi	a5,a5,7
   1363a:	e781                	bnez	a5,13642 <strncpy+0xe>
   1363c:	479d                	li	a5,7
   1363e:	02c7eb63          	bltu	a5,a2,13674 <strncpy+0x40>
   13642:	872a                	mv	a4,a0
   13644:	a811                	j	13658 <strncpy+0x24>
   13646:	fff5c683          	lbu	a3,-1(a1)
   1364a:	fff60813          	addi	a6,a2,-1
   1364e:	fed78fa3          	sb	a3,-1(a5)
   13652:	ca81                	beqz	a3,13662 <strncpy+0x2e>
   13654:	873e                	mv	a4,a5
   13656:	8642                	mv	a2,a6
   13658:	0585                	addi	a1,a1,1
   1365a:	00170793          	addi	a5,a4,1
   1365e:	f665                	bnez	a2,13646 <strncpy+0x12>
   13660:	8082                	ret
   13662:	9732                	add	a4,a4,a2
   13664:	06080163          	beqz	a6,136c6 <strncpy+0x92>
   13668:	0785                	addi	a5,a5,1
   1366a:	fe078fa3          	sb	zero,-1(a5)
   1366e:	fee79de3          	bne	a5,a4,13668 <strncpy+0x34>
   13672:	8082                	ret
   13674:	f0101837          	lui	a6,0xf0101
   13678:	feff08b7          	lui	a7,0xfeff0
   1367c:	0812                	slli	a6,a6,0x4
   1367e:	eff88893          	addi	a7,a7,-257 # fffffffffefefeff <__BSS_END__+0xfffffffffefd4b57>
   13682:	10180813          	addi	a6,a6,257 # fffffffff0101101 <__BSS_END__+0xfffffffff00e5d59>
   13686:	08c2                	slli	a7,a7,0x10
   13688:	0842                	slli	a6,a6,0x10
   1368a:	eff88893          	addi	a7,a7,-257
   1368e:	10180813          	addi	a6,a6,257
   13692:	08c2                	slli	a7,a7,0x10
   13694:	083e                	slli	a6,a6,0xf
   13696:	872a                	mv	a4,a0
   13698:	eff88893          	addi	a7,a7,-257
   1369c:	08080813          	addi	a6,a6,128
   136a0:	4e1d                	li	t3,7
   136a2:	a039                	j	136b0 <strncpy+0x7c>
   136a4:	e314                	sd	a3,0(a4)
   136a6:	1661                	addi	a2,a2,-8
   136a8:	0721                	addi	a4,a4,8
   136aa:	05a1                	addi	a1,a1,8
   136ac:	face76e3          	bgeu	t3,a2,13658 <strncpy+0x24>
   136b0:	6194                	ld	a3,0(a1)
   136b2:	011687b3          	add	a5,a3,a7
   136b6:	fff6c313          	not	t1,a3
   136ba:	0067f7b3          	and	a5,a5,t1
   136be:	0107f7b3          	and	a5,a5,a6
   136c2:	d3ed                	beqz	a5,136a4 <strncpy+0x70>
   136c4:	bf51                	j	13658 <strncpy+0x24>
   136c6:	8082                	ret

00000000000136c8 <__localeconv_l>:
   136c8:	10050513          	addi	a0,a0,256
   136cc:	8082                	ret

00000000000136ce <_localeconv_r>:
   136ce:	10018513          	addi	a0,gp,256 # 1aca8 <__global_locale+0x100>
   136d2:	8082                	ret

00000000000136d4 <localeconv>:
   136d4:	10018513          	addi	a0,gp,256 # 1aca8 <__global_locale+0x100>
   136d8:	8082                	ret

00000000000136da <_sbrk_r>:
   136da:	1101                	addi	sp,sp,-32
   136dc:	e822                	sd	s0,16(sp)
   136de:	e426                	sd	s1,8(sp)
   136e0:	842a                	mv	s0,a0
   136e2:	852e                	mv	a0,a1
   136e4:	ec06                	sd	ra,24(sp)
   136e6:	2401a023          	sw	zero,576(gp) # 1ade8 <errno>
   136ea:	050040ef          	jal	1773a <_sbrk>
   136ee:	57fd                	li	a5,-1
   136f0:	00f50763          	beq	a0,a5,136fe <_sbrk_r+0x24>
   136f4:	60e2                	ld	ra,24(sp)
   136f6:	6442                	ld	s0,16(sp)
   136f8:	64a2                	ld	s1,8(sp)
   136fa:	6105                	addi	sp,sp,32
   136fc:	8082                	ret
   136fe:	2401a783          	lw	a5,576(gp) # 1ade8 <errno>
   13702:	dbed                	beqz	a5,136f4 <_sbrk_r+0x1a>
   13704:	60e2                	ld	ra,24(sp)
   13706:	c01c                	sw	a5,0(s0)
   13708:	6442                	ld	s0,16(sp)
   1370a:	64a2                	ld	s1,8(sp)
   1370c:	6105                	addi	sp,sp,32
   1370e:	8082                	ret

0000000000013710 <__libc_fini_array>:
   13710:	1101                	addi	sp,sp,-32
   13712:	e822                	sd	s0,16(sp)
   13714:	67e9                	lui	a5,0x1a
   13716:	6469                	lui	s0,0x1a
   13718:	22078793          	addi	a5,a5,544 # 1a220 <__do_global_dtors_aux_fini_array_entry>
   1371c:	22840413          	addi	s0,s0,552 # 1a228 <__sglue>
   13720:	8c1d                	sub	s0,s0,a5
   13722:	e426                	sd	s1,8(sp)
   13724:	ec06                	sd	ra,24(sp)
   13726:	40345493          	srai	s1,s0,0x3
   1372a:	c881                	beqz	s1,1373a <__libc_fini_array+0x2a>
   1372c:	1461                	addi	s0,s0,-8
   1372e:	943e                	add	s0,s0,a5
   13730:	601c                	ld	a5,0(s0)
   13732:	14fd                	addi	s1,s1,-1
   13734:	1461                	addi	s0,s0,-8
   13736:	9782                	jalr	a5
   13738:	fce5                	bnez	s1,13730 <__libc_fini_array+0x20>
   1373a:	60e2                	ld	ra,24(sp)
   1373c:	6442                	ld	s0,16(sp)
   1373e:	64a2                	ld	s1,8(sp)
   13740:	6105                	addi	sp,sp,32
   13742:	8082                	ret

0000000000013744 <memmove>:
   13744:	02a5f263          	bgeu	a1,a0,13768 <memmove+0x24>
   13748:	00c58733          	add	a4,a1,a2
   1374c:	00e57e63          	bgeu	a0,a4,13768 <memmove+0x24>
   13750:	00c507b3          	add	a5,a0,a2
   13754:	ca1d                	beqz	a2,1378a <memmove+0x46>
   13756:	fff74683          	lbu	a3,-1(a4)
   1375a:	17fd                	addi	a5,a5,-1
   1375c:	177d                	addi	a4,a4,-1
   1375e:	00d78023          	sb	a3,0(a5)
   13762:	fef51ae3          	bne	a0,a5,13756 <memmove+0x12>
   13766:	8082                	ret
   13768:	47fd                	li	a5,31
   1376a:	02c7e163          	bltu	a5,a2,1378c <memmove+0x48>
   1376e:	87aa                	mv	a5,a0
   13770:	fff60693          	addi	a3,a2,-1
   13774:	ce51                	beqz	a2,13810 <memmove+0xcc>
   13776:	0685                	addi	a3,a3,1
   13778:	96be                	add	a3,a3,a5
   1377a:	0005c703          	lbu	a4,0(a1)
   1377e:	0785                	addi	a5,a5,1
   13780:	0585                	addi	a1,a1,1
   13782:	fee78fa3          	sb	a4,-1(a5)
   13786:	fed79ae3          	bne	a5,a3,1377a <memmove+0x36>
   1378a:	8082                	ret
   1378c:	00b567b3          	or	a5,a0,a1
   13790:	8b9d                	andi	a5,a5,7
   13792:	ebbd                	bnez	a5,13808 <memmove+0xc4>
   13794:	fe060893          	addi	a7,a2,-32
   13798:	fe08f893          	andi	a7,a7,-32
   1379c:	02088893          	addi	a7,a7,32
   137a0:	011506b3          	add	a3,a0,a7
   137a4:	872e                	mv	a4,a1
   137a6:	87aa                	mv	a5,a0
   137a8:	00073803          	ld	a6,0(a4)
   137ac:	02070713          	addi	a4,a4,32
   137b0:	02078793          	addi	a5,a5,32
   137b4:	ff07b023          	sd	a6,-32(a5)
   137b8:	fe873803          	ld	a6,-24(a4)
   137bc:	ff07b423          	sd	a6,-24(a5)
   137c0:	ff073803          	ld	a6,-16(a4)
   137c4:	ff07b823          	sd	a6,-16(a5)
   137c8:	ff873803          	ld	a6,-8(a4)
   137cc:	ff07bc23          	sd	a6,-8(a5)
   137d0:	fcd79ce3          	bne	a5,a3,137a8 <memmove+0x64>
   137d4:	01867813          	andi	a6,a2,24
   137d8:	95c6                	add	a1,a1,a7
   137da:	01f67713          	andi	a4,a2,31
   137de:	02080a63          	beqz	a6,13812 <memmove+0xce>
   137e2:	ff870813          	addi	a6,a4,-8
   137e6:	ff887813          	andi	a6,a6,-8
   137ea:	0821                	addi	a6,a6,8
   137ec:	010687b3          	add	a5,a3,a6
   137f0:	872e                	mv	a4,a1
   137f2:	00073883          	ld	a7,0(a4)
   137f6:	06a1                	addi	a3,a3,8
   137f8:	0721                	addi	a4,a4,8
   137fa:	ff16bc23          	sd	a7,-8(a3)
   137fe:	fef69ae3          	bne	a3,a5,137f2 <memmove+0xae>
   13802:	8a1d                	andi	a2,a2,7
   13804:	95c2                	add	a1,a1,a6
   13806:	b7ad                	j	13770 <memmove+0x2c>
   13808:	fff60693          	addi	a3,a2,-1
   1380c:	87aa                	mv	a5,a0
   1380e:	b7a5                	j	13776 <memmove+0x32>
   13810:	8082                	ret
   13812:	863a                	mv	a2,a4
   13814:	bfb1                	j	13770 <memmove+0x2c>

0000000000013816 <memcpy>:
   13816:	00a5c7b3          	xor	a5,a1,a0
   1381a:	8b9d                	andi	a5,a5,7
   1381c:	00c508b3          	add	a7,a0,a2
   13820:	e7b1                	bnez	a5,1386c <memcpy+0x56>
   13822:	479d                	li	a5,7
   13824:	04c7f463          	bgeu	a5,a2,1386c <memcpy+0x56>
   13828:	00757793          	andi	a5,a0,7
   1382c:	872a                	mv	a4,a0
   1382e:	ebb9                	bnez	a5,13884 <memcpy+0x6e>
   13830:	ff88f613          	andi	a2,a7,-8
   13834:	40e606b3          	sub	a3,a2,a4
   13838:	04000793          	li	a5,64
   1383c:	06d7c863          	blt	a5,a3,138ac <memcpy+0x96>
   13840:	86ae                	mv	a3,a1
   13842:	87ba                	mv	a5,a4
   13844:	02c77163          	bgeu	a4,a2,13866 <memcpy+0x50>
   13848:	0006b803          	ld	a6,0(a3)
   1384c:	07a1                	addi	a5,a5,8
   1384e:	06a1                	addi	a3,a3,8
   13850:	ff07bc23          	sd	a6,-8(a5)
   13854:	fec7eae3          	bltu	a5,a2,13848 <memcpy+0x32>
   13858:	fff60793          	addi	a5,a2,-1
   1385c:	8f99                	sub	a5,a5,a4
   1385e:	9be1                	andi	a5,a5,-8
   13860:	07a1                	addi	a5,a5,8
   13862:	973e                	add	a4,a4,a5
   13864:	95be                	add	a1,a1,a5
   13866:	01176663          	bltu	a4,a7,13872 <memcpy+0x5c>
   1386a:	8082                	ret
   1386c:	872a                	mv	a4,a0
   1386e:	03157e63          	bgeu	a0,a7,138aa <memcpy+0x94>
   13872:	0005c783          	lbu	a5,0(a1)
   13876:	0705                	addi	a4,a4,1
   13878:	0585                	addi	a1,a1,1
   1387a:	fef70fa3          	sb	a5,-1(a4)
   1387e:	fee89ae3          	bne	a7,a4,13872 <memcpy+0x5c>
   13882:	8082                	ret
   13884:	0005c683          	lbu	a3,0(a1)
   13888:	0705                	addi	a4,a4,1
   1388a:	00777793          	andi	a5,a4,7
   1388e:	fed70fa3          	sb	a3,-1(a4)
   13892:	0585                	addi	a1,a1,1
   13894:	dfd1                	beqz	a5,13830 <memcpy+0x1a>
   13896:	0005c683          	lbu	a3,0(a1)
   1389a:	0705                	addi	a4,a4,1
   1389c:	00777793          	andi	a5,a4,7
   138a0:	fed70fa3          	sb	a3,-1(a4)
   138a4:	0585                	addi	a1,a1,1
   138a6:	fff9                	bnez	a5,13884 <memcpy+0x6e>
   138a8:	b761                	j	13830 <memcpy+0x1a>
   138aa:	8082                	ret
   138ac:	1141                	addi	sp,sp,-16
   138ae:	e422                	sd	s0,8(sp)
   138b0:	04000413          	li	s0,64
   138b4:	0005b383          	ld	t2,0(a1)
   138b8:	0085b283          	ld	t0,8(a1)
   138bc:	0105bf83          	ld	t6,16(a1)
   138c0:	0185bf03          	ld	t5,24(a1)
   138c4:	0205be83          	ld	t4,32(a1)
   138c8:	0285be03          	ld	t3,40(a1)
   138cc:	0305b303          	ld	t1,48(a1)
   138d0:	0385b803          	ld	a6,56(a1)
   138d4:	61b4                	ld	a3,64(a1)
   138d6:	04870713          	addi	a4,a4,72
   138da:	40e607b3          	sub	a5,a2,a4
   138de:	fa773c23          	sd	t2,-72(a4)
   138e2:	fc573023          	sd	t0,-64(a4)
   138e6:	fdf73423          	sd	t6,-56(a4)
   138ea:	fde73823          	sd	t5,-48(a4)
   138ee:	fdd73c23          	sd	t4,-40(a4)
   138f2:	ffc73023          	sd	t3,-32(a4)
   138f6:	fe673423          	sd	t1,-24(a4)
   138fa:	ff073823          	sd	a6,-16(a4)
   138fe:	fed73c23          	sd	a3,-8(a4)
   13902:	04858593          	addi	a1,a1,72
   13906:	faf447e3          	blt	s0,a5,138b4 <memcpy+0x9e>
   1390a:	86ae                	mv	a3,a1
   1390c:	87ba                	mv	a5,a4
   1390e:	02c77163          	bgeu	a4,a2,13930 <memcpy+0x11a>
   13912:	0006b803          	ld	a6,0(a3)
   13916:	07a1                	addi	a5,a5,8
   13918:	06a1                	addi	a3,a3,8
   1391a:	ff07bc23          	sd	a6,-8(a5)
   1391e:	fec7eae3          	bltu	a5,a2,13912 <memcpy+0xfc>
   13922:	fff60793          	addi	a5,a2,-1
   13926:	8f99                	sub	a5,a5,a4
   13928:	9be1                	andi	a5,a5,-8
   1392a:	07a1                	addi	a5,a5,8
   1392c:	973e                	add	a4,a4,a5
   1392e:	95be                	add	a1,a1,a5
   13930:	01176563          	bltu	a4,a7,1393a <memcpy+0x124>
   13934:	6422                	ld	s0,8(sp)
   13936:	0141                	addi	sp,sp,16
   13938:	8082                	ret
   1393a:	0005c783          	lbu	a5,0(a1)
   1393e:	0705                	addi	a4,a4,1
   13940:	0585                	addi	a1,a1,1
   13942:	fef70fa3          	sb	a5,-1(a4)
   13946:	fee887e3          	beq	a7,a4,13934 <memcpy+0x11e>
   1394a:	0005c783          	lbu	a5,0(a1)
   1394e:	0705                	addi	a4,a4,1
   13950:	0585                	addi	a1,a1,1
   13952:	fef70fa3          	sb	a5,-1(a4)
   13956:	fee892e3          	bne	a7,a4,1393a <memcpy+0x124>
   1395a:	bfe9                	j	13934 <memcpy+0x11e>

000000000001395c <strlen>:
   1395c:	00757793          	andi	a5,a0,7
   13960:	872a                	mv	a4,a0
   13962:	e3b5                	bnez	a5,139c6 <strlen+0x6a>
   13964:	0feff6b7          	lui	a3,0xfeff
   13968:	0692                	slli	a3,a3,0x4
   1396a:	eff68693          	addi	a3,a3,-257 # fefeeff <__BSS_END__+0xfee3b57>
   1396e:	06c2                	slli	a3,a3,0x10
   13970:	eff68693          	addi	a3,a3,-257
   13974:	06be                	slli	a3,a3,0xf
   13976:	f7f68693          	addi	a3,a3,-129
   1397a:	55fd                	li	a1,-1
   1397c:	6310                	ld	a2,0(a4)
   1397e:	0721                	addi	a4,a4,8
   13980:	00d677b3          	and	a5,a2,a3
   13984:	97b6                	add	a5,a5,a3
   13986:	8fd1                	or	a5,a5,a2
   13988:	8fd5                	or	a5,a5,a3
   1398a:	feb789e3          	beq	a5,a1,1397c <strlen+0x20>
   1398e:	ff874683          	lbu	a3,-8(a4)
   13992:	40a707b3          	sub	a5,a4,a0
   13996:	c6a9                	beqz	a3,139e0 <strlen+0x84>
   13998:	ff974683          	lbu	a3,-7(a4)
   1399c:	ce9d                	beqz	a3,139da <strlen+0x7e>
   1399e:	ffa74683          	lbu	a3,-6(a4)
   139a2:	c6a9                	beqz	a3,139ec <strlen+0x90>
   139a4:	ffb74683          	lbu	a3,-5(a4)
   139a8:	ce9d                	beqz	a3,139e6 <strlen+0x8a>
   139aa:	ffc74683          	lbu	a3,-4(a4)
   139ae:	c2b1                	beqz	a3,139f2 <strlen+0x96>
   139b0:	ffd74683          	lbu	a3,-3(a4)
   139b4:	c2b1                	beqz	a3,139f8 <strlen+0x9c>
   139b6:	ffe74503          	lbu	a0,-2(a4)
   139ba:	00a03533          	snez	a0,a0
   139be:	953e                	add	a0,a0,a5
   139c0:	1579                	addi	a0,a0,-2
   139c2:	8082                	ret
   139c4:	d2c5                	beqz	a3,13964 <strlen+0x8>
   139c6:	00074783          	lbu	a5,0(a4)
   139ca:	0705                	addi	a4,a4,1
   139cc:	00777693          	andi	a3,a4,7
   139d0:	fbf5                	bnez	a5,139c4 <strlen+0x68>
   139d2:	8f09                	sub	a4,a4,a0
   139d4:	fff70513          	addi	a0,a4,-1
   139d8:	8082                	ret
   139da:	ff978513          	addi	a0,a5,-7
   139de:	8082                	ret
   139e0:	ff878513          	addi	a0,a5,-8
   139e4:	8082                	ret
   139e6:	ffb78513          	addi	a0,a5,-5
   139ea:	8082                	ret
   139ec:	ffa78513          	addi	a0,a5,-6
   139f0:	8082                	ret
   139f2:	ffc78513          	addi	a0,a5,-4
   139f6:	8082                	ret
   139f8:	ffd78513          	addi	a0,a5,-3
   139fc:	8082                	ret

00000000000139fe <frexpl>:
   139fe:	7139                	addi	sp,sp,-64
   13a00:	f04a                	sd	s2,32(sp)
   13a02:	6921                	lui	s2,0x8
   13a04:	f822                	sd	s0,48(sp)
   13a06:	f426                	sd	s1,40(sp)
   13a08:	e05a                	sd	s6,0(sp)
   13a0a:	fc06                	sd	ra,56(sp)
   13a0c:	0305d493          	srli	s1,a1,0x30
   13a10:	197d                	addi	s2,s2,-1 # 7fff <exit-0x80e9>
   13a12:	0124f4b3          	and	s1,s1,s2
   13a16:	00062023          	sw	zero,0(a2)
   13a1a:	842e                	mv	s0,a1
   13a1c:	8b2a                	mv	s6,a0
   13a1e:	05248463          	beq	s1,s2,13a66 <frexpl+0x68>
   13a22:	e456                	sd	s5,8(sp)
   13a24:	4681                	li	a3,0
   13a26:	8ab2                	mv	s5,a2
   13a28:	4601                	li	a2,0
   13a2a:	ec4e                	sd	s3,24(sp)
   13a2c:	e852                	sd	s4,16(sp)
   13a2e:	89ae                	mv	s3,a1
   13a30:	8a2a                	mv	s4,a0
   13a32:	5d7030ef          	jal	17808 <__eqtf2>
   13a36:	c125                	beqz	a0,13a96 <frexpl+0x98>
   13a38:	4681                	li	a3,0
   13a3a:	cc8d                	beqz	s1,13a74 <frexpl+0x76>
   13a3c:	7771                	lui	a4,0xffffc
   13a3e:	f80017b7          	lui	a5,0xf8001
   13a42:	2709                	addiw	a4,a4,2 # ffffffffffffc002 <__BSS_END__+0xfffffffffffe0c5a>
   13a44:	1792                	slli	a5,a5,0x24
   13a46:	9cb9                	addw	s1,s1,a4
   13a48:	17fd                	addi	a5,a5,-1 # fffffffff8000fff <__BSS_END__+0xfffffffff7fe5c57>
   13a4a:	01fff437          	lui	s0,0x1fff
   13a4e:	00f9f9b3          	and	s3,s3,a5
   13a52:	9cb5                	addw	s1,s1,a3
   13a54:	1416                	slli	s0,s0,0x25
   13a56:	009aa023          	sw	s1,0(s5)
   13a5a:	8552                	mv	a0,s4
   13a5c:	0089e5b3          	or	a1,s3,s0
   13a60:	6a42                	ld	s4,16(sp)
   13a62:	69e2                	ld	s3,24(sp)
   13a64:	6aa2                	ld	s5,8(sp)
   13a66:	70e2                	ld	ra,56(sp)
   13a68:	7442                	ld	s0,48(sp)
   13a6a:	74a2                	ld	s1,40(sp)
   13a6c:	7902                	ld	s2,32(sp)
   13a6e:	6b02                	ld	s6,0(sp)
   13a70:	6121                	addi	sp,sp,64
   13a72:	8082                	ret
   13a74:	040716b7          	lui	a3,0x4071
   13a78:	1692                	slli	a3,a3,0x24
   13a7a:	4601                	li	a2,0
   13a7c:	855a                	mv	a0,s6
   13a7e:	85a2                	mv	a1,s0
   13a80:	76d030ef          	jal	179ec <__multf3>
   13a84:	0305d493          	srli	s1,a1,0x30
   13a88:	89ae                	mv	s3,a1
   13a8a:	8a2a                	mv	s4,a0
   13a8c:	0124f4b3          	and	s1,s1,s2
   13a90:	f8e00693          	li	a3,-114
   13a94:	b765                	j	13a3c <frexpl+0x3e>
   13a96:	70e2                	ld	ra,56(sp)
   13a98:	85a2                	mv	a1,s0
   13a9a:	7442                	ld	s0,48(sp)
   13a9c:	69e2                	ld	s3,24(sp)
   13a9e:	6a42                	ld	s4,16(sp)
   13aa0:	6aa2                	ld	s5,8(sp)
   13aa2:	74a2                	ld	s1,40(sp)
   13aa4:	7902                	ld	s2,32(sp)
   13aa6:	855a                	mv	a0,s6
   13aa8:	6b02                	ld	s6,0(sp)
   13aaa:	6121                	addi	sp,sp,64
   13aac:	8082                	ret

0000000000013aae <__register_exitproc>:
   13aae:	2481b783          	ld	a5,584(gp) # 1adf0 <__atexit>
   13ab2:	c3b1                	beqz	a5,13af6 <__register_exitproc+0x48>
   13ab4:	4798                	lw	a4,8(a5)
   13ab6:	487d                	li	a6,31
   13ab8:	06e84563          	blt	a6,a4,13b22 <__register_exitproc+0x74>
   13abc:	c505                	beqz	a0,13ae4 <__register_exitproc+0x36>
   13abe:	00371813          	slli	a6,a4,0x3
   13ac2:	983e                	add	a6,a6,a5
   13ac4:	10c83823          	sd	a2,272(a6)
   13ac8:	3107a883          	lw	a7,784(a5)
   13acc:	4605                	li	a2,1
   13ace:	00e6163b          	sllw	a2,a2,a4
   13ad2:	00c8e8b3          	or	a7,a7,a2
   13ad6:	3117a823          	sw	a7,784(a5)
   13ada:	20d83823          	sd	a3,528(a6)
   13ade:	4689                	li	a3,2
   13ae0:	02d50363          	beq	a0,a3,13b06 <__register_exitproc+0x58>
   13ae4:	00270693          	addi	a3,a4,2
   13ae8:	068e                	slli	a3,a3,0x3
   13aea:	2705                	addiw	a4,a4,1
   13aec:	c798                	sw	a4,8(a5)
   13aee:	97b6                	add	a5,a5,a3
   13af0:	e38c                	sd	a1,0(a5)
   13af2:	4501                	li	a0,0
   13af4:	8082                	ret
   13af6:	67ed                	lui	a5,0x1b
   13af8:	09078813          	addi	a6,a5,144 # 1b090 <__atexit0>
   13afc:	2501b423          	sd	a6,584(gp) # 1adf0 <__atexit>
   13b00:	09078793          	addi	a5,a5,144
   13b04:	bf45                	j	13ab4 <__register_exitproc+0x6>
   13b06:	3147a683          	lw	a3,788(a5)
   13b0a:	4501                	li	a0,0
   13b0c:	8ed1                	or	a3,a3,a2
   13b0e:	30d7aa23          	sw	a3,788(a5)
   13b12:	00270693          	addi	a3,a4,2
   13b16:	068e                	slli	a3,a3,0x3
   13b18:	2705                	addiw	a4,a4,1
   13b1a:	c798                	sw	a4,8(a5)
   13b1c:	97b6                	add	a5,a5,a3
   13b1e:	e38c                	sd	a1,0(a5)
   13b20:	8082                	ret
   13b22:	557d                	li	a0,-1
   13b24:	8082                	ret

0000000000013b26 <_ldtoa_r>:
   13b26:	6365                	lui	t1,0x19
   13b28:	d3830313          	addi	t1,t1,-712 # 18d38 <blanks.1+0x10>
   13b2c:	00033f03          	ld	t5,0(t1)
   13b30:	00833e83          	ld	t4,8(t1)
   13b34:	01032e03          	lw	t3,16(t1)
   13b38:	05053303          	ld	t1,80(a0)
   13b3c:	7171                	addi	sp,sp,-176
   13b3e:	ed26                	sd	s1,152(sp)
   13b40:	e94a                	sd	s2,144(sp)
   13b42:	e152                	sd	s4,128(sp)
   13b44:	f8da                	sd	s6,112(sp)
   13b46:	f4de                	sd	s7,104(sp)
   13b48:	f0e2                	sd	s8,96(sp)
   13b4a:	ece6                	sd	s9,88(sp)
   13b4c:	e8ea                	sd	s10,80(sp)
   13b4e:	f506                	sd	ra,168(sp)
   13b50:	f122                	sd	s0,160(sp)
   13b52:	e54e                	sd	s3,136(sp)
   13b54:	fcd6                	sd	s5,120(sp)
   13b56:	e4ee                	sd	s11,72(sp)
   13b58:	f47a                	sd	t5,40(sp)
   13b5a:	f876                	sd	t4,48(sp)
   13b5c:	dc72                	sw	t3,56(sp)
   13b5e:	8b2a                	mv	s6,a0
   13b60:	892e                	mv	s2,a1
   13b62:	84b2                	mv	s1,a2
   13b64:	8c36                	mv	s8,a3
   13b66:	8cba                	mv	s9,a4
   13b68:	8bbe                	mv	s7,a5
   13b6a:	8a42                	mv	s4,a6
   13b6c:	8d46                	mv	s10,a7
   13b6e:	00030763          	beqz	t1,13b7c <_ldtoa_r+0x56>
   13b72:	859a                	mv	a1,t1
   13b74:	2a0010ef          	jal	14e14 <__freedtoa>
   13b78:	040b3823          	sd	zero,80(s6) # ffffffff80000050 <__BSS_END__+0xffffffff7ffe4ca8>
   13b7c:	57d2                	lw	a5,52(sp)
   13b7e:	0004a593          	slti	a1,s1,0
   13b82:	00149413          	slli	s0,s1,0x1
   13b86:	4017d71b          	sraiw	a4,a5,0x1
   13b8a:	0204d993          	srli	s3,s1,0x20
   13b8e:	8df9                	and	a1,a1,a4
   13b90:	8005                	srli	s0,s0,0x1
   13b92:	0004a693          	slti	a3,s1,0
   13b96:	00149a93          	slli	s5,s1,0x1
   13b9a:	7771                	lui	a4,0xffffc
   13b9c:	0109999b          	slliw	s3,s3,0x10
   13ba0:	8fad                	xor	a5,a5,a1
   13ba2:	031ada93          	srli	s5,s5,0x31
   13ba6:	f917071b          	addiw	a4,a4,-111 # ffffffffffffbf91 <__BSS_END__+0xfffffffffffe0be9>
   13baa:	0109d99b          	srliw	s3,s3,0x10
   13bae:	00da2023          	sw	a3,0(s4) # ffffffff80000000 <__BSS_END__+0xffffffff7ffe4c58>
   13bb2:	864a                	mv	a2,s2
   13bb4:	86a2                	mv	a3,s0
   13bb6:	854a                	mv	a0,s2
   13bb8:	85a2                	mv	a1,s0
   13bba:	da3e                	sw	a5,52(sp)
   13bbc:	00ea8dbb          	addw	s11,s5,a4
   13bc0:	ec4a                	sd	s2,24(sp)
   13bc2:	d026                	sw	s1,32(sp)
   13bc4:	d24e                	sw	s3,36(sp)
   13bc6:	3ef040ef          	jal	187b4 <__unordtf2>
   13bca:	e95d                	bnez	a0,13c80 <_ldtoa_r+0x15a>
   13bcc:	07fffa37          	lui	s4,0x7fff
   13bd0:	1a12                	slli	s4,s4,0x24
   13bd2:	1a7d                	addi	s4,s4,-1 # 7ffefff <__BSS_END__+0x7fe3c57>
   13bd4:	567d                	li	a2,-1
   13bd6:	86d2                	mv	a3,s4
   13bd8:	854a                	mv	a0,s2
   13bda:	85a2                	mv	a1,s0
   13bdc:	3d9040ef          	jal	187b4 <__unordtf2>
   13be0:	ed39                	bnez	a0,13c3e <_ldtoa_r+0x118>
   13be2:	567d                	li	a2,-1
   13be4:	86d2                	mv	a3,s4
   13be6:	854a                	mv	a0,s2
   13be8:	85a2                	mv	a1,s0
   13bea:	565030ef          	jal	1794e <__letf2>
   13bee:	04a05863          	blez	a0,13c3e <_ldtoa_r+0x118>
   13bf2:	478d                	li	a5,3
   13bf4:	ca3e                	sw	a5,20(sp)
   13bf6:	87e2                	mv	a5,s8
   13bf8:	0858                	addi	a4,sp,20
   13bfa:	e06a                	sd	s10,0(sp)
   13bfc:	88de                	mv	a7,s7
   13bfe:	8866                	mv	a6,s9
   13c00:	0834                	addi	a3,sp,24
   13c02:	866e                	mv	a2,s11
   13c04:	102c                	addi	a1,sp,40
   13c06:	855a                	mv	a0,s6
   13c08:	0ee000ef          	jal	13cf6 <__gdtoa>
   13c0c:	000ba703          	lw	a4,0(s7)
   13c10:	77e1                	lui	a5,0xffff8
   13c12:	00f71763          	bne	a4,a5,13c20 <_ldtoa_r+0xfa>
   13c16:	800007b7          	lui	a5,0x80000
   13c1a:	17fd                	addi	a5,a5,-1 # ffffffff7fffffff <__BSS_END__+0xffffffff7ffe4c57>
   13c1c:	00fba023          	sw	a5,0(s7)
   13c20:	70aa                	ld	ra,168(sp)
   13c22:	740a                	ld	s0,160(sp)
   13c24:	64ea                	ld	s1,152(sp)
   13c26:	694a                	ld	s2,144(sp)
   13c28:	69aa                	ld	s3,136(sp)
   13c2a:	6a0a                	ld	s4,128(sp)
   13c2c:	7ae6                	ld	s5,120(sp)
   13c2e:	7b46                	ld	s6,112(sp)
   13c30:	7ba6                	ld	s7,104(sp)
   13c32:	7c06                	ld	s8,96(sp)
   13c34:	6ce6                	ld	s9,88(sp)
   13c36:	6d46                	ld	s10,80(sp)
   13c38:	6da6                	ld	s11,72(sp)
   13c3a:	614d                	addi	sp,sp,176
   13c3c:	8082                	ret
   13c3e:	4685                	li	a3,1
   13c40:	4601                	li	a2,0
   13c42:	16c2                	slli	a3,a3,0x30
   13c44:	854a                	mv	a0,s2
   13c46:	85a2                	mv	a1,s0
   13c48:	469030ef          	jal	178b0 <__getf2>
   13c4c:	00054963          	bltz	a0,13c5e <_ldtoa_r+0x138>
   13c50:	67c1                	lui	a5,0x10
   13c52:	00f9e9b3          	or	s3,s3,a5
   13c56:	4785                	li	a5,1
   13c58:	ca3e                	sw	a5,20(sp)
   13c5a:	d24e                	sw	s3,36(sp)
   13c5c:	bf69                	j	13bf6 <_ldtoa_r+0xd0>
   13c5e:	4601                	li	a2,0
   13c60:	4681                	li	a3,0
   13c62:	854a                	mv	a0,s2
   13c64:	85a6                	mv	a1,s1
   13c66:	3a3030ef          	jal	17808 <__eqtf2>
   13c6a:	e119                	bnez	a0,13c70 <_ldtoa_r+0x14a>
   13c6c:	ca02                	sw	zero,20(sp)
   13c6e:	b761                	j	13bf6 <_ldtoa_r+0xd0>
   13c70:	7771                	lui	a4,0xffffc
   13c72:	f927071b          	addiw	a4,a4,-110 # ffffffffffffbf92 <__BSS_END__+0xfffffffffffe0bea>
   13c76:	4789                	li	a5,2
   13c78:	ca3e                	sw	a5,20(sp)
   13c7a:	00ea8dbb          	addw	s11,s5,a4
   13c7e:	bfa5                	j	13bf6 <_ldtoa_r+0xd0>
   13c80:	4791                	li	a5,4
   13c82:	ca3e                	sw	a5,20(sp)
   13c84:	bf8d                	j	13bf6 <_ldtoa_r+0xd0>

0000000000013c86 <_ldcheck>:
   13c86:	7179                	addi	sp,sp,-48
   13c88:	ec26                	sd	s1,24(sp)
   13c8a:	6504                	ld	s1,8(a0)
   13c8c:	e44e                	sd	s3,8(sp)
   13c8e:	00053983          	ld	s3,0(a0)
   13c92:	0486                	slli	s1,s1,0x1
   13c94:	8085                	srli	s1,s1,0x1
   13c96:	864e                	mv	a2,s3
   13c98:	86a6                	mv	a3,s1
   13c9a:	854e                	mv	a0,s3
   13c9c:	85a6                	mv	a1,s1
   13c9e:	f406                	sd	ra,40(sp)
   13ca0:	315040ef          	jal	187b4 <__unordtf2>
   13ca4:	e139                	bnez	a0,13cea <_ldcheck+0x64>
   13ca6:	e84a                	sd	s2,16(sp)
   13ca8:	07fff937          	lui	s2,0x7fff
   13cac:	1912                	slli	s2,s2,0x24
   13cae:	197d                	addi	s2,s2,-1 # 7ffefff <__BSS_END__+0x7fe3c57>
   13cb0:	567d                	li	a2,-1
   13cb2:	86ca                	mv	a3,s2
   13cb4:	854e                	mv	a0,s3
   13cb6:	85a6                	mv	a1,s1
   13cb8:	f022                	sd	s0,32(sp)
   13cba:	4405                	li	s0,1
   13cbc:	2f9040ef          	jal	187b4 <__unordtf2>
   13cc0:	cd01                	beqz	a0,13cd8 <_ldcheck+0x52>
   13cc2:	70a2                	ld	ra,40(sp)
   13cc4:	00144513          	xori	a0,s0,1
   13cc8:	7402                	ld	s0,32(sp)
   13cca:	0506                	slli	a0,a0,0x1
   13ccc:	6942                	ld	s2,16(sp)
   13cce:	64e2                	ld	s1,24(sp)
   13cd0:	69a2                	ld	s3,8(sp)
   13cd2:	8909                	andi	a0,a0,2
   13cd4:	6145                	addi	sp,sp,48
   13cd6:	8082                	ret
   13cd8:	567d                	li	a2,-1
   13cda:	86ca                	mv	a3,s2
   13cdc:	854e                	mv	a0,s3
   13cde:	85a6                	mv	a1,s1
   13ce0:	46f030ef          	jal	1794e <__letf2>
   13ce4:	00152413          	slti	s0,a0,1
   13ce8:	bfe9                	j	13cc2 <_ldcheck+0x3c>
   13cea:	70a2                	ld	ra,40(sp)
   13cec:	64e2                	ld	s1,24(sp)
   13cee:	69a2                	ld	s3,8(sp)
   13cf0:	4505                	li	a0,1
   13cf2:	6145                	addi	sp,sp,48
   13cf4:	8082                	ret

0000000000013cf6 <__gdtoa>:
   13cf6:	7111                	addi	sp,sp,-256
   13cf8:	f566                	sd	s9,168(sp)
   13cfa:	00072c83          	lw	s9,0(a4)
   13cfe:	f5a6                	sd	s1,232(sp)
   13d00:	e9d2                	sd	s4,208(sp)
   13d02:	fcfcf313          	andi	t1,s9,-49
   13d06:	fd86                	sd	ra,248(sp)
   13d08:	00672023          	sw	t1,0(a4)
   13d0c:	8a3a                	mv	s4,a4
   13d0e:	6712                	ld	a4,256(sp)
   13d10:	00fcf313          	andi	t1,s9,15
   13d14:	4e0d                	li	t3,3
   13d16:	e43a                	sd	a4,8(sp)
   13d18:	e832                	sd	a2,16(sp)
   13d1a:	84c6                	mv	s1,a7
   13d1c:	53c30763          	beq	t1,t3,1424a <__gdtoa+0x554>
   13d20:	edce                	sd	s3,216(sp)
   13d22:	00ccf993          	andi	s3,s9,12
   13d26:	4c099063          	bnez	s3,141e6 <__gdtoa+0x4f0>
   13d2a:	f9a2                	sd	s0,240(sp)
   13d2c:	842a                	mv	s0,a0
   13d2e:	4e030a63          	beqz	t1,14222 <__gdtoa+0x52c>
   13d32:	f16a                	sd	s10,160(sp)
   13d34:	0005ad03          	lw	s10,0(a1)
   13d38:	f1ca                	sd	s2,224(sp)
   13d3a:	e1da                	sd	s6,192(sp)
   13d3c:	fd5e                	sd	s7,184(sp)
   13d3e:	ed6e                	sd	s11,152(sp)
   13d40:	f962                	sd	s8,176(sp)
   13d42:	8db6                	mv	s11,a3
   13d44:	02000693          	li	a3,32
   13d48:	8b2e                	mv	s6,a1
   13d4a:	893e                	mv	s2,a5
   13d4c:	8bc2                	mv	s7,a6
   13d4e:	4581                	li	a1,0
   13d50:	02000793          	li	a5,32
   13d54:	01a6d763          	bge	a3,s10,13d62 <__gdtoa+0x6c>
   13d58:	0017979b          	slliw	a5,a5,0x1
   13d5c:	2585                	addiw	a1,a1,1
   13d5e:	ffa7cde3          	blt	a5,s10,13d58 <__gdtoa+0x62>
   13d62:	8522                	mv	a0,s0
   13d64:	310010ef          	jal	15074 <_Balloc>
   13d68:	8c2a                	mv	s8,a0
   13d6a:	6c050a63          	beqz	a0,1443e <__gdtoa+0x748>
   13d6e:	fffd051b          	addiw	a0,s10,-1
   13d72:	4055551b          	sraiw	a0,a0,0x5
   13d76:	00251593          	slli	a1,a0,0x2
   13d7a:	e5d6                	sd	s5,200(sp)
   13d7c:	95ee                	add	a1,a1,s11
   13d7e:	018c0693          	addi	a3,s8,24
   13d82:	87ee                	mv	a5,s11
   13d84:	4398                	lw	a4,0(a5)
   13d86:	0791                	addi	a5,a5,4 # 10004 <exit-0xe4>
   13d88:	0691                	addi	a3,a3,4 # 4071004 <__BSS_END__+0x4055c5c>
   13d8a:	fee6ae23          	sw	a4,-4(a3)
   13d8e:	fef5fbe3          	bgeu	a1,a5,13d84 <__gdtoa+0x8e>
   13d92:	0585                	addi	a1,a1,1
   13d94:	001d8793          	addi	a5,s11,1
   13d98:	4691                	li	a3,4
   13d9a:	00f5e563          	bltu	a1,a5,13da4 <__gdtoa+0xae>
   13d9e:	050a                	slli	a0,a0,0x2
   13da0:	00450693          	addi	a3,a0,4
   13da4:	4026d793          	srai	a5,a3,0x2
   13da8:	2781                	sext.w	a5,a5
   13daa:	96e2                	add	a3,a3,s8
   13dac:	a021                	j	13db4 <__gdtoa+0xbe>
   13dae:	16f1                	addi	a3,a3,-4
   13db0:	4e078163          	beqz	a5,14292 <__gdtoa+0x59c>
   13db4:	4ad8                	lw	a4,20(a3)
   13db6:	8abe                	mv	s5,a5
   13db8:	37fd                	addiw	a5,a5,-1
   13dba:	db75                	beqz	a4,13dae <__gdtoa+0xb8>
   13dbc:	0791                	addi	a5,a5,4
   13dbe:	078a                	slli	a5,a5,0x2
   13dc0:	97e2                	add	a5,a5,s8
   13dc2:	4788                	lw	a0,8(a5)
   13dc4:	015c2a23          	sw	s5,20(s8)
   13dc8:	005a9a9b          	slliw	s5,s5,0x5
   13dcc:	4ea010ef          	jal	152b6 <__hi0bits>
   13dd0:	40aa87bb          	subw	a5,s5,a0
   13dd4:	8562                	mv	a0,s8
   13dd6:	ec3e                	sd	a5,24(sp)
   13dd8:	260010ef          	jal	15038 <__trailz_D2A>
   13ddc:	c72a                	sw	a0,140(sp)
   13dde:	6642                	ld	a2,16(sp)
   13de0:	67e2                	ld	a5,24(sp)
   13de2:	4c051c63          	bnez	a0,142ba <__gdtoa+0x5c4>
   13de6:	014c2683          	lw	a3,20(s8)
   13dea:	42068163          	beqz	a3,1420c <__gdtoa+0x516>
   13dee:	016c                	addi	a1,sp,140
   13df0:	8562                	mv	a0,s8
   13df2:	f03e                	sd	a5,32(sp)
   13df4:	ec32                	sd	a2,24(sp)
   13df6:	427010ef          	jal	15a1c <__b2d>
   13dfa:	e2050553          	fmv.x.d	a0,fa0
   13dfe:	3ff00337          	lui	t1,0x3ff00
   13e02:	56fd                	li	a3,-1
   13e04:	00c51593          	slli	a1,a0,0xc
   13e08:	91b1                	srli	a1,a1,0x2c
   13e0a:	0065e8b3          	or	a7,a1,t1
   13e0e:	9281                	srli	a3,a3,0x20
   13e10:	1882                	slli	a7,a7,0x20
   13e12:	8ee9                	and	a3,a3,a0
   13e14:	0116e6b3          	or	a3,a3,a7
   13e18:	1a81b707          	fld	fa4,424(gp) # 1ad50 <__SDATA_BEGIN__>
   13e1c:	f20687d3          	fmv.d.x	fa5,a3
   13e20:	1b01b687          	fld	fa3,432(gp) # 1ad58 <__SDATA_BEGIN__+0x8>
   13e24:	0ae7f753          	fsub.d	fa4,fa5,fa4
   13e28:	1b81b787          	fld	fa5,440(gp) # 1ad60 <__SDATA_BEGIN__+0x10>
   13e2c:	6662                	ld	a2,24(sp)
   13e2e:	7782                	ld	a5,32(sp)
   13e30:	0065eeb3          	or	t4,a1,t1
   13e34:	7ad77743          	fmadd.d	fa4,fa4,fa3,fa5
   13e38:	00f60abb          	addw	s5,a2,a5
   13e3c:	fffa889b          	addiw	a7,s5,-1
   13e40:	d20887d3          	fcvt.d.w	fa5,a7
   13e44:	1c01b687          	fld	fa3,448(gp) # 1ad68 <__SDATA_BEGIN__+0x18>
   13e48:	0008851b          	sext.w	a0,a7
   13e4c:	72d7f7c3          	fmadd.d	fa5,fa5,fa3,fa4
   13e50:	00055563          	bgez	a0,13e5a <__gdtoa+0x164>
   13e54:	4505                	li	a0,1
   13e56:	4155053b          	subw	a0,a0,s5
   13e5a:	bcb5031b          	addiw	t1,a0,-1077
   13e5e:	00605863          	blez	t1,13e6e <__gdtoa+0x178>
   13e62:	d20306d3          	fcvt.d.w	fa3,t1
   13e66:	1c81b707          	fld	fa4,456(gp) # 1ad70 <__SDATA_BEGIN__+0x20>
   13e6a:	7ae6f7c3          	fmadd.d	fa5,fa3,fa4,fa5
   13e6e:	f2000753          	fmv.d.x	fa4,zero
   13e72:	c2079553          	fcvt.w.d	a0,fa5,rtz
   13e76:	a2e79e53          	flt.d	t3,fa5,fa4
   13e7a:	0005031b          	sext.w	t1,a0
   13e7e:	6e0e1a63          	bnez	t3,14572 <__gdtoa+0x87c>
   13e82:	0148959b          	slliw	a1,a7,0x14
   13e86:	01d585bb          	addw	a1,a1,t4
   13e8a:	1682                	slli	a3,a3,0x20
   13e8c:	41178f3b          	subw	t5,a5,a7
   13e90:	1582                	slli	a1,a1,0x20
   13e92:	9281                	srli	a3,a3,0x20
   13e94:	0003051b          	sext.w	a0,t1
   13e98:	4ed9                	li	t4,22
   13e9a:	88fa                	mv	a7,t5
   13e9c:	8ecd                	or	a3,a3,a1
   13e9e:	ffff0e1b          	addiw	t3,t5,-1
   13ea2:	3eaeeb63          	bltu	t4,a0,14298 <__gdtoa+0x5a2>
   13ea6:	65e5                	lui	a1,0x19
   13ea8:	db058593          	addi	a1,a1,-592 # 18db0 <__mprec_tens>
   13eac:	00331513          	slli	a0,t1,0x3
   13eb0:	95aa                	add	a1,a1,a0
   13eb2:	219c                	fld	fa5,0(a1)
   13eb4:	f2068753          	fmv.d.x	fa4,a3
   13eb8:	a2f715d3          	flt.d	a1,fa4,fa5
   13ebc:	5c059063          	bnez	a1,1447c <__gdtoa+0x786>
   13ec0:	f882                	sd	zero,112(sp)
   13ec2:	ec02                	sd	zero,24(sp)
   13ec4:	01e04763          	bgtz	t5,13ed2 <__gdtoa+0x1dc>
   13ec8:	4585                	li	a1,1
   13eca:	41e5873b          	subw	a4,a1,t5
   13ece:	ec3a                	sd	a4,24(sp)
   13ed0:	4e01                	li	t3,0
   13ed2:	01c30e3b          	addw	t3,t1,t3
   13ed6:	fc1a                	sd	t1,56(sp)
   13ed8:	f802                	sd	zero,48(sp)
   13eda:	45a5                	li	a1,9
   13edc:	3f25ea63          	bltu	a1,s2,142d0 <__gdtoa+0x5da>
   13ee0:	4595                	li	a1,5
   13ee2:	5925c063          	blt	a1,s2,14462 <__gdtoa+0x76c>
   13ee6:	3fda8a9b          	addiw	s5,s5,1021
   13eea:	4511                	li	a0,4
   13eec:	7f8aba93          	sltiu	s5,s5,2040
   13ef0:	22a904e3          	beq	s2,a0,14918 <__gdtoa+0xc22>
   13ef4:	20b90ee3          	beq	s2,a1,14910 <__gdtoa+0xc1a>
   13ef8:	4589                	li	a1,2
   13efa:	22b902e3          	beq	s2,a1,1491e <__gdtoa+0xc28>
   13efe:	458d                	li	a1,3
   13f00:	e082                	sd	zero,64(sp)
   13f02:	3cb91c63          	bne	s2,a1,142da <__gdtoa+0x5e4>
   13f06:	7762                	ld	a4,56(sp)
   13f08:	017705bb          	addw	a1,a4,s7
   13f0c:	0015871b          	addiw	a4,a1,1
   13f10:	f43a                	sd	a4,40(sp)
   13f12:	fcae                	sd	a1,120(sp)
   13f14:	04e053e3          	blez	a4,1475a <__gdtoa+0xa64>
   13f18:	88ba                	mv	a7,a4
   13f1a:	85ba                	mv	a1,a4
   13f1c:	8522                	mv	a0,s0
   13f1e:	f4b6                	sd	a3,104(sp)
   13f20:	f0be                	sd	a5,96(sp)
   13f22:	ecf2                	sd	t3,88(sp)
   13f24:	e89a                	sd	t1,80(sp)
   13f26:	e4b2                	sd	a2,72(sp)
   13f28:	c746                	sw	a7,140(sp)
   13f2a:	627000ef          	jal	14d50 <__rv_alloc_D2A>
   13f2e:	882a                	mv	a6,a0
   13f30:	34050763          	beqz	a0,1427e <__gdtoa+0x588>
   13f34:	00cb2703          	lw	a4,12(s6)
   13f38:	6626                	ld	a2,72(sp)
   13f3a:	6346                	ld	t1,80(sp)
   13f3c:	377d                	addiw	a4,a4,-1
   13f3e:	f03a                	sd	a4,32(sp)
   13f40:	6e66                	ld	t3,88(sp)
   13f42:	7786                	ld	a5,96(sp)
   13f44:	76a6                	ld	a3,104(sp)
   13f46:	3c070063          	beqz	a4,14306 <__gdtoa+0x610>
   13f4a:	50074963          	bltz	a4,1445c <__gdtoa+0x766>
   13f4e:	100cfc93          	andi	s9,s9,256
   13f52:	3a0c9563          	bnez	s9,142fc <__gdtoa+0x606>
   13f56:	00064663          	bltz	a2,13f62 <__gdtoa+0x26c>
   13f5a:	7762                	ld	a4,56(sp)
   13f5c:	45b9                	li	a1,14
   13f5e:	52e5d263          	bge	a1,a4,14482 <__gdtoa+0x78c>
   13f62:	6706                	ld	a4,64(sp)
   13f64:	4e070863          	beqz	a4,14454 <__gdtoa+0x75e>
   13f68:	40fd0d3b          	subw	s10,s10,a5
   13f6c:	004b2683          	lw	a3,4(s6)
   13f70:	001d059b          	addiw	a1,s10,1
   13f74:	c72e                	sw	a1,140(sp)
   13f76:	41a60d3b          	subw	s10,a2,s10
   13f7a:	02dd53e3          	bge	s10,a3,147a0 <__gdtoa+0xaaa>
   13f7e:	ffd9059b          	addiw	a1,s2,-3
   13f82:	99f5                	andi	a1,a1,-3
   13f84:	2581                	sext.w	a1,a1
   13f86:	74058d63          	beqz	a1,146e0 <__gdtoa+0x9ea>
   13f8a:	40d606bb          	subw	a3,a2,a3
   13f8e:	0016859b          	addiw	a1,a3,1
   13f92:	c72e                	sw	a1,140(sp)
   13f94:	4605                	li	a2,1
   13f96:	86ae                	mv	a3,a1
   13f98:	01265863          	bge	a2,s2,13fa8 <__gdtoa+0x2b2>
   13f9c:	7722                	ld	a4,40(sp)
   13f9e:	00e05563          	blez	a4,13fa8 <__gdtoa+0x2b2>
   13fa2:	7722                	ld	a4,40(sp)
   13fa4:	44b74ce3          	blt	a4,a1,14bfc <__gdtoa+0xf06>
   13fa8:	6762                	ld	a4,24(sp)
   13faa:	7d42                	ld	s10,48(sp)
   13fac:	01c68e3b          	addw	t3,a3,t3
   13fb0:	8cba                	mv	s9,a4
   13fb2:	9f35                	addw	a4,a4,a3
   13fb4:	ec3a                	sd	a4,24(sp)
   13fb6:	4585                	li	a1,1
   13fb8:	8522                	mv	a0,s0
   13fba:	f0c2                	sd	a6,96(sp)
   13fbc:	ecbe                	sd	a5,88(sp)
   13fbe:	e8f2                	sd	t3,80(sp)
   13fc0:	e49a                	sd	t1,72(sp)
   13fc2:	3ea010ef          	jal	153ac <__i2b>
   13fc6:	6326                	ld	t1,72(sp)
   13fc8:	6e46                	ld	t3,80(sp)
   13fca:	67e6                	ld	a5,88(sp)
   13fcc:	7806                	ld	a6,96(sp)
   13fce:	8aaa                	mv	s5,a0
   13fd0:	2a050763          	beqz	a0,1427e <__gdtoa+0x588>
   13fd4:	020c8063          	beqz	s9,13ff4 <__gdtoa+0x2fe>
   13fd8:	01c05e63          	blez	t3,13ff4 <__gdtoa+0x2fe>
   13fdc:	86e6                	mv	a3,s9
   13fde:	019e5363          	bge	t3,s9,13fe4 <__gdtoa+0x2ee>
   13fe2:	86f2                	mv	a3,t3
   13fe4:	6762                	ld	a4,24(sp)
   13fe6:	c736                	sw	a3,140(sp)
   13fe8:	40dc8cbb          	subw	s9,s9,a3
   13fec:	9f15                	subw	a4,a4,a3
   13fee:	ec3a                	sd	a4,24(sp)
   13ff0:	40de0e3b          	subw	t3,t3,a3
   13ff4:	7742                	ld	a4,48(sp)
   13ff6:	c70d                	beqz	a4,14020 <__gdtoa+0x32a>
   13ff8:	6706                	ld	a4,64(sp)
   13ffa:	c319                	beqz	a4,14000 <__gdtoa+0x30a>
   13ffc:	060d18e3          	bnez	s10,1486c <__gdtoa+0xb76>
   14000:	7642                	ld	a2,48(sp)
   14002:	85e2                	mv	a1,s8
   14004:	8522                	mv	a0,s0
   14006:	f0c2                	sd	a6,96(sp)
   14008:	ecbe                	sd	a5,88(sp)
   1400a:	e8f2                	sd	t3,80(sp)
   1400c:	e49a                	sd	t1,72(sp)
   1400e:	5ae010ef          	jal	155bc <__pow5mult>
   14012:	6326                	ld	t1,72(sp)
   14014:	6e46                	ld	t3,80(sp)
   14016:	67e6                	ld	a5,88(sp)
   14018:	7806                	ld	a6,96(sp)
   1401a:	8c2a                	mv	s8,a0
   1401c:	26050163          	beqz	a0,1427e <__gdtoa+0x588>
   14020:	4585                	li	a1,1
   14022:	8522                	mv	a0,s0
   14024:	ecc2                	sd	a6,88(sp)
   14026:	e8be                	sd	a5,80(sp)
   14028:	e4f2                	sd	t3,72(sp)
   1402a:	f81a                	sd	t1,48(sp)
   1402c:	380010ef          	jal	153ac <__i2b>
   14030:	8d2a                	mv	s10,a0
   14032:	24050663          	beqz	a0,1427e <__gdtoa+0x588>
   14036:	7342                	ld	t1,48(sp)
   14038:	6e26                	ld	t3,72(sp)
   1403a:	67c6                	ld	a5,80(sp)
   1403c:	6866                	ld	a6,88(sp)
   1403e:	72031263          	bnez	t1,14762 <__gdtoa+0xa6c>
   14042:	4685                	li	a3,1
   14044:	5126d963          	bge	a3,s2,14556 <__gdtoa+0x860>
   14048:	457d                	li	a0,31
   1404a:	67e2                	ld	a5,24(sp)
   1404c:	41c509bb          	subw	s3,a0,t3
   14050:	39f1                	addiw	s3,s3,-4
   14052:	01f9f993          	andi	s3,s3,31
   14056:	00f9863b          	addw	a2,s3,a5
   1405a:	c74e                	sw	s3,140(sp)
   1405c:	87ce                	mv	a5,s3
   1405e:	5ac04963          	bgtz	a2,14610 <__gdtoa+0x91a>
   14062:	00fe063b          	addw	a2,t3,a5
   14066:	20c04163          	bgtz	a2,14268 <__gdtoa+0x572>
   1406a:	77c6                	ld	a5,112(sp)
   1406c:	5c079163          	bnez	a5,1462e <__gdtoa+0x938>
   14070:	77a2                	ld	a5,40(sp)
   14072:	68f05763          	blez	a5,14700 <__gdtoa+0xa0a>
   14076:	6786                	ld	a5,64(sp)
   14078:	5e078963          	beqz	a5,1466a <__gdtoa+0x974>
   1407c:	0199863b          	addw	a2,s3,s9
   14080:	06c047e3          	bgtz	a2,148ee <__gdtoa+0xbf8>
   14084:	ec56                	sd	s5,24(sp)
   14086:	0a031de3          	bnez	t1,14940 <__gdtoa+0xc4a>
   1408a:	e86e                	sd	s11,16(sp)
   1408c:	e0a6                	sd	s1,64(sp)
   1408e:	7da2                	ld	s11,40(sp)
   14090:	64e2                	ld	s1,24(sp)
   14092:	8bc2                	mv	s7,a6
   14094:	4685                	li	a3,1
   14096:	f842                	sd	a6,48(sp)
   14098:	f452                	sd	s4,40(sp)
   1409a:	a88d                	j	1410c <__gdtoa+0x416>
   1409c:	8522                	mv	a0,s0
   1409e:	03a010ef          	jal	150d8 <_Bfree>
   140a2:	120b44e3          	bltz	s6,149ca <__gdtoa+0xcd4>
   140a6:	01696b33          	or	s6,s2,s6
   140aa:	2b01                	sext.w	s6,s6
   140ac:	000b1763          	bnez	s6,140ba <__gdtoa+0x3c4>
   140b0:	67c2                	ld	a5,16(sp)
   140b2:	439c                	lw	a5,0(a5)
   140b4:	8b85                	andi	a5,a5,1
   140b6:	10078ae3          	beqz	a5,149ca <__gdtoa+0xcd4>
   140ba:	7782                	ld	a5,32(sp)
   140bc:	4709                	li	a4,2
   140be:	2ae79ce3          	bne	a5,a4,14b76 <__gdtoa+0xe80>
   140c2:	014b8023          	sb	s4,0(s7)
   140c6:	47ba                	lw	a5,140(sp)
   140c8:	0b85                	addi	s7,s7,1
   140ca:	23b780e3          	beq	a5,s11,14aea <__gdtoa+0xdf4>
   140ce:	85e2                	mv	a1,s8
   140d0:	4681                	li	a3,0
   140d2:	4629                	li	a2,10
   140d4:	8522                	mv	a0,s0
   140d6:	014010ef          	jal	150ea <__multadd>
   140da:	8c2a                	mv	s8,a0
   140dc:	1a050163          	beqz	a0,1427e <__gdtoa+0x588>
   140e0:	4681                	li	a3,0
   140e2:	4629                	li	a2,10
   140e4:	85d6                	mv	a1,s5
   140e6:	8522                	mv	a0,s0
   140e8:	4a9a8b63          	beq	s5,s1,1459e <__gdtoa+0x8a8>
   140ec:	7ff000ef          	jal	150ea <__multadd>
   140f0:	8aaa                	mv	s5,a0
   140f2:	18050663          	beqz	a0,1427e <__gdtoa+0x588>
   140f6:	85a6                	mv	a1,s1
   140f8:	4681                	li	a3,0
   140fa:	4629                	li	a2,10
   140fc:	8522                	mv	a0,s0
   140fe:	7ed000ef          	jal	150ea <__multadd>
   14102:	84aa                	mv	s1,a0
   14104:	16050d63          	beqz	a0,1427e <__gdtoa+0x588>
   14108:	46ba                	lw	a3,140(sp)
   1410a:	2685                	addiw	a3,a3,1
   1410c:	85ea                	mv	a1,s10
   1410e:	8562                	mv	a0,s8
   14110:	c736                	sw	a3,140(sp)
   14112:	517000ef          	jal	14e28 <__quorem_D2A>
   14116:	03050a1b          	addiw	s4,a0,48
   1411a:	85d6                	mv	a1,s5
   1411c:	8caa                	mv	s9,a0
   1411e:	8562                	mv	a0,s8
   14120:	694010ef          	jal	157b4 <__mcmp>
   14124:	85ea                	mv	a1,s10
   14126:	8b2a                	mv	s6,a0
   14128:	8626                	mv	a2,s1
   1412a:	8522                	mv	a0,s0
   1412c:	6c0010ef          	jal	157ec <__mdiff>
   14130:	89d2                	mv	s3,s4
   14132:	85aa                	mv	a1,a0
   14134:	14050563          	beqz	a0,1427e <__gdtoa+0x588>
   14138:	491c                	lw	a5,16(a0)
   1413a:	f3ad                	bnez	a5,1409c <__gdtoa+0x3a6>
   1413c:	ec2a                	sd	a0,24(sp)
   1413e:	8562                	mv	a0,s8
   14140:	674010ef          	jal	157b4 <__mcmp>
   14144:	65e2                	ld	a1,24(sp)
   14146:	86aa                	mv	a3,a0
   14148:	8522                	mv	a0,s0
   1414a:	ec36                	sd	a3,24(sp)
   1414c:	78d000ef          	jal	150d8 <_Bfree>
   14150:	66e2                	ld	a3,24(sp)
   14152:	00d96733          	or	a4,s2,a3
   14156:	2701                	sext.w	a4,a4
   14158:	380718e3          	bnez	a4,14ce8 <__gdtoa+0xff2>
   1415c:	67c2                	ld	a5,16(sp)
   1415e:	439c                	lw	a5,0(a5)
   14160:	8b85                	andi	a5,a5,1
   14162:	44079563          	bnez	a5,145ac <__gdtoa+0x8b6>
   14166:	7782                	ld	a5,32(sp)
   14168:	2a078ce3          	beqz	a5,14c20 <__gdtoa+0xf2a>
   1416c:	f5604be3          	bgtz	s6,140c2 <__gdtoa+0x3cc>
   14170:	014c2603          	lw	a2,20(s8)
   14174:	ec26                	sd	s1,24(sp)
   14176:	4685                	li	a3,1
   14178:	8352                	mv	t1,s4
   1417a:	7842                	ld	a6,48(sp)
   1417c:	7a22                	ld	s4,40(sp)
   1417e:	6486                	ld	s1,64(sp)
   14180:	89ba                	mv	s3,a4
   14182:	34c6d0e3          	bge	a3,a2,14cc2 <__gdtoa+0xfcc>
   14186:	7782                	ld	a5,32(sp)
   14188:	4689                	li	a3,2
   1418a:	30d78fe3          	beq	a5,a3,14ca8 <__gdtoa+0xfb2>
   1418e:	6b62                	ld	s6,24(sp)
   14190:	899a                	mv	s3,t1
   14192:	8dc2                	mv	s11,a6
   14194:	a829                	j	141ae <__gdtoa+0x4b8>
   14196:	755000ef          	jal	150ea <__multadd>
   1419a:	85ea                	mv	a1,s10
   1419c:	8c2a                	mv	s8,a0
   1419e:	0e050063          	beqz	a0,1427e <__gdtoa+0x588>
   141a2:	487000ef          	jal	14e28 <__quorem_D2A>
   141a6:	0305099b          	addiw	s3,a0,48
   141aa:	8be6                	mv	s7,s9
   141ac:	8b4a                	mv	s6,s2
   141ae:	85da                	mv	a1,s6
   141b0:	856a                	mv	a0,s10
   141b2:	602010ef          	jal	157b4 <__mcmp>
   141b6:	87aa                	mv	a5,a0
   141b8:	4681                	li	a3,0
   141ba:	4629                	li	a2,10
   141bc:	85da                	mv	a1,s6
   141be:	8522                	mv	a0,s0
   141c0:	001b8c93          	addi	s9,s7,1
   141c4:	2cf057e3          	blez	a5,14c92 <__gdtoa+0xf9c>
   141c8:	ff3c8fa3          	sb	s3,-1(s9)
   141cc:	71f000ef          	jal	150ea <__multadd>
   141d0:	892a                	mv	s2,a0
   141d2:	4681                	li	a3,0
   141d4:	4629                	li	a2,10
   141d6:	85e2                	mv	a1,s8
   141d8:	8522                	mv	a0,s0
   141da:	0a090263          	beqz	s2,1427e <__gdtoa+0x588>
   141de:	fb6a9ce3          	bne	s5,s6,14196 <__gdtoa+0x4a0>
   141e2:	8aca                	mv	s5,s2
   141e4:	bf4d                	j	14196 <__gdtoa+0x4a0>
   141e6:	4791                	li	a5,4
   141e8:	0af31363          	bne	t1,a5,1428e <__gdtoa+0x598>
   141ec:	6622                	ld	a2,8(sp)
   141ee:	69ee                	ld	s3,216(sp)
   141f0:	70ee                	ld	ra,248(sp)
   141f2:	74ae                	ld	s1,232(sp)
   141f4:	6a4e                	ld	s4,208(sp)
   141f6:	7caa                	ld	s9,168(sp)
   141f8:	77e1                	lui	a5,0xffff8
   141fa:	00f8a023          	sw	a5,0(a7)
   141fe:	65e5                	lui	a1,0x19
   14200:	468d                	li	a3,3
   14202:	a9058593          	addi	a1,a1,-1392 # 18a90 <__clzdi2+0xba>
   14206:	6111                	addi	sp,sp,256
   14208:	3910006f          	j	14d98 <__nrv_alloc_D2A>
   1420c:	85e2                	mv	a1,s8
   1420e:	8522                	mv	a0,s0
   14210:	6c9000ef          	jal	150d8 <_Bfree>
   14214:	790e                	ld	s2,224(sp)
   14216:	6aae                	ld	s5,200(sp)
   14218:	6b0e                	ld	s6,192(sp)
   1421a:	7bea                	ld	s7,184(sp)
   1421c:	7c4a                	ld	s8,176(sp)
   1421e:	7d0a                	ld	s10,160(sp)
   14220:	6dea                	ld	s11,152(sp)
   14222:	6622                	ld	a2,8(sp)
   14224:	4785                	li	a5,1
   14226:	65e5                	lui	a1,0x19
   14228:	8522                	mv	a0,s0
   1422a:	c09c                	sw	a5,0(s1)
   1422c:	4685                	li	a3,1
   1422e:	a7858593          	addi	a1,a1,-1416 # 18a78 <__clzdi2+0xa2>
   14232:	367000ef          	jal	14d98 <__nrv_alloc_D2A>
   14236:	744e                	ld	s0,240(sp)
   14238:	882a                	mv	a6,a0
   1423a:	70ee                	ld	ra,248(sp)
   1423c:	69ee                	ld	s3,216(sp)
   1423e:	74ae                	ld	s1,232(sp)
   14240:	6a4e                	ld	s4,208(sp)
   14242:	7caa                	ld	s9,168(sp)
   14244:	8542                	mv	a0,a6
   14246:	6111                	addi	sp,sp,256
   14248:	8082                	ret
   1424a:	6622                	ld	a2,8(sp)
   1424c:	70ee                	ld	ra,248(sp)
   1424e:	74ae                	ld	s1,232(sp)
   14250:	6a4e                	ld	s4,208(sp)
   14252:	7caa                	ld	s9,168(sp)
   14254:	77e1                	lui	a5,0xffff8
   14256:	00f8a023          	sw	a5,0(a7)
   1425a:	65e5                	lui	a1,0x19
   1425c:	46a1                	li	a3,8
   1425e:	a8058593          	addi	a1,a1,-1408 # 18a80 <__clzdi2+0xaa>
   14262:	6111                	addi	sp,sp,256
   14264:	3350006f          	j	14d98 <__nrv_alloc_D2A>
   14268:	85ea                	mv	a1,s10
   1426a:	8522                	mv	a0,s0
   1426c:	ec42                	sd	a6,24(sp)
   1426e:	e81a                	sd	t1,16(sp)
   14270:	420010ef          	jal	15690 <__lshift>
   14274:	6342                	ld	t1,16(sp)
   14276:	6862                	ld	a6,24(sp)
   14278:	8d2a                	mv	s10,a0
   1427a:	de0518e3          	bnez	a0,1406a <__gdtoa+0x374>
   1427e:	744e                	ld	s0,240(sp)
   14280:	790e                	ld	s2,224(sp)
   14282:	6aae                	ld	s5,200(sp)
   14284:	6b0e                	ld	s6,192(sp)
   14286:	7bea                	ld	s7,184(sp)
   14288:	7c4a                	ld	s8,176(sp)
   1428a:	7d0a                	ld	s10,160(sp)
   1428c:	6dea                	ld	s11,152(sp)
   1428e:	4801                	li	a6,0
   14290:	b76d                	j	1423a <__gdtoa+0x544>
   14292:	000c2a23          	sw	zero,20(s8)
   14296:	be3d                	j	13dd4 <__gdtoa+0xde>
   14298:	4705                	li	a4,1
   1429a:	f8ba                	sd	a4,112(sp)
   1429c:	ec02                	sd	zero,24(sp)
   1429e:	1a0e4363          	bltz	t3,14444 <__gdtoa+0x74e>
   142a2:	c20358e3          	bgez	t1,13ed2 <__gdtoa+0x1dc>
   142a6:	6762                	ld	a4,24(sp)
   142a8:	fc1a                	sd	t1,56(sp)
   142aa:	4067073b          	subw	a4,a4,t1
   142ae:	ec3a                	sd	a4,24(sp)
   142b0:	4060073b          	negw	a4,t1
   142b4:	f83a                	sd	a4,48(sp)
   142b6:	4301                	li	t1,0
   142b8:	b10d                	j	13eda <__gdtoa+0x1e4>
   142ba:	85aa                	mv	a1,a0
   142bc:	8562                	mv	a0,s8
   142be:	4db000ef          	jal	14f98 <__rshift_D2A>
   142c2:	46ba                	lw	a3,140(sp)
   142c4:	67c2                	ld	a5,16(sp)
   142c6:	00f6863b          	addw	a2,a3,a5
   142ca:	67e2                	ld	a5,24(sp)
   142cc:	9f95                	subw	a5,a5,a3
   142ce:	be21                	j	13de6 <__gdtoa+0xf0>
   142d0:	3fda8a9b          	addiw	s5,s5,1021
   142d4:	7f8aba93          	sltiu	s5,s5,2040
   142d8:	4901                	li	s2,0
   142da:	1d01b707          	fld	fa4,464(gp) # 1ad78 <__SDATA_BEGIN__+0x28>
   142de:	d20d07d3          	fcvt.d.w	fa5,s10
   142e2:	4705                	li	a4,1
   142e4:	e0ba                	sd	a4,64(sp)
   142e6:	12e7f7d3          	fmul.d	fa5,fa5,fa4
   142ea:	577d                	li	a4,-1
   142ec:	4b81                	li	s7,0
   142ee:	fcba                	sd	a4,120(sp)
   142f0:	f43a                	sd	a4,40(sp)
   142f2:	c20795d3          	fcvt.w.d	a1,fa5,rtz
   142f6:	258d                	addiw	a1,a1,3
   142f8:	88ae                	mv	a7,a1
   142fa:	b10d                	j	13f1c <__gdtoa+0x226>
   142fc:	7702                	ld	a4,32(sp)
   142fe:	458d                	li	a1,3
   14300:	40e5873b          	subw	a4,a1,a4
   14304:	f03a                	sd	a4,32(sp)
   14306:	7722                	ld	a4,40(sp)
   14308:	4539                	li	a0,14
   1430a:	0007059b          	sext.w	a1,a4
   1430e:	c4b564e3          	bltu	a0,a1,13f56 <__gdtoa+0x260>
   14312:	c40a82e3          	beqz	s5,13f56 <__gdtoa+0x260>
   14316:	75e2                	ld	a1,56(sp)
   14318:	7502                	ld	a0,32(sp)
   1431a:	8dc9                	or	a1,a1,a0
   1431c:	2581                	sext.w	a1,a1
   1431e:	c2059ce3          	bnez	a1,13f56 <__gdtoa+0x260>
   14322:	75c6                	ld	a1,112(sp)
   14324:	c702                	sw	zero,140(sp)
   14326:	8eb6                	mv	t4,a3
   14328:	c989                	beqz	a1,1433a <__gdtoa+0x644>
   1432a:	1d81b787          	fld	fa5,472(gp) # 1ad80 <__SDATA_BEGIN__+0x30>
   1432e:	f2068753          	fmv.d.x	fa4,a3
   14332:	a2f715d3          	flt.d	a1,fa4,fa5
   14336:	7c059263          	bnez	a1,14afa <__gdtoa+0xe04>
   1433a:	1f81b707          	fld	fa4,504(gp) # 1ada0 <__SDATA_BEGIN__+0x50>
   1433e:	1f01b787          	fld	fa5,496(gp) # 1ad98 <__SDATA_BEGIN__+0x48>
   14342:	f20e86d3          	fmv.d.x	fa3,t4
   14346:	fcc005b7          	lui	a1,0xfcc00
   1434a:	7722                	ld	a4,40(sp)
   1434c:	7ae6f7c3          	fmadd.d	fa5,fa3,fa4,fa5
   14350:	e2078553          	fmv.x.d	a0,fa5
   14354:	02055f13          	srli	t5,a0,0x20
   14358:	01e585bb          	addw	a1,a1,t5
   1435c:	5f7d                	li	t5,-1
   1435e:	020f5f13          	srli	t5,t5,0x20
   14362:	1582                	slli	a1,a1,0x20
   14364:	00af7f33          	and	t5,t5,a0
   14368:	00bf6f33          	or	t5,t5,a1
   1436c:	4c070763          	beqz	a4,1483a <__gdtoa+0xb44>
   14370:	7fa2                	ld	t6,40(sp)
   14372:	8576                	mv	a0,t4
   14374:	4381                	li	t2,0
   14376:	65e5                	lui	a1,0x19
   14378:	ffff829b          	addiw	t0,t6,-1
   1437c:	6706                	ld	a4,64(sp)
   1437e:	db058593          	addi	a1,a1,-592 # 18db0 <__mprec_tens>
   14382:	028e                	slli	t0,t0,0x3
   14384:	92ae                	add	t0,t0,a1
   14386:	0002b787          	fld	fa5,0(t0) # 10854 <memset+0x90>
   1438a:	6c070a63          	beqz	a4,14a5e <__gdtoa+0xd68>
   1438e:	f2050753          	fmv.d.x	fa4,a0
   14392:	f20506d3          	fmv.d.x	fa3,a0
   14396:	c20716d3          	fcvt.w.d	a3,fa4,rtz
   1439a:	2081b707          	fld	fa4,520(gp) # 1adb0 <__SDATA_BEGIN__+0x60>
   1439e:	00180c93          	addi	s9,a6,1
   143a2:	1af77753          	fdiv.d	fa4,fa4,fa5
   143a6:	d20687d3          	fcvt.d.w	fa5,a3
   143aa:	0306869b          	addiw	a3,a3,48
   143ae:	00d80023          	sb	a3,0(a6)
   143b2:	0af6f7d3          	fsub.d	fa5,fa3,fa5
   143b6:	f20f06d3          	fmv.d.x	fa3,t5
   143ba:	0ad77753          	fsub.d	fa4,fa4,fa3
   143be:	a2e796d3          	flt.d	a3,fa5,fa4
   143c2:	00069ae3          	bnez	a3,14bd6 <__gdtoa+0xee0>
   143c6:	1d81b587          	fld	fa1,472(gp) # 1ad80 <__SDATA_BEGIN__+0x30>
   143ca:	1e01b607          	fld	fa2,480(gp) # 1ad88 <__SDATA_BEGIN__+0x38>
   143ce:	a80d                	j	14400 <__gdtoa+0x70a>
   143d0:	473a                	lw	a4,140(sp)
   143d2:	0c85                	addi	s9,s9,1
   143d4:	2705                	addiw	a4,a4,1
   143d6:	c73a                	sw	a4,140(sp)
   143d8:	01f75ce3          	bge	a4,t6,14bf0 <__gdtoa+0xefa>
   143dc:	12c7f7d3          	fmul.d	fa5,fa5,fa2
   143e0:	12c77753          	fmul.d	fa4,fa4,fa2
   143e4:	c2079753          	fcvt.w.d	a4,fa5,rtz
   143e8:	d20706d3          	fcvt.d.w	fa3,a4
   143ec:	0307071b          	addiw	a4,a4,48
   143f0:	feec8fa3          	sb	a4,-1(s9)
   143f4:	0ad7f7d3          	fsub.d	fa5,fa5,fa3
   143f8:	a2e79753          	flt.d	a4,fa5,fa4
   143fc:	7c071d63          	bnez	a4,14bd6 <__gdtoa+0xee0>
   14400:	0af5f6d3          	fsub.d	fa3,fa1,fa5
   14404:	a2e69753          	flt.d	a4,fa3,fa4
   14408:	d761                	beqz	a4,143d0 <__gdtoa+0x6da>
   1440a:	fffcc683          	lbu	a3,-1(s9)
   1440e:	0013859b          	addiw	a1,t2,1
   14412:	03900613          	li	a2,57
   14416:	a031                	j	14422 <__gdtoa+0x72c>
   14418:	62f80f63          	beq	a6,a5,14a56 <__gdtoa+0xd60>
   1441c:	fff7c683          	lbu	a3,-1(a5) # ffffffffffff7fff <__BSS_END__+0xfffffffffffdcc57>
   14420:	8cbe                	mv	s9,a5
   14422:	fffc8793          	addi	a5,s9,-1
   14426:	fec689e3          	beq	a3,a2,14418 <__gdtoa+0x722>
   1442a:	2685                	addiw	a3,a3,1
   1442c:	0ff6f693          	zext.b	a3,a3
   14430:	00d78023          	sb	a3,0(a5)
   14434:	0005891b          	sext.w	s2,a1
   14438:	02000993          	li	s3,32
   1443c:	a0c5                	j	1451c <__gdtoa+0x826>
   1443e:	744e                	ld	s0,240(sp)
   14440:	790e                	ld	s2,224(sp)
   14442:	b589                	j	14284 <__gdtoa+0x58e>
   14444:	4585                	li	a1,1
   14446:	4115873b          	subw	a4,a1,a7
   1444a:	ec3a                	sd	a4,24(sp)
   1444c:	4e01                	li	t3,0
   1444e:	e4034ce3          	bltz	t1,142a6 <__gdtoa+0x5b0>
   14452:	b441                	j	13ed2 <__gdtoa+0x1dc>
   14454:	7d42                	ld	s10,48(sp)
   14456:	6ce2                	ld	s9,24(sp)
   14458:	4a81                	li	s5,0
   1445a:	bead                	j	13fd4 <__gdtoa+0x2de>
   1445c:	4709                	li	a4,2
   1445e:	f03a                	sd	a4,32(sp)
   14460:	b4fd                	j	13f4e <__gdtoa+0x258>
   14462:	3971                	addiw	s2,s2,-4
   14464:	4511                	li	a0,4
   14466:	10a90f63          	beq	s2,a0,14584 <__gdtoa+0x88e>
   1446a:	48b90e63          	beq	s2,a1,14906 <__gdtoa+0xc10>
   1446e:	4589                	li	a1,2
   14470:	e082                	sd	zero,64(sp)
   14472:	4a81                	li	s5,0
   14474:	10b90b63          	beq	s2,a1,1458a <__gdtoa+0x894>
   14478:	490d                	li	s2,3
   1447a:	b471                	j	13f06 <__gdtoa+0x210>
   1447c:	337d                	addiw	t1,t1,-1 # 3fefffff <__BSS_END__+0x3fee4c57>
   1447e:	f882                	sd	zero,112(sp)
   14480:	bd31                	j	1429c <__gdtoa+0x5a6>
   14482:	67e5                	lui	a5,0x19
   14484:	00371613          	slli	a2,a4,0x3
   14488:	db078793          	addi	a5,a5,-592 # 18db0 <__mprec_tens>
   1448c:	97b2                	add	a5,a5,a2
   1448e:	2398                	fld	fa4,0(a5)
   14490:	320bca63          	bltz	s7,147c4 <__gdtoa+0xace>
   14494:	f20687d3          	fmv.d.x	fa5,a3
   14498:	4785                	li	a5,1
   1449a:	c73e                	sw	a5,140(sp)
   1449c:	1ae7f7d3          	fdiv.d	fa5,fa5,fa4
   144a0:	77e2                	ld	a5,56(sp)
   144a2:	f20686d3          	fmv.d.x	fa3,a3
   144a6:	00180c93          	addi	s9,a6,1
   144aa:	0017891b          	addiw	s2,a5,1
   144ae:	85ca                	mv	a1,s2
   144b0:	c20797d3          	fcvt.w.d	a5,fa5,rtz
   144b4:	d20787d3          	fcvt.d.w	fa5,a5
   144b8:	0307861b          	addiw	a2,a5,48
   144bc:	00c80023          	sb	a2,0(a6)
   144c0:	6af777cb          	fnmsub.d	fa5,fa4,fa5,fa3
   144c4:	f20006d3          	fmv.d.x	fa3,zero
   144c8:	2781                	sext.w	a5,a5
   144ca:	a2d7a6d3          	feq.d	a3,fa5,fa3
   144ce:	e6b9                	bnez	a3,1451c <__gdtoa+0x826>
   144d0:	1e01b587          	fld	fa1,480(gp) # 1ad88 <__SDATA_BEGIN__+0x38>
   144d4:	22d68653          	fmv.d	fa2,fa3
   144d8:	7622                	ld	a2,40(sp)
   144da:	a02d                	j	14504 <__gdtoa+0x80e>
   144dc:	12b7f7d3          	fmul.d	fa5,fa5,fa1
   144e0:	c736                	sw	a3,140(sp)
   144e2:	0c85                	addi	s9,s9,1
   144e4:	1ae7f6d3          	fdiv.d	fa3,fa5,fa4
   144e8:	c20697d3          	fcvt.w.d	a5,fa3,rtz
   144ec:	d20786d3          	fcvt.d.w	fa3,a5
   144f0:	0307871b          	addiw	a4,a5,48
   144f4:	feec8fa3          	sb	a4,-1(s9)
   144f8:	7ae6f7cb          	fnmsub.d	fa5,fa3,fa4,fa5
   144fc:	2781                	sext.w	a5,a5
   144fe:	a2c7a753          	feq.d	a4,fa5,fa2
   14502:	ef09                	bnez	a4,1451c <__gdtoa+0x826>
   14504:	473a                	lw	a4,140(sp)
   14506:	0017069b          	addiw	a3,a4,1
   1450a:	fcc719e3          	bne	a4,a2,144dc <__gdtoa+0x7e6>
   1450e:	7702                	ld	a4,32(sp)
   14510:	50070863          	beqz	a4,14a20 <__gdtoa+0xd2a>
   14514:	4785                	li	a5,1
   14516:	49c1                	li	s3,16
   14518:	62f70863          	beq	a4,a5,14b48 <__gdtoa+0xe52>
   1451c:	85e2                	mv	a1,s8
   1451e:	8522                	mv	a0,s0
   14520:	e842                	sd	a6,16(sp)
   14522:	3b7000ef          	jal	150d8 <_Bfree>
   14526:	67a2                	ld	a5,8(sp)
   14528:	000c8023          	sb	zero,0(s9)
   1452c:	0124a023          	sw	s2,0(s1)
   14530:	6842                	ld	a6,16(sp)
   14532:	c399                	beqz	a5,14538 <__gdtoa+0x842>
   14534:	0197b023          	sd	s9,0(a5)
   14538:	000a2783          	lw	a5,0(s4)
   1453c:	744e                	ld	s0,240(sp)
   1453e:	790e                	ld	s2,224(sp)
   14540:	00f9e7b3          	or	a5,s3,a5
   14544:	6aae                	ld	s5,200(sp)
   14546:	6b0e                	ld	s6,192(sp)
   14548:	7bea                	ld	s7,184(sp)
   1454a:	7c4a                	ld	s8,176(sp)
   1454c:	7d0a                	ld	s10,160(sp)
   1454e:	6dea                	ld	s11,152(sp)
   14550:	00fa2023          	sw	a5,0(s4)
   14554:	b1dd                	j	1423a <__gdtoa+0x544>
   14556:	aed799e3          	bne	a5,a3,14048 <__gdtoa+0x352>
   1455a:	004b2783          	lw	a5,4(s6)
   1455e:	6742                	ld	a4,16(sp)
   14560:	2785                	addiw	a5,a5,1
   14562:	aee7d3e3          	bge	a5,a4,14048 <__gdtoa+0x352>
   14566:	67e2                	ld	a5,24(sp)
   14568:	2e05                	addiw	t3,t3,1
   1456a:	4305                	li	t1,1
   1456c:	2785                	addiw	a5,a5,1
   1456e:	ec3e                	sd	a5,24(sp)
   14570:	bce1                	j	14048 <__gdtoa+0x352>
   14572:	d2050753          	fcvt.d.w	fa4,a0
   14576:	a2f725d3          	feq.d	a1,fa4,fa5
   1457a:	900594e3          	bnez	a1,13e82 <__gdtoa+0x18c>
   1457e:	fff5031b          	addiw	t1,a0,-1
   14582:	b201                	j	13e82 <__gdtoa+0x18c>
   14584:	4705                	li	a4,1
   14586:	4a81                	li	s5,0
   14588:	e0ba                	sd	a4,64(sp)
   1458a:	000b859b          	sext.w	a1,s7
   1458e:	01704363          	bgtz	s7,14594 <__gdtoa+0x89e>
   14592:	4585                	li	a1,1
   14594:	88ae                	mv	a7,a1
   14596:	fcae                	sd	a1,120(sp)
   14598:	f42e                	sd	a1,40(sp)
   1459a:	8bae                	mv	s7,a1
   1459c:	b241                	j	13f1c <__gdtoa+0x226>
   1459e:	34d000ef          	jal	150ea <__multadd>
   145a2:	8aaa                	mv	s5,a0
   145a4:	cc050de3          	beqz	a0,1427e <__gdtoa+0x588>
   145a8:	84aa                	mv	s1,a0
   145aa:	beb9                	j	14108 <__gdtoa+0x412>
   145ac:	b00b5be3          	bgez	s6,140c2 <__gdtoa+0x3cc>
   145b0:	7782                	ld	a5,32(sp)
   145b2:	ec26                	sd	s1,24(sp)
   145b4:	8352                	mv	t1,s4
   145b6:	7842                	ld	a6,48(sp)
   145b8:	7a22                	ld	s4,40(sp)
   145ba:	6486                	ld	s1,64(sp)
   145bc:	89ba                	mv	s3,a4
   145be:	6e079d63          	bnez	a5,14cb8 <__gdtoa+0xfc2>
   145c2:	014c2603          	lw	a2,20(s8)
   145c6:	4685                	li	a3,1
   145c8:	49c1                	li	s3,16
   145ca:	001b8c93          	addi	s9,s7,1
   145ce:	68c6da63          	bge	a3,a2,14c62 <__gdtoa+0xf6c>
   145d2:	006b8023          	sb	t1,0(s7)
   145d6:	8b56                	mv	s6,s5
   145d8:	6ae2                	ld	s5,24(sp)
   145da:	85ea                	mv	a1,s10
   145dc:	8522                	mv	a0,s0
   145de:	e842                	sd	a6,16(sp)
   145e0:	2f9000ef          	jal	150d8 <_Bfree>
   145e4:	77e2                	ld	a5,56(sp)
   145e6:	6842                	ld	a6,16(sp)
   145e8:	0017891b          	addiw	s2,a5,1
   145ec:	f20a88e3          	beqz	s5,1451c <__gdtoa+0x826>
   145f0:	000b0963          	beqz	s6,14602 <__gdtoa+0x90c>
   145f4:	015b0763          	beq	s6,s5,14602 <__gdtoa+0x90c>
   145f8:	85da                	mv	a1,s6
   145fa:	8522                	mv	a0,s0
   145fc:	2dd000ef          	jal	150d8 <_Bfree>
   14600:	6842                	ld	a6,16(sp)
   14602:	85d6                	mv	a1,s5
   14604:	8522                	mv	a0,s0
   14606:	e842                	sd	a6,16(sp)
   14608:	2d1000ef          	jal	150d8 <_Bfree>
   1460c:	6842                	ld	a6,16(sp)
   1460e:	b739                	j	1451c <__gdtoa+0x826>
   14610:	85e2                	mv	a1,s8
   14612:	8522                	mv	a0,s0
   14614:	f842                	sd	a6,48(sp)
   14616:	ec72                	sd	t3,24(sp)
   14618:	e81a                	sd	t1,16(sp)
   1461a:	076010ef          	jal	15690 <__lshift>
   1461e:	8c2a                	mv	s8,a0
   14620:	c4050fe3          	beqz	a0,1427e <__gdtoa+0x588>
   14624:	47ba                	lw	a5,140(sp)
   14626:	7842                	ld	a6,48(sp)
   14628:	6e62                	ld	t3,24(sp)
   1462a:	6342                	ld	t1,16(sp)
   1462c:	bc1d                	j	14062 <__gdtoa+0x36c>
   1462e:	85ea                	mv	a1,s10
   14630:	8562                	mv	a0,s8
   14632:	ec42                	sd	a6,24(sp)
   14634:	e81a                	sd	t1,16(sp)
   14636:	17e010ef          	jal	157b4 <__mcmp>
   1463a:	6342                	ld	t1,16(sp)
   1463c:	6862                	ld	a6,24(sp)
   1463e:	a20559e3          	bgez	a0,14070 <__gdtoa+0x37a>
   14642:	77e2                	ld	a5,56(sp)
   14644:	85e2                	mv	a1,s8
   14646:	4681                	li	a3,0
   14648:	37fd                	addiw	a5,a5,-1
   1464a:	4629                	li	a2,10
   1464c:	8522                	mv	a0,s0
   1464e:	fc3e                	sd	a5,56(sp)
   14650:	29b000ef          	jal	150ea <__multadd>
   14654:	8c2a                	mv	s8,a0
   14656:	c20504e3          	beqz	a0,1427e <__gdtoa+0x588>
   1465a:	6786                	ld	a5,64(sp)
   1465c:	6862                	ld	a6,24(sp)
   1465e:	54079063          	bnez	a5,14b9e <__gdtoa+0xea8>
   14662:	77e6                	ld	a5,120(sp)
   14664:	14f05a63          	blez	a5,147b8 <__gdtoa+0xac2>
   14668:	f43e                	sd	a5,40(sp)
   1466a:	7922                	ld	s2,40(sp)
   1466c:	8bc2                	mv	s7,a6
   1466e:	4685                	li	a3,1
   14670:	89c2                	mv	s3,a6
   14672:	a801                	j	14682 <__gdtoa+0x98c>
   14674:	277000ef          	jal	150ea <__multadd>
   14678:	8c2a                	mv	s8,a0
   1467a:	c00502e3          	beqz	a0,1427e <__gdtoa+0x588>
   1467e:	46ba                	lw	a3,140(sp)
   14680:	2685                	addiw	a3,a3,1
   14682:	85ea                	mv	a1,s10
   14684:	8562                	mv	a0,s8
   14686:	c736                	sw	a3,140(sp)
   14688:	7a0000ef          	jal	14e28 <__quorem_D2A>
   1468c:	0305031b          	addiw	t1,a0,48
   14690:	006b8023          	sb	t1,0(s7)
   14694:	47ba                	lw	a5,140(sp)
   14696:	4681                	li	a3,0
   14698:	4629                	li	a2,10
   1469a:	85e2                	mv	a1,s8
   1469c:	8522                	mv	a0,s0
   1469e:	0b85                	addi	s7,s7,1
   146a0:	fd27cae3          	blt	a5,s2,14674 <__gdtoa+0x97e>
   146a4:	884e                	mv	a6,s3
   146a6:	4b01                	li	s6,0
   146a8:	7782                	ld	a5,32(sp)
   146aa:	2c078763          	beqz	a5,14978 <__gdtoa+0xc82>
   146ae:	4689                	li	a3,2
   146b0:	014c2603          	lw	a2,20(s8)
   146b4:	2ed78863          	beq	a5,a3,149a4 <__gdtoa+0xcae>
   146b8:	4685                	li	a3,1
   146ba:	20c6c963          	blt	a3,a2,148cc <__gdtoa+0xbd6>
   146be:	018c2683          	lw	a3,24(s8)
   146c2:	20069563          	bnez	a3,148cc <__gdtoa+0xbd6>
   146c6:	00d036b3          	snez	a3,a3
   146ca:	00469993          	slli	s3,a3,0x4
   146ce:	03000613          	li	a2,48
   146d2:	fffbc783          	lbu	a5,-1(s7)
   146d6:	8cde                	mv	s9,s7
   146d8:	1bfd                	addi	s7,s7,-1
   146da:	fec78ce3          	beq	a5,a2,146d2 <__gdtoa+0x9dc>
   146de:	bdf5                	j	145da <__gdtoa+0x8e4>
   146e0:	7722                	ld	a4,40(sp)
   146e2:	7642                	ld	a2,48(sp)
   146e4:	fff7069b          	addiw	a3,a4,-1
   146e8:	10d64163          	blt	a2,a3,147ea <__gdtoa+0xaf4>
   146ec:	40d60d3b          	subw	s10,a2,a3
   146f0:	46075a63          	bgez	a4,14b64 <__gdtoa+0xe6e>
   146f4:	6762                	ld	a4,24(sp)
   146f6:	76a2                	ld	a3,40(sp)
   146f8:	c702                	sw	zero,140(sp)
   146fa:	40d70cbb          	subw	s9,a4,a3
   146fe:	b865                	j	13fb6 <__gdtoa+0x2c0>
   14700:	4789                	li	a5,2
   14702:	9727dae3          	bge	a5,s2,14076 <__gdtoa+0x380>
   14706:	85ea                	mv	a1,s10
   14708:	4681                	li	a3,0
   1470a:	4615                	li	a2,5
   1470c:	8522                	mv	a0,s0
   1470e:	e842                	sd	a6,16(sp)
   14710:	1db000ef          	jal	150ea <__multadd>
   14714:	85aa                	mv	a1,a0
   14716:	b60504e3          	beqz	a0,1427e <__gdtoa+0x588>
   1471a:	77a2                	ld	a5,40(sp)
   1471c:	6842                	ld	a6,16(sp)
   1471e:	14079263          	bnez	a5,14862 <__gdtoa+0xb6c>
   14722:	e82a                	sd	a0,16(sp)
   14724:	8562                	mv	a0,s8
   14726:	ec42                	sd	a6,24(sp)
   14728:	08c010ef          	jal	157b4 <__mcmp>
   1472c:	77e2                	ld	a5,56(sp)
   1472e:	65c2                	ld	a1,16(sp)
   14730:	6862                	ld	a6,24(sp)
   14732:	0027891b          	addiw	s2,a5,2
   14736:	12a05663          	blez	a0,14862 <__gdtoa+0xb6c>
   1473a:	03100793          	li	a5,49
   1473e:	00180c93          	addi	s9,a6,1
   14742:	00f80023          	sb	a5,0(a6)
   14746:	02000993          	li	s3,32
   1474a:	8522                	mv	a0,s0
   1474c:	e842                	sd	a6,16(sp)
   1474e:	18b000ef          	jal	150d8 <_Bfree>
   14752:	6842                	ld	a6,16(sp)
   14754:	dc0a84e3          	beqz	s5,1451c <__gdtoa+0x826>
   14758:	b56d                	j	14602 <__gdtoa+0x90c>
   1475a:	4885                	li	a7,1
   1475c:	4585                	li	a1,1
   1475e:	fbeff06f          	j	13f1c <__gdtoa+0x226>
   14762:	85aa                	mv	a1,a0
   14764:	861a                	mv	a2,t1
   14766:	8522                	mv	a0,s0
   14768:	e4c2                	sd	a6,72(sp)
   1476a:	f872                	sd	t3,48(sp)
   1476c:	651000ef          	jal	155bc <__pow5mult>
   14770:	8d2a                	mv	s10,a0
   14772:	b00506e3          	beqz	a0,1427e <__gdtoa+0x588>
   14776:	4685                	li	a3,1
   14778:	7e42                	ld	t3,48(sp)
   1477a:	6826                	ld	a6,72(sp)
   1477c:	1b26d363          	bge	a3,s2,14922 <__gdtoa+0xc2c>
   14780:	014d2783          	lw	a5,20(s10)
   14784:	f842                	sd	a6,48(sp)
   14786:	e872                	sd	t3,16(sp)
   14788:	37fd                	addiw	a5,a5,-1
   1478a:	0791                	addi	a5,a5,4
   1478c:	078a                	slli	a5,a5,0x2
   1478e:	97ea                	add	a5,a5,s10
   14790:	4788                	lw	a0,8(a5)
   14792:	325000ef          	jal	152b6 <__hi0bits>
   14796:	7842                	ld	a6,48(sp)
   14798:	6e42                	ld	t3,16(sp)
   1479a:	834e                	mv	t1,s3
   1479c:	8afff06f          	j	1404a <__gdtoa+0x354>
   147a0:	4685                	li	a3,1
   147a2:	f326cfe3          	blt	a3,s2,146e0 <__gdtoa+0x9ea>
   147a6:	6762                	ld	a4,24(sp)
   147a8:	7d42                	ld	s10,48(sp)
   147aa:	01c58e3b          	addw	t3,a1,t3
   147ae:	8cba                	mv	s9,a4
   147b0:	9f2d                	addw	a4,a4,a1
   147b2:	ec3a                	sd	a4,24(sp)
   147b4:	803ff06f          	j	13fb6 <__gdtoa+0x2c0>
   147b8:	4789                	li	a5,2
   147ba:	4b27ca63          	blt	a5,s2,14c6e <__gdtoa+0xf78>
   147be:	77e6                	ld	a5,120(sp)
   147c0:	f43e                	sd	a5,40(sp)
   147c2:	b565                	j	1466a <__gdtoa+0x974>
   147c4:	77a2                	ld	a5,40(sp)
   147c6:	ccf047e3          	bgtz	a5,14494 <__gdtoa+0x79e>
   147ca:	ebd1                	bnez	a5,1485e <__gdtoa+0xb68>
   147cc:	2001b787          	fld	fa5,512(gp) # 1ada8 <__SDATA_BEGIN__+0x58>
   147d0:	12f77753          	fmul.d	fa4,fa4,fa5
   147d4:	f20687d3          	fmv.d.x	fa5,a3
   147d8:	a2e787d3          	fle.d	a5,fa5,fa4
   147dc:	e3c9                	bnez	a5,1485e <__gdtoa+0xb68>
   147de:	77e2                	ld	a5,56(sp)
   147e0:	4581                	li	a1,0
   147e2:	4a81                	li	s5,0
   147e4:	0027891b          	addiw	s2,a5,2
   147e8:	bf89                	j	1473a <__gdtoa+0xa44>
   147ea:	7742                	ld	a4,48(sp)
   147ec:	65e2                	ld	a1,24(sp)
   147ee:	4d01                	li	s10,0
   147f0:	40e6863b          	subw	a2,a3,a4
   147f4:	7722                	ld	a4,40(sp)
   147f6:	8cae                	mv	s9,a1
   147f8:	0066033b          	addw	t1,a2,t1
   147fc:	c73a                	sw	a4,140(sp)
   147fe:	01c70e3b          	addw	t3,a4,t3
   14802:	9f2d                	addw	a4,a4,a1
   14804:	ec3a                	sd	a4,24(sp)
   14806:	f836                	sd	a3,48(sp)
   14808:	faeff06f          	j	13fb6 <__gdtoa+0x2c0>
   1480c:	1f81b787          	fld	fa5,504(gp) # 1ada0 <__SDATA_BEGIN__+0x50>
   14810:	1f01b707          	fld	fa4,496(gp) # 1ad98 <__SDATA_BEGIN__+0x48>
   14814:	f20e86d3          	fmv.d.x	fa3,t4
   14818:	fcc006b7          	lui	a3,0xfcc00
   1481c:	5f7d                	li	t5,-1
   1481e:	72f6f7c3          	fmadd.d	fa5,fa3,fa5,fa4
   14822:	020f5f13          	srli	t5,t5,0x20
   14826:	e20785d3          	fmv.x.d	a1,fa5
   1482a:	0205d513          	srli	a0,a1,0x20
   1482e:	9ea9                	addw	a3,a3,a0
   14830:	1682                	slli	a3,a3,0x20
   14832:	00bf7f33          	and	t5,t5,a1
   14836:	00df6f33          	or	t5,t5,a3
   1483a:	2001b787          	fld	fa5,512(gp) # 1ada8 <__SDATA_BEGIN__+0x58>
   1483e:	f20e8753          	fmv.d.x	fa4,t4
   14842:	0af777d3          	fsub.d	fa5,fa4,fa5
   14846:	f20f0753          	fmv.d.x	fa4,t5
   1484a:	a2f716d3          	flt.d	a3,fa4,fa5
   1484e:	30069763          	bnez	a3,14b5c <__gdtoa+0xe66>
   14852:	22e71753          	fneg.d	fa4,fa4
   14856:	a2e796d3          	flt.d	a3,fa5,fa4
   1485a:	2e068a63          	beqz	a3,14b4e <__gdtoa+0xe58>
   1485e:	4581                	li	a1,0
   14860:	4a81                	li	s5,0
   14862:	4170093b          	negw	s2,s7
   14866:	8cc2                	mv	s9,a6
   14868:	49c1                	li	s3,16
   1486a:	b5c5                	j	1474a <__gdtoa+0xa54>
   1486c:	85d6                	mv	a1,s5
   1486e:	866a                	mv	a2,s10
   14870:	8522                	mv	a0,s0
   14872:	f0c2                	sd	a6,96(sp)
   14874:	ecbe                	sd	a5,88(sp)
   14876:	e8f2                	sd	t3,80(sp)
   14878:	e49a                	sd	t1,72(sp)
   1487a:	543000ef          	jal	155bc <__pow5mult>
   1487e:	8aaa                	mv	s5,a0
   14880:	9e050fe3          	beqz	a0,1427e <__gdtoa+0x588>
   14884:	85aa                	mv	a1,a0
   14886:	8662                	mv	a2,s8
   14888:	8522                	mv	a0,s0
   1488a:	38b000ef          	jal	15414 <__multiply>
   1488e:	f4aa                	sd	a0,104(sp)
   14890:	9e0507e3          	beqz	a0,1427e <__gdtoa+0x588>
   14894:	85e2                	mv	a1,s8
   14896:	8522                	mv	a0,s0
   14898:	041000ef          	jal	150d8 <_Bfree>
   1489c:	77c2                	ld	a5,48(sp)
   1489e:	76a6                	ld	a3,104(sp)
   148a0:	6326                	ld	t1,72(sp)
   148a2:	41a7873b          	subw	a4,a5,s10
   148a6:	f83a                	sd	a4,48(sp)
   148a8:	6e46                	ld	t3,80(sp)
   148aa:	67e6                	ld	a5,88(sp)
   148ac:	7806                	ld	a6,96(sp)
   148ae:	8c36                	mv	s8,a3
   148b0:	f6070863          	beqz	a4,14020 <__gdtoa+0x32a>
   148b4:	f4cff06f          	j	14000 <__gdtoa+0x30a>
   148b8:	8b56                	mv	s6,s5
   148ba:	6ae2                	ld	s5,24(sp)
   148bc:	86de                	mv	a3,s7
   148be:	001b8c93          	addi	s9,s7,1
   148c2:	03900613          	li	a2,57
   148c6:	8be6                	mv	s7,s9
   148c8:	00c68023          	sb	a2,0(a3) # fffffffffcc00000 <__BSS_END__+0xfffffffffcbe4c58>
   148cc:	03900613          	li	a2,57
   148d0:	a019                	j	148d6 <__gdtoa+0xbe0>
   148d2:	0f780263          	beq	a6,s7,149b6 <__gdtoa+0xcc0>
   148d6:	fffbc683          	lbu	a3,-1(s7)
   148da:	8cde                	mv	s9,s7
   148dc:	1bfd                	addi	s7,s7,-1
   148de:	fec68ae3          	beq	a3,a2,148d2 <__gdtoa+0xbdc>
   148e2:	2685                	addiw	a3,a3,1
   148e4:	00db8023          	sb	a3,0(s7)
   148e8:	02000993          	li	s3,32
   148ec:	b1fd                	j	145da <__gdtoa+0x8e4>
   148ee:	85d6                	mv	a1,s5
   148f0:	8522                	mv	a0,s0
   148f2:	ec42                	sd	a6,24(sp)
   148f4:	e81a                	sd	t1,16(sp)
   148f6:	59b000ef          	jal	15690 <__lshift>
   148fa:	6342                	ld	t1,16(sp)
   148fc:	6862                	ld	a6,24(sp)
   148fe:	8aaa                	mv	s5,a0
   14900:	f8051263          	bnez	a0,14084 <__gdtoa+0x38e>
   14904:	baad                	j	1427e <__gdtoa+0x588>
   14906:	4705                	li	a4,1
   14908:	4a81                	li	s5,0
   1490a:	e0ba                	sd	a4,64(sp)
   1490c:	dfaff06f          	j	13f06 <__gdtoa+0x210>
   14910:	4705                	li	a4,1
   14912:	e0ba                	sd	a4,64(sp)
   14914:	df2ff06f          	j	13f06 <__gdtoa+0x210>
   14918:	4705                	li	a4,1
   1491a:	e0ba                	sd	a4,64(sp)
   1491c:	b1bd                	j	1458a <__gdtoa+0x894>
   1491e:	e082                	sd	zero,64(sp)
   14920:	b1ad                	j	1458a <__gdtoa+0x894>
   14922:	67c6                	ld	a5,80(sp)
   14924:	e4d79ee3          	bne	a5,a3,14780 <__gdtoa+0xa8a>
   14928:	004b2783          	lw	a5,4(s6)
   1492c:	6742                	ld	a4,16(sp)
   1492e:	2785                	addiw	a5,a5,1
   14930:	e4e7d8e3          	bge	a5,a4,14780 <__gdtoa+0xa8a>
   14934:	67e2                	ld	a5,24(sp)
   14936:	2e05                	addiw	t3,t3,1
   14938:	4985                	li	s3,1
   1493a:	2785                	addiw	a5,a5,1
   1493c:	ec3e                	sd	a5,24(sp)
   1493e:	b589                	j	14780 <__gdtoa+0xa8a>
   14940:	008aa583          	lw	a1,8(s5)
   14944:	8522                	mv	a0,s0
   14946:	e842                	sd	a6,16(sp)
   14948:	72c000ef          	jal	15074 <_Balloc>
   1494c:	89aa                	mv	s3,a0
   1494e:	920508e3          	beqz	a0,1427e <__gdtoa+0x588>
   14952:	014aa603          	lw	a2,20(s5)
   14956:	010a8593          	addi	a1,s5,16
   1495a:	0541                	addi	a0,a0,16
   1495c:	0609                	addi	a2,a2,2
   1495e:	060a                	slli	a2,a2,0x2
   14960:	eb7fe0ef          	jal	13816 <memcpy>
   14964:	4605                	li	a2,1
   14966:	85ce                	mv	a1,s3
   14968:	8522                	mv	a0,s0
   1496a:	527000ef          	jal	15690 <__lshift>
   1496e:	ec2a                	sd	a0,24(sp)
   14970:	6842                	ld	a6,16(sp)
   14972:	f0051c63          	bnez	a0,1408a <__gdtoa+0x394>
   14976:	b221                	j	1427e <__gdtoa+0x588>
   14978:	85e2                	mv	a1,s8
   1497a:	4605                	li	a2,1
   1497c:	8522                	mv	a0,s0
   1497e:	e842                	sd	a6,16(sp)
   14980:	ec1a                	sd	t1,24(sp)
   14982:	50f000ef          	jal	15690 <__lshift>
   14986:	8c2a                	mv	s8,a0
   14988:	8e050be3          	beqz	a0,1427e <__gdtoa+0x588>
   1498c:	85ea                	mv	a1,s10
   1498e:	627000ef          	jal	157b4 <__mcmp>
   14992:	6842                	ld	a6,16(sp)
   14994:	f2a04ce3          	bgtz	a0,148cc <__gdtoa+0xbd6>
   14998:	e511                	bnez	a0,149a4 <__gdtoa+0xcae>
   1499a:	6362                	ld	t1,24(sp)
   1499c:	00137313          	andi	t1,t1,1
   149a0:	f20316e3          	bnez	t1,148cc <__gdtoa+0xbd6>
   149a4:	014c2603          	lw	a2,20(s8)
   149a8:	4685                	li	a3,1
   149aa:	49c1                	li	s3,16
   149ac:	d2c6c1e3          	blt	a3,a2,146ce <__gdtoa+0x9d8>
   149b0:	018c2683          	lw	a3,24(s8)
   149b4:	bb09                	j	146c6 <__gdtoa+0x9d0>
   149b6:	77e2                	ld	a5,56(sp)
   149b8:	02000993          	li	s3,32
   149bc:	2785                	addiw	a5,a5,1
   149be:	fc3e                	sd	a5,56(sp)
   149c0:	03100793          	li	a5,49
   149c4:	00f80023          	sb	a5,0(a6)
   149c8:	b909                	j	145da <__gdtoa+0x8e4>
   149ca:	7782                	ld	a5,32(sp)
   149cc:	ec26                	sd	s1,24(sp)
   149ce:	8352                	mv	t1,s4
   149d0:	7842                	ld	a6,48(sp)
   149d2:	7a22                	ld	s4,40(sp)
   149d4:	6486                	ld	s1,64(sp)
   149d6:	cb91                	beqz	a5,149ea <__gdtoa+0xcf4>
   149d8:	014c2603          	lw	a2,20(s8)
   149dc:	4685                	li	a3,1
   149de:	fac6c463          	blt	a3,a2,14186 <__gdtoa+0x490>
   149e2:	018c2683          	lw	a3,24(s8)
   149e6:	fa069063          	bnez	a3,14186 <__gdtoa+0x490>
   149ea:	85e2                	mv	a1,s8
   149ec:	4605                	li	a2,1
   149ee:	8522                	mv	a0,s0
   149f0:	f042                	sd	a6,32(sp)
   149f2:	e81a                	sd	t1,16(sp)
   149f4:	49d000ef          	jal	15690 <__lshift>
   149f8:	8c2a                	mv	s8,a0
   149fa:	880502e3          	beqz	a0,1427e <__gdtoa+0x588>
   149fe:	85ea                	mv	a1,s10
   14a00:	5b5000ef          	jal	157b4 <__mcmp>
   14a04:	6342                	ld	t1,16(sp)
   14a06:	7802                	ld	a6,32(sp)
   14a08:	26a05663          	blez	a0,14c74 <__gdtoa+0xf7e>
   14a0c:	03900693          	li	a3,57
   14a10:	ead304e3          	beq	t1,a3,148b8 <__gdtoa+0xbc2>
   14a14:	02000793          	li	a5,32
   14a18:	031c831b          	addiw	t1,s9,49
   14a1c:	f03e                	sd	a5,32(sp)
   14a1e:	b655                	j	145c2 <__gdtoa+0x8cc>
   14a20:	02f7f7d3          	fadd.d	fa5,fa5,fa5
   14a24:	fffcc683          	lbu	a3,-1(s9)
   14a28:	a2f71653          	flt.d	a2,fa4,fa5
   14a2c:	9e0613e3          	bnez	a2,14412 <__gdtoa+0x71c>
   14a30:	a2e7a653          	feq.d	a2,fa5,fa4
   14a34:	c601                	beqz	a2,14a3c <__gdtoa+0xd46>
   14a36:	8b85                	andi	a5,a5,1
   14a38:	9c079de3          	bnez	a5,14412 <__gdtoa+0x71c>
   14a3c:	87e6                	mv	a5,s9
   14a3e:	49c1                	li	s3,16
   14a40:	03000613          	li	a2,48
   14a44:	fff7c703          	lbu	a4,-1(a5)
   14a48:	8cbe                	mv	s9,a5
   14a4a:	17fd                	addi	a5,a5,-1
   14a4c:	fec70ce3          	beq	a4,a2,14a44 <__gdtoa+0xd4e>
   14a50:	0005891b          	sext.w	s2,a1
   14a54:	b4e1                	j	1451c <__gdtoa+0x826>
   14a56:	03100693          	li	a3,49
   14a5a:	2585                	addiw	a1,a1,1
   14a5c:	bad1                	j	14430 <__gdtoa+0x73a>
   14a5e:	f20f0753          	fmv.d.x	fa4,t5
   14a62:	f20685d3          	fmv.d.x	fa1,a3
   14a66:	8cc2                	mv	s9,a6
   14a68:	12e7f653          	fmul.d	fa2,fa5,fa4
   14a6c:	f20687d3          	fmv.d.x	fa5,a3
   14a70:	1e01b707          	fld	fa4,480(gp) # 1ad88 <__SDATA_BEGIN__+0x38>
   14a74:	4685                	li	a3,1
   14a76:	c736                	sw	a3,140(sp)
   14a78:	4f01                	li	t5,0
   14a7a:	a029                	j	14a84 <__gdtoa+0xd8e>
   14a7c:	12e7f7d3          	fmul.d	fa5,fa5,fa4
   14a80:	c72a                	sw	a0,140(sp)
   14a82:	4f05                	li	t5,1
   14a84:	c2079753          	fcvt.w.d	a4,fa5,rtz
   14a88:	0c85                	addi	s9,s9,1
   14a8a:	0307069b          	addiw	a3,a4,48
   14a8e:	0007051b          	sext.w	a0,a4
   14a92:	0ff6f693          	zext.b	a3,a3
   14a96:	c511                	beqz	a0,14aa2 <__gdtoa+0xdac>
   14a98:	d20706d3          	fcvt.d.w	fa3,a4
   14a9c:	4f05                	li	t5,1
   14a9e:	0ad7f7d3          	fsub.d	fa5,fa5,fa3
   14aa2:	fedc8fa3          	sb	a3,-1(s9)
   14aa6:	473a                	lw	a4,140(sp)
   14aa8:	0017051b          	addiw	a0,a4,1
   14aac:	fdf718e3          	bne	a4,t6,14a7c <__gdtoa+0xd86>
   14ab0:	000f0463          	beqz	t5,14ab8 <__gdtoa+0xdc2>
   14ab4:	22f785d3          	fmv.d	fa1,fa5
   14ab8:	2081b787          	fld	fa5,520(gp) # 1adb0 <__SDATA_BEGIN__+0x60>
   14abc:	02f67753          	fadd.d	fa4,fa2,fa5
   14ac0:	a2b71553          	flt.d	a0,fa4,fa1
   14ac4:	10051563          	bnez	a0,14bce <__gdtoa+0xed8>
   14ac8:	0ac7f7d3          	fsub.d	fa5,fa5,fa2
   14acc:	a2f596d3          	flt.d	a3,fa1,fa5
   14ad0:	16069e63          	bnez	a3,14c4c <__gdtoa+0xf56>
   14ad4:	86f6                	mv	a3,t4
   14ad6:	1a064863          	bltz	a2,14c86 <__gdtoa+0xf90>
   14ada:	f002                	sd	zero,32(sp)
   14adc:	2198                	fld	fa4,0(a1)
   14ade:	9a0bdbe3          	bgez	s7,14494 <__gdtoa+0x79e>
   14ae2:	77a2                	ld	a5,40(sp)
   14ae4:	9a0798e3          	bnez	a5,14494 <__gdtoa+0x79e>
   14ae8:	b1d5                	j	147cc <__gdtoa+0xad6>
   14aea:	87a6                	mv	a5,s1
   14aec:	8352                	mv	t1,s4
   14aee:	8b56                	mv	s6,s5
   14af0:	7842                	ld	a6,48(sp)
   14af2:	7a22                	ld	s4,40(sp)
   14af4:	6486                	ld	s1,64(sp)
   14af6:	8abe                	mv	s5,a5
   14af8:	be45                	j	146a8 <__gdtoa+0x9b2>
   14afa:	d00709e3          	beqz	a4,1480c <__gdtoa+0xb16>
   14afe:	7fe6                	ld	t6,120(sp)
   14b00:	05f05763          	blez	t6,14b4e <__gdtoa+0xe58>
   14b04:	1e01b787          	fld	fa5,480(gp) # 1ad88 <__SDATA_BEGIN__+0x38>
   14b08:	fcc005b7          	lui	a1,0xfcc00
   14b0c:	12f777d3          	fmul.d	fa5,fa4,fa5
   14b10:	1e81b707          	fld	fa4,488(gp) # 1ad90 <__SDATA_BEGIN__+0x40>
   14b14:	53fd                	li	t2,-1
   14b16:	e2078553          	fmv.x.d	a0,fa5
   14b1a:	1f01b787          	fld	fa5,496(gp) # 1ad98 <__SDATA_BEGIN__+0x48>
   14b1e:	f20506d3          	fmv.d.x	fa3,a0
   14b22:	86aa                	mv	a3,a0
   14b24:	7ae6f7c3          	fmadd.d	fa5,fa3,fa4,fa5
   14b28:	e2078ad3          	fmv.x.d	s5,fa5
   14b2c:	020adf13          	srli	t5,s5,0x20
   14b30:	01e585bb          	addw	a1,a1,t5
   14b34:	5f7d                	li	t5,-1
   14b36:	020f5f13          	srli	t5,t5,0x20
   14b3a:	1582                	slli	a1,a1,0x20
   14b3c:	015f7f33          	and	t5,t5,s5
   14b40:	00bf6f33          	or	t5,t5,a1
   14b44:	833ff06f          	j	14376 <__gdtoa+0x680>
   14b48:	fffcc683          	lbu	a3,-1(s9)
   14b4c:	b0d9                	j	14412 <__gdtoa+0x71c>
   14b4e:	86f6                	mv	a3,t4
   14b50:	08064d63          	bltz	a2,14bea <__gdtoa+0xef4>
   14b54:	65e5                	lui	a1,0x19
   14b56:	db058593          	addi	a1,a1,-592 # 18db0 <__mprec_tens>
   14b5a:	b741                	j	14ada <__gdtoa+0xde4>
   14b5c:	4909                	li	s2,2
   14b5e:	4581                	li	a1,0
   14b60:	4a81                	li	s5,0
   14b62:	bee1                	j	1473a <__gdtoa+0xa44>
   14b64:	66e2                	ld	a3,24(sp)
   14b66:	c73a                	sw	a4,140(sp)
   14b68:	01c70e3b          	addw	t3,a4,t3
   14b6c:	9f35                	addw	a4,a4,a3
   14b6e:	8cb6                	mv	s9,a3
   14b70:	ec3a                	sd	a4,24(sp)
   14b72:	c44ff06f          	j	13fb6 <__gdtoa+0x2c0>
   14b76:	8352                	mv	t1,s4
   14b78:	ec26                	sd	s1,24(sp)
   14b7a:	03900693          	li	a3,57
   14b7e:	7842                	ld	a6,48(sp)
   14b80:	7a22                	ld	s4,40(sp)
   14b82:	6486                	ld	s1,64(sp)
   14b84:	d2d30ae3          	beq	t1,a3,148b8 <__gdtoa+0xbc2>
   14b88:	0019879b          	addiw	a5,s3,1
   14b8c:	8b56                	mv	s6,s5
   14b8e:	001b8c93          	addi	s9,s7,1
   14b92:	6ae2                	ld	s5,24(sp)
   14b94:	00fb8023          	sb	a5,0(s7)
   14b98:	02000993          	li	s3,32
   14b9c:	bc3d                	j	145da <__gdtoa+0x8e4>
   14b9e:	85d6                	mv	a1,s5
   14ba0:	4681                	li	a3,0
   14ba2:	4629                	li	a2,10
   14ba4:	8522                	mv	a0,s0
   14ba6:	544000ef          	jal	150ea <__multadd>
   14baa:	8aaa                	mv	s5,a0
   14bac:	ec050963          	beqz	a0,1427e <__gdtoa+0x588>
   14bb0:	77e6                	ld	a5,120(sp)
   14bb2:	6342                	ld	t1,16(sp)
   14bb4:	6862                	ld	a6,24(sp)
   14bb6:	00f05563          	blez	a5,14bc0 <__gdtoa+0xeca>
   14bba:	f43e                	sd	a5,40(sp)
   14bbc:	cc0ff06f          	j	1407c <__gdtoa+0x386>
   14bc0:	4789                	li	a5,2
   14bc2:	0b27c663          	blt	a5,s2,14c6e <__gdtoa+0xf78>
   14bc6:	77e6                	ld	a5,120(sp)
   14bc8:	f43e                	sd	a5,40(sp)
   14bca:	cb2ff06f          	j	1407c <__gdtoa+0x386>
   14bce:	0013859b          	addiw	a1,t2,1
   14bd2:	841ff06f          	j	14412 <__gdtoa+0x71c>
   14bd6:	f2000753          	fmv.d.x	fa4,zero
   14bda:	00138913          	addi	s2,t2,1
   14bde:	a2e7a9d3          	feq.d	s3,fa5,fa4
   14be2:	0019b993          	seqz	s3,s3
   14be6:	0992                	slli	s3,s3,0x4
   14be8:	ba15                	j	1451c <__gdtoa+0x826>
   14bea:	f002                	sd	zero,32(sp)
   14bec:	b76ff06f          	j	13f62 <__gdtoa+0x26c>
   14bf0:	86f6                	mv	a3,t4
   14bf2:	ee0654e3          	bgez	a2,14ada <__gdtoa+0xde4>
   14bf6:	f002                	sd	zero,32(sp)
   14bf8:	b70ff06f          	j	13f68 <__gdtoa+0x272>
   14bfc:	7722                	ld	a4,40(sp)
   14bfe:	7642                	ld	a2,48(sp)
   14c00:	fff7069b          	addiw	a3,a4,-1
   14c04:	8d36                	mv	s10,a3
   14c06:	bed642e3          	blt	a2,a3,147ea <__gdtoa+0xaf4>
   14c0a:	66e2                	ld	a3,24(sp)
   14c0c:	01c70e3b          	addw	t3,a4,t3
   14c10:	c73a                	sw	a4,140(sp)
   14c12:	9f35                	addw	a4,a4,a3
   14c14:	8cb6                	mv	s9,a3
   14c16:	41a60d3b          	subw	s10,a2,s10
   14c1a:	ec3a                	sd	a4,24(sp)
   14c1c:	b9aff06f          	j	13fb6 <__gdtoa+0x2c0>
   14c20:	ec26                	sd	s1,24(sp)
   14c22:	03900693          	li	a3,57
   14c26:	8352                	mv	t1,s4
   14c28:	7842                	ld	a6,48(sp)
   14c2a:	7a22                	ld	s4,40(sp)
   14c2c:	6486                	ld	s1,64(sp)
   14c2e:	c8d985e3          	beq	s3,a3,148b8 <__gdtoa+0xbc2>
   14c32:	09605f63          	blez	s6,14cd0 <__gdtoa+0xfda>
   14c36:	031c831b          	addiw	t1,s9,49
   14c3a:	02000993          	li	s3,32
   14c3e:	006b8023          	sb	t1,0(s7)
   14c42:	8b56                	mv	s6,s5
   14c44:	001b8c93          	addi	s9,s7,1
   14c48:	6ae2                	ld	s5,24(sp)
   14c4a:	ba41                	j	145da <__gdtoa+0x8e4>
   14c4c:	f20007d3          	fmv.d.x	fa5,zero
   14c50:	87e6                	mv	a5,s9
   14c52:	0013859b          	addiw	a1,t2,1
   14c56:	a2f5a9d3          	feq.d	s3,fa1,fa5
   14c5a:	0019b993          	seqz	s3,s3
   14c5e:	0992                	slli	s3,s3,0x4
   14c60:	b3c5                	j	14a40 <__gdtoa+0xd4a>
   14c62:	018c2683          	lw	a3,24(s8)
   14c66:	960696e3          	bnez	a3,145d2 <__gdtoa+0x8dc>
   14c6a:	7982                	ld	s3,32(sp)
   14c6c:	b29d                	j	145d2 <__gdtoa+0x8dc>
   14c6e:	77e6                	ld	a5,120(sp)
   14c70:	f43e                	sd	a5,40(sp)
   14c72:	bc51                	j	14706 <__gdtoa+0xa10>
   14c74:	e509                	bnez	a0,14c7e <__gdtoa+0xf88>
   14c76:	00137693          	andi	a3,t1,1
   14c7a:	d80699e3          	bnez	a3,14a0c <__gdtoa+0xd16>
   14c7e:	02000793          	li	a5,32
   14c82:	f03e                	sd	a5,32(sp)
   14c84:	ba3d                	j	145c2 <__gdtoa+0x8cc>
   14c86:	7d42                	ld	s10,48(sp)
   14c88:	6ce2                	ld	s9,24(sp)
   14c8a:	f002                	sd	zero,32(sp)
   14c8c:	4a81                	li	s5,0
   14c8e:	b46ff06f          	j	13fd4 <__gdtoa+0x2de>
   14c92:	ec5a                	sd	s6,24(sp)
   14c94:	03900693          	li	a3,57
   14c98:	886e                	mv	a6,s11
   14c9a:	00d98b63          	beq	s3,a3,14cb0 <__gdtoa+0xfba>
   14c9e:	0019831b          	addiw	t1,s3,1
   14ca2:	02000993          	li	s3,32
   14ca6:	b235                	j	145d2 <__gdtoa+0x8dc>
   14ca8:	49c1                	li	s3,16
   14caa:	001b8c93          	addi	s9,s7,1
   14cae:	b215                	j	145d2 <__gdtoa+0x8dc>
   14cb0:	8b56                	mv	s6,s5
   14cb2:	86de                	mv	a3,s7
   14cb4:	6ae2                	ld	s5,24(sp)
   14cb6:	b131                	j	148c2 <__gdtoa+0xbcc>
   14cb8:	014c2603          	lw	a2,20(s8)
   14cbc:	4685                	li	a3,1
   14cbe:	ccc6c463          	blt	a3,a2,14186 <__gdtoa+0x490>
   14cc2:	018c2683          	lw	a3,24(s8)
   14cc6:	cc069063          	bnez	a3,14186 <__gdtoa+0x490>
   14cca:	001b8c93          	addi	s9,s7,1
   14cce:	b211                	j	145d2 <__gdtoa+0x8dc>
   14cd0:	014c2603          	lw	a2,20(s8)
   14cd4:	4685                	li	a3,1
   14cd6:	49c1                	li	s3,16
   14cd8:	f6c6c3e3          	blt	a3,a2,14c3e <__gdtoa+0xf48>
   14cdc:	018c2983          	lw	s3,24(s8)
   14ce0:	013039b3          	snez	s3,s3
   14ce4:	0992                	slli	s3,s3,0x4
   14ce6:	bfa1                	j	14c3e <__gdtoa+0xf48>
   14ce8:	000b4e63          	bltz	s6,14d04 <__gdtoa+0x100e>
   14cec:	016967b3          	or	a5,s2,s6
   14cf0:	2781                	sext.w	a5,a5
   14cf2:	e789                	bnez	a5,14cfc <__gdtoa+0x1006>
   14cf4:	67c2                	ld	a5,16(sp)
   14cf6:	439c                	lw	a5,0(a5)
   14cf8:	8b85                	andi	a5,a5,1
   14cfa:	c789                	beqz	a5,14d04 <__gdtoa+0x100e>
   14cfc:	bcd05363          	blez	a3,140c2 <__gdtoa+0x3cc>
   14d00:	bbaff06f          	j	140ba <__gdtoa+0x3c4>
   14d04:	7782                	ld	a5,32(sp)
   14d06:	ec26                	sd	s1,24(sp)
   14d08:	8352                	mv	t1,s4
   14d0a:	7842                	ld	a6,48(sp)
   14d0c:	7a22                	ld	s4,40(sp)
   14d0e:	6486                	ld	s1,64(sp)
   14d10:	c385                	beqz	a5,14d30 <__gdtoa+0x103a>
   14d12:	014c2583          	lw	a1,20(s8)
   14d16:	4605                	li	a2,1
   14d18:	c6b64763          	blt	a2,a1,14186 <__gdtoa+0x490>
   14d1c:	018c2603          	lw	a2,24(s8)
   14d20:	c6061363          	bnez	a2,14186 <__gdtoa+0x490>
   14d24:	ccd043e3          	bgtz	a3,149ea <__gdtoa+0xcf4>
   14d28:	4981                	li	s3,0
   14d2a:	001b8c93          	addi	s9,s7,1
   14d2e:	b055                	j	145d2 <__gdtoa+0x8dc>
   14d30:	88d059e3          	blez	a3,145c2 <__gdtoa+0x8cc>
   14d34:	b95d                	j	149ea <__gdtoa+0xcf4>

0000000000014d36 <__rv_alloc_D2A.part.0>:
   14d36:	66e5                	lui	a3,0x19
   14d38:	6565                	lui	a0,0x19
   14d3a:	1141                	addi	sp,sp,-16
   14d3c:	a9868693          	addi	a3,a3,-1384 # 18a98 <__clzdi2+0xc2>
   14d40:	4601                	li	a2,0
   14d42:	03900593          	li	a1,57
   14d46:	ab050513          	addi	a0,a0,-1360 # 18ab0 <__clzdi2+0xda>
   14d4a:	e406                	sd	ra,8(sp)
   14d4c:	76e010ef          	jal	164ba <__assert_func>

0000000000014d50 <__rv_alloc_D2A>:
   14d50:	1141                	addi	sp,sp,-16
   14d52:	e022                	sd	s0,0(sp)
   14d54:	e406                	sd	ra,8(sp)
   14d56:	46fd                	li	a3,31
   14d58:	842a                	mv	s0,a0
   14d5a:	4705                	li	a4,1
   14d5c:	4791                	li	a5,4
   14d5e:	02b6f763          	bgeu	a3,a1,14d8c <__rv_alloc_D2A+0x3c>
   14d62:	0017979b          	slliw	a5,a5,0x1
   14d66:	01c78693          	addi	a3,a5,28
   14d6a:	0007061b          	sext.w	a2,a4
   14d6e:	2705                	addiw	a4,a4,1
   14d70:	fed5f9e3          	bgeu	a1,a3,14d62 <__rv_alloc_D2A+0x12>
   14d74:	0006059b          	sext.w	a1,a2
   14d78:	cc2c                	sw	a1,88(s0)
   14d7a:	8522                	mv	a0,s0
   14d7c:	2f8000ef          	jal	15074 <_Balloc>
   14d80:	c911                	beqz	a0,14d94 <__rv_alloc_D2A+0x44>
   14d82:	60a2                	ld	ra,8(sp)
   14d84:	e828                	sd	a0,80(s0)
   14d86:	6402                	ld	s0,0(sp)
   14d88:	0141                	addi	sp,sp,16
   14d8a:	8082                	ret
   14d8c:	04052c23          	sw	zero,88(a0)
   14d90:	4581                	li	a1,0
   14d92:	b7e5                	j	14d7a <__rv_alloc_D2A+0x2a>
   14d94:	fa3ff0ef          	jal	14d36 <__rv_alloc_D2A.part.0>

0000000000014d98 <__nrv_alloc_D2A>:
   14d98:	1101                	addi	sp,sp,-32
   14d9a:	e822                	sd	s0,16(sp)
   14d9c:	e426                	sd	s1,8(sp)
   14d9e:	e04a                	sd	s2,0(sp)
   14da0:	ec06                	sd	ra,24(sp)
   14da2:	487d                	li	a6,31
   14da4:	84aa                	mv	s1,a0
   14da6:	842e                	mv	s0,a1
   14da8:	8932                	mv	s2,a2
   14daa:	4705                	li	a4,1
   14dac:	4791                	li	a5,4
   14dae:	04d87b63          	bgeu	a6,a3,14e04 <__nrv_alloc_D2A+0x6c>
   14db2:	0017979b          	slliw	a5,a5,0x1
   14db6:	01c78813          	addi	a6,a5,28
   14dba:	0007059b          	sext.w	a1,a4
   14dbe:	2705                	addiw	a4,a4,1
   14dc0:	ff06f9e3          	bgeu	a3,a6,14db2 <__nrv_alloc_D2A+0x1a>
   14dc4:	2581                	sext.w	a1,a1
   14dc6:	ccac                	sw	a1,88(s1)
   14dc8:	8526                	mv	a0,s1
   14dca:	2aa000ef          	jal	15074 <_Balloc>
   14dce:	c129                	beqz	a0,14e10 <__nrv_alloc_D2A+0x78>
   14dd0:	e8a8                	sd	a0,80(s1)
   14dd2:	00044783          	lbu	a5,0(s0) # 1fff000 <__BSS_END__+0x1fe3c58>
   14dd6:	00140593          	addi	a1,s0,1
   14dda:	00f50023          	sb	a5,0(a0)
   14dde:	c79d                	beqz	a5,14e0c <__nrv_alloc_D2A+0x74>
   14de0:	87aa                	mv	a5,a0
   14de2:	0005c703          	lbu	a4,0(a1)
   14de6:	0785                	addi	a5,a5,1
   14de8:	0585                	addi	a1,a1,1
   14dea:	00e78023          	sb	a4,0(a5)
   14dee:	fb75                	bnez	a4,14de2 <__nrv_alloc_D2A+0x4a>
   14df0:	00090463          	beqz	s2,14df8 <__nrv_alloc_D2A+0x60>
   14df4:	00f93023          	sd	a5,0(s2)
   14df8:	60e2                	ld	ra,24(sp)
   14dfa:	6442                	ld	s0,16(sp)
   14dfc:	64a2                	ld	s1,8(sp)
   14dfe:	6902                	ld	s2,0(sp)
   14e00:	6105                	addi	sp,sp,32
   14e02:	8082                	ret
   14e04:	04052c23          	sw	zero,88(a0)
   14e08:	4581                	li	a1,0
   14e0a:	bf7d                	j	14dc8 <__nrv_alloc_D2A+0x30>
   14e0c:	87aa                	mv	a5,a0
   14e0e:	b7cd                	j	14df0 <__nrv_alloc_D2A+0x58>
   14e10:	f27ff0ef          	jal	14d36 <__rv_alloc_D2A.part.0>

0000000000014e14 <__freedtoa>:
   14e14:	4d3c                	lw	a5,88(a0)
   14e16:	4705                	li	a4,1
   14e18:	00f7173b          	sllw	a4,a4,a5
   14e1c:	1782                	slli	a5,a5,0x20
   14e1e:	1702                	slli	a4,a4,0x20
   14e20:	9381                	srli	a5,a5,0x20
   14e22:	8fd9                	or	a5,a5,a4
   14e24:	e59c                	sd	a5,8(a1)
   14e26:	ac4d                	j	150d8 <_Bfree>

0000000000014e28 <__quorem_D2A>:
   14e28:	7139                	addi	sp,sp,-64
   14e2a:	f426                	sd	s1,40(sp)
   14e2c:	495c                	lw	a5,20(a0)
   14e2e:	49c4                	lw	s1,20(a1)
   14e30:	fc06                	sd	ra,56(sp)
   14e32:	1497ce63          	blt	a5,s1,14f8e <__quorem_D2A+0x166>
   14e36:	34fd                	addiw	s1,s1,-1
   14e38:	00249313          	slli	t1,s1,0x2
   14e3c:	f822                	sd	s0,48(sp)
   14e3e:	01858413          	addi	s0,a1,24
   14e42:	f04a                	sd	s2,32(sp)
   14e44:	ec4e                	sd	s3,24(sp)
   14e46:	00640933          	add	s2,s0,t1
   14e4a:	01850993          	addi	s3,a0,24
   14e4e:	e456                	sd	s5,8(sp)
   14e50:	934e                	add	t1,t1,s3
   14e52:	00092a83          	lw	s5,0(s2)
   14e56:	00032783          	lw	a5,0(t1)
   14e5a:	e05a                	sd	s6,0(sp)
   14e5c:	001a871b          	addiw	a4,s5,1
   14e60:	02e7db3b          	divuw	s6,a5,a4
   14e64:	e852                	sd	s4,16(sp)
   14e66:	8a2a                	mv	s4,a0
   14e68:	8ada                	mv	s5,s6
   14e6a:	08e7ea63          	bltu	a5,a4,14efe <__quorem_D2A+0xd6>
   14e6e:	6841                	lui	a6,0x10
   14e70:	8522                	mv	a0,s0
   14e72:	88ce                	mv	a7,s3
   14e74:	4f01                	li	t5,0
   14e76:	4e81                	li	t4,0
   14e78:	187d                	addi	a6,a6,-1 # ffff <exit-0xe9>
   14e7a:	4118                	lw	a4,0(a0)
   14e7c:	0008a603          	lw	a2,0(a7)
   14e80:	0891                	addi	a7,a7,4
   14e82:	010776b3          	and	a3,a4,a6
   14e86:	036686bb          	mulw	a3,a3,s6
   14e8a:	0107571b          	srliw	a4,a4,0x10
   14e8e:	010677b3          	and	a5,a2,a6
   14e92:	01065e1b          	srliw	t3,a2,0x10
   14e96:	0511                	addi	a0,a0,4
   14e98:	0367073b          	mulw	a4,a4,s6
   14e9c:	01e686bb          	addw	a3,a3,t5
   14ea0:	00d87633          	and	a2,a6,a3
   14ea4:	9f91                	subw	a5,a5,a2
   14ea6:	41d787bb          	subw	a5,a5,t4
   14eaa:	0106d69b          	srliw	a3,a3,0x10
   14eae:	0107d61b          	srliw	a2,a5,0x10
   14eb2:	8a05                	andi	a2,a2,1
   14eb4:	00f877b3          	and	a5,a6,a5
   14eb8:	9f35                	addw	a4,a4,a3
   14eba:	00e876b3          	and	a3,a6,a4
   14ebe:	9e35                	addw	a2,a2,a3
   14ec0:	40ce06bb          	subw	a3,t3,a2
   14ec4:	0106961b          	slliw	a2,a3,0x10
   14ec8:	8fd1                	or	a5,a5,a2
   14eca:	0106d69b          	srliw	a3,a3,0x10
   14ece:	fef8ae23          	sw	a5,-4(a7)
   14ed2:	01075f1b          	srliw	t5,a4,0x10
   14ed6:	0016fe93          	andi	t4,a3,1
   14eda:	faa970e3          	bgeu	s2,a0,14e7a <__quorem_D2A+0x52>
   14ede:	00032783          	lw	a5,0(t1)
   14ee2:	ef91                	bnez	a5,14efe <__quorem_D2A+0xd6>
   14ee4:	1371                	addi	t1,t1,-4
   14ee6:	0069e663          	bltu	s3,t1,14ef2 <__quorem_D2A+0xca>
   14eea:	a801                	j	14efa <__quorem_D2A+0xd2>
   14eec:	34fd                	addiw	s1,s1,-1
   14eee:	0069f663          	bgeu	s3,t1,14efa <__quorem_D2A+0xd2>
   14ef2:	00032783          	lw	a5,0(t1)
   14ef6:	1371                	addi	t1,t1,-4
   14ef8:	dbf5                	beqz	a5,14eec <__quorem_D2A+0xc4>
   14efa:	009a2a23          	sw	s1,20(s4)
   14efe:	8552                	mv	a0,s4
   14f00:	0b5000ef          	jal	157b4 <__mcmp>
   14f04:	06054963          	bltz	a0,14f76 <__quorem_D2A+0x14e>
   14f08:	6541                	lui	a0,0x10
   14f0a:	864e                	mv	a2,s3
   14f0c:	4581                	li	a1,0
   14f0e:	157d                	addi	a0,a0,-1 # ffff <exit-0xe9>
   14f10:	4218                	lw	a4,0(a2)
   14f12:	4014                	lw	a3,0(s0)
   14f14:	0611                	addi	a2,a2,4
   14f16:	00a777b3          	and	a5,a4,a0
   14f1a:	00a6f833          	and	a6,a3,a0
   14f1e:	410787bb          	subw	a5,a5,a6
   14f22:	9f8d                	subw	a5,a5,a1
   14f24:	0107d59b          	srliw	a1,a5,0x10
   14f28:	8985                	andi	a1,a1,1
   14f2a:	0106d69b          	srliw	a3,a3,0x10
   14f2e:	9ead                	addw	a3,a3,a1
   14f30:	0107571b          	srliw	a4,a4,0x10
   14f34:	9f15                	subw	a4,a4,a3
   14f36:	0107169b          	slliw	a3,a4,0x10
   14f3a:	8fe9                	and	a5,a5,a0
   14f3c:	8fd5                	or	a5,a5,a3
   14f3e:	0107571b          	srliw	a4,a4,0x10
   14f42:	0411                	addi	s0,s0,4
   14f44:	fef62e23          	sw	a5,-4(a2)
   14f48:	00177593          	andi	a1,a4,1
   14f4c:	fc8972e3          	bgeu	s2,s0,14f10 <__quorem_D2A+0xe8>
   14f50:	00249793          	slli	a5,s1,0x2
   14f54:	97ce                	add	a5,a5,s3
   14f56:	4398                	lw	a4,0(a5)
   14f58:	ef09                	bnez	a4,14f72 <__quorem_D2A+0x14a>
   14f5a:	17f1                	addi	a5,a5,-4
   14f5c:	00f9e663          	bltu	s3,a5,14f68 <__quorem_D2A+0x140>
   14f60:	a039                	j	14f6e <__quorem_D2A+0x146>
   14f62:	34fd                	addiw	s1,s1,-1
   14f64:	00f9f563          	bgeu	s3,a5,14f6e <__quorem_D2A+0x146>
   14f68:	4398                	lw	a4,0(a5)
   14f6a:	17f1                	addi	a5,a5,-4
   14f6c:	db7d                	beqz	a4,14f62 <__quorem_D2A+0x13a>
   14f6e:	009a2a23          	sw	s1,20(s4)
   14f72:	001a8b1b          	addiw	s6,s5,1
   14f76:	7442                	ld	s0,48(sp)
   14f78:	70e2                	ld	ra,56(sp)
   14f7a:	7902                	ld	s2,32(sp)
   14f7c:	69e2                	ld	s3,24(sp)
   14f7e:	6a42                	ld	s4,16(sp)
   14f80:	6aa2                	ld	s5,8(sp)
   14f82:	74a2                	ld	s1,40(sp)
   14f84:	000b051b          	sext.w	a0,s6
   14f88:	6b02                	ld	s6,0(sp)
   14f8a:	6121                	addi	sp,sp,64
   14f8c:	8082                	ret
   14f8e:	70e2                	ld	ra,56(sp)
   14f90:	74a2                	ld	s1,40(sp)
   14f92:	4501                	li	a0,0
   14f94:	6121                	addi	sp,sp,64
   14f96:	8082                	ret

0000000000014f98 <__rshift_D2A>:
   14f98:	4958                	lw	a4,20(a0)
   14f9a:	4055de13          	srai	t3,a1,0x5
   14f9e:	00ee4763          	blt	t3,a4,14fac <__rshift_D2A+0x14>
   14fa2:	00052a23          	sw	zero,20(a0)
   14fa6:	00052c23          	sw	zero,24(a0)
   14faa:	8082                	ret
   14fac:	01850313          	addi	t1,a0,24
   14fb0:	00271813          	slli	a6,a4,0x2
   14fb4:	002e1793          	slli	a5,t3,0x2
   14fb8:	89fd                	andi	a1,a1,31
   14fba:	981a                	add	a6,a6,t1
   14fbc:	979a                	add	a5,a5,t1
   14fbe:	c1b9                	beqz	a1,15004 <__rshift_D2A+0x6c>
   14fc0:	4390                	lw	a2,0(a5)
   14fc2:	02000e93          	li	t4,32
   14fc6:	0791                	addi	a5,a5,4
   14fc8:	00b656bb          	srlw	a3,a2,a1
   14fcc:	40be8ebb          	subw	t4,t4,a1
   14fd0:	0507ff63          	bgeu	a5,a6,1502e <__rshift_D2A+0x96>
   14fd4:	889a                	mv	a7,t1
   14fd6:	4390                	lw	a2,0(a5)
   14fd8:	0891                	addi	a7,a7,4
   14fda:	0791                	addi	a5,a5,4
   14fdc:	01d6163b          	sllw	a2,a2,t4
   14fe0:	8ed1                	or	a3,a3,a2
   14fe2:	fed8ae23          	sw	a3,-4(a7)
   14fe6:	ffc7a603          	lw	a2,-4(a5)
   14fea:	00b656bb          	srlw	a3,a2,a1
   14fee:	ff07e4e3          	bltu	a5,a6,14fd6 <__rshift_D2A+0x3e>
   14ff2:	41c70733          	sub	a4,a4,t3
   14ff6:	070a                	slli	a4,a4,0x2
   14ff8:	1771                	addi	a4,a4,-4
   14ffa:	971a                	add	a4,a4,t1
   14ffc:	c314                	sw	a3,0(a4)
   14ffe:	c28d                	beqz	a3,15020 <__rshift_D2A+0x88>
   15000:	0711                	addi	a4,a4,4
   15002:	a839                	j	15020 <__rshift_D2A+0x88>
   15004:	869a                	mv	a3,t1
   15006:	f907fee3          	bgeu	a5,a6,14fa2 <__rshift_D2A+0xa>
   1500a:	4390                	lw	a2,0(a5)
   1500c:	0791                	addi	a5,a5,4
   1500e:	0691                	addi	a3,a3,4
   15010:	fec6ae23          	sw	a2,-4(a3)
   15014:	ff07ebe3          	bltu	a5,a6,1500a <__rshift_D2A+0x72>
   15018:	41c70733          	sub	a4,a4,t3
   1501c:	070a                	slli	a4,a4,0x2
   1501e:	971a                	add	a4,a4,t1
   15020:	40670733          	sub	a4,a4,t1
   15024:	8709                	srai	a4,a4,0x2
   15026:	2701                	sext.w	a4,a4
   15028:	c958                	sw	a4,20(a0)
   1502a:	df35                	beqz	a4,14fa6 <__rshift_D2A+0xe>
   1502c:	8082                	ret
   1502e:	cd14                	sw	a3,24(a0)
   15030:	daad                	beqz	a3,14fa2 <__rshift_D2A+0xa>
   15032:	871a                	mv	a4,t1
   15034:	0711                	addi	a4,a4,4
   15036:	b7ed                	j	15020 <__rshift_D2A+0x88>

0000000000015038 <__trailz_D2A>:
   15038:	4958                	lw	a4,20(a0)
   1503a:	1101                	addi	sp,sp,-32
   1503c:	0561                	addi	a0,a0,24
   1503e:	070a                	slli	a4,a4,0x2
   15040:	e822                	sd	s0,16(sp)
   15042:	ec06                	sd	ra,24(sp)
   15044:	972a                	add	a4,a4,a0
   15046:	4401                	li	s0,0
   15048:	00e56863          	bltu	a0,a4,15058 <__trailz_D2A+0x20>
   1504c:	a839                	j	1506a <__trailz_D2A+0x32>
   1504e:	0511                	addi	a0,a0,4
   15050:	0204041b          	addiw	s0,s0,32
   15054:	00e57b63          	bgeu	a0,a4,1506a <__trailz_D2A+0x32>
   15058:	411c                	lw	a5,0(a0)
   1505a:	dbf5                	beqz	a5,1504e <__trailz_D2A+0x16>
   1505c:	00e57763          	bgeu	a0,a4,1506a <__trailz_D2A+0x32>
   15060:	0068                	addi	a0,sp,12
   15062:	c63e                	sw	a5,12(sp)
   15064:	2b0000ef          	jal	15314 <__lo0bits>
   15068:	9c29                	addw	s0,s0,a0
   1506a:	60e2                	ld	ra,24(sp)
   1506c:	8522                	mv	a0,s0
   1506e:	6442                	ld	s0,16(sp)
   15070:	6105                	addi	sp,sp,32
   15072:	8082                	ret

0000000000015074 <_Balloc>:
   15074:	753c                	ld	a5,104(a0)
   15076:	1101                	addi	sp,sp,-32
   15078:	e822                	sd	s0,16(sp)
   1507a:	e426                	sd	s1,8(sp)
   1507c:	ec06                	sd	ra,24(sp)
   1507e:	84aa                	mv	s1,a0
   15080:	842e                	mv	s0,a1
   15082:	cf99                	beqz	a5,150a0 <_Balloc+0x2c>
   15084:	00341713          	slli	a4,s0,0x3
   15088:	97ba                	add	a5,a5,a4
   1508a:	6388                	ld	a0,0(a5)
   1508c:	c505                	beqz	a0,150b4 <_Balloc+0x40>
   1508e:	6118                	ld	a4,0(a0)
   15090:	e398                	sd	a4,0(a5)
   15092:	00053823          	sd	zero,16(a0)
   15096:	60e2                	ld	ra,24(sp)
   15098:	6442                	ld	s0,16(sp)
   1509a:	64a2                	ld	s1,8(sp)
   1509c:	6105                	addi	sp,sp,32
   1509e:	8082                	ret
   150a0:	04100613          	li	a2,65
   150a4:	45a1                	li	a1,8
   150a6:	45c010ef          	jal	16502 <_calloc_r>
   150aa:	f4a8                	sd	a0,104(s1)
   150ac:	87aa                	mv	a5,a0
   150ae:	f979                	bnez	a0,15084 <_Balloc+0x10>
   150b0:	4501                	li	a0,0
   150b2:	b7d5                	j	15096 <_Balloc+0x22>
   150b4:	4785                	li	a5,1
   150b6:	008797bb          	sllw	a5,a5,s0
   150ba:	0007861b          	sext.w	a2,a5
   150be:	061d                	addi	a2,a2,7
   150c0:	1402                	slli	s0,s0,0x20
   150c2:	1782                	slli	a5,a5,0x20
   150c4:	9001                	srli	s0,s0,0x20
   150c6:	060a                	slli	a2,a2,0x2
   150c8:	4585                	li	a1,1
   150ca:	8526                	mv	a0,s1
   150cc:	8c5d                	or	s0,s0,a5
   150ce:	434010ef          	jal	16502 <_calloc_r>
   150d2:	dd79                	beqz	a0,150b0 <_Balloc+0x3c>
   150d4:	e500                	sd	s0,8(a0)
   150d6:	bf75                	j	15092 <_Balloc+0x1e>

00000000000150d8 <_Bfree>:
   150d8:	c981                	beqz	a1,150e8 <_Bfree+0x10>
   150da:	4598                	lw	a4,8(a1)
   150dc:	753c                	ld	a5,104(a0)
   150de:	070e                	slli	a4,a4,0x3
   150e0:	97ba                	add	a5,a5,a4
   150e2:	6398                	ld	a4,0(a5)
   150e4:	e198                	sd	a4,0(a1)
   150e6:	e38c                	sd	a1,0(a5)
   150e8:	8082                	ret

00000000000150ea <__multadd>:
   150ea:	7179                	addi	sp,sp,-48
   150ec:	f022                	sd	s0,32(sp)
   150ee:	49c0                	lw	s0,20(a1)
   150f0:	6341                	lui	t1,0x10
   150f2:	e84a                	sd	s2,16(sp)
   150f4:	e44e                	sd	s3,8(sp)
   150f6:	f406                	sd	ra,40(sp)
   150f8:	ec26                	sd	s1,24(sp)
   150fa:	892e                	mv	s2,a1
   150fc:	89aa                	mv	s3,a0
   150fe:	01858813          	addi	a6,a1,24
   15102:	4881                	li	a7,0
   15104:	137d                	addi	t1,t1,-1 # ffff <exit-0xe9>
   15106:	00082783          	lw	a5,0(a6)
   1510a:	0811                	addi	a6,a6,4
   1510c:	2885                	addiw	a7,a7,1
   1510e:	0067f733          	and	a4,a5,t1
   15112:	02c7073b          	mulw	a4,a4,a2
   15116:	0107d79b          	srliw	a5,a5,0x10
   1511a:	02c787bb          	mulw	a5,a5,a2
   1511e:	9f35                	addw	a4,a4,a3
   15120:	0107569b          	srliw	a3,a4,0x10
   15124:	00e37733          	and	a4,t1,a4
   15128:	9fb5                	addw	a5,a5,a3
   1512a:	0107969b          	slliw	a3,a5,0x10
   1512e:	9f35                	addw	a4,a4,a3
   15130:	fee82e23          	sw	a4,-4(a6)
   15134:	0107d49b          	srliw	s1,a5,0x10
   15138:	0107d69b          	srliw	a3,a5,0x10
   1513c:	fc88c5e3          	blt	a7,s0,15106 <__multadd+0x1c>
   15140:	ce89                	beqz	a3,1515a <__multadd+0x70>
   15142:	00c92783          	lw	a5,12(s2)
   15146:	02f45263          	bge	s0,a5,1516a <__multadd+0x80>
   1514a:	00440793          	addi	a5,s0,4
   1514e:	078a                	slli	a5,a5,0x2
   15150:	97ca                	add	a5,a5,s2
   15152:	c784                	sw	s1,8(a5)
   15154:	2405                	addiw	s0,s0,1
   15156:	00892a23          	sw	s0,20(s2)
   1515a:	70a2                	ld	ra,40(sp)
   1515c:	7402                	ld	s0,32(sp)
   1515e:	64e2                	ld	s1,24(sp)
   15160:	69a2                	ld	s3,8(sp)
   15162:	854a                	mv	a0,s2
   15164:	6942                	ld	s2,16(sp)
   15166:	6145                	addi	sp,sp,48
   15168:	8082                	ret
   1516a:	00892583          	lw	a1,8(s2)
   1516e:	854e                	mv	a0,s3
   15170:	e052                	sd	s4,0(sp)
   15172:	2585                	addiw	a1,a1,1
   15174:	f01ff0ef          	jal	15074 <_Balloc>
   15178:	8a2a                	mv	s4,a0
   1517a:	c121                	beqz	a0,151ba <__multadd+0xd0>
   1517c:	01492603          	lw	a2,20(s2)
   15180:	01090593          	addi	a1,s2,16
   15184:	0541                	addi	a0,a0,16
   15186:	0609                	addi	a2,a2,2
   15188:	060a                	slli	a2,a2,0x2
   1518a:	e8cfe0ef          	jal	13816 <memcpy>
   1518e:	00892703          	lw	a4,8(s2)
   15192:	0689b783          	ld	a5,104(s3)
   15196:	070e                	slli	a4,a4,0x3
   15198:	97ba                	add	a5,a5,a4
   1519a:	6398                	ld	a4,0(a5)
   1519c:	00e93023          	sd	a4,0(s2)
   151a0:	0127b023          	sd	s2,0(a5)
   151a4:	00440793          	addi	a5,s0,4
   151a8:	8952                	mv	s2,s4
   151aa:	078a                	slli	a5,a5,0x2
   151ac:	97ca                	add	a5,a5,s2
   151ae:	6a02                	ld	s4,0(sp)
   151b0:	2405                	addiw	s0,s0,1
   151b2:	c784                	sw	s1,8(a5)
   151b4:	00892a23          	sw	s0,20(s2)
   151b8:	b74d                	j	1515a <__multadd+0x70>
   151ba:	66e5                	lui	a3,0x19
   151bc:	6565                	lui	a0,0x19
   151be:	a9868693          	addi	a3,a3,-1384 # 18a98 <__clzdi2+0xc2>
   151c2:	4601                	li	a2,0
   151c4:	0ba00593          	li	a1,186
   151c8:	b0050513          	addi	a0,a0,-1280 # 18b00 <__clzdi2+0x12a>
   151cc:	2ee010ef          	jal	164ba <__assert_func>

00000000000151d0 <__s2b>:
   151d0:	7139                	addi	sp,sp,-64
   151d2:	f822                	sd	s0,48(sp)
   151d4:	f426                	sd	s1,40(sp)
   151d6:	f04a                	sd	s2,32(sp)
   151d8:	ec4e                	sd	s3,24(sp)
   151da:	e852                	sd	s4,16(sp)
   151dc:	84b6                	mv	s1,a3
   151de:	842e                	mv	s0,a1
   151e0:	26a1                	addiw	a3,a3,8
   151e2:	45a5                	li	a1,9
   151e4:	fc06                	sd	ra,56(sp)
   151e6:	47a5                	li	a5,9
   151e8:	02b6c6bb          	divw	a3,a3,a1
   151ec:	892a                	mv	s2,a0
   151ee:	8a32                	mv	s4,a2
   151f0:	89ba                	mv	s3,a4
   151f2:	0a97d363          	bge	a5,s1,15298 <__s2b+0xc8>
   151f6:	4785                	li	a5,1
   151f8:	4581                	li	a1,0
   151fa:	0017979b          	slliw	a5,a5,0x1
   151fe:	2585                	addiw	a1,a1,1
   15200:	fed7cde3          	blt	a5,a3,151fa <__s2b+0x2a>
   15204:	854a                	mv	a0,s2
   15206:	e6fff0ef          	jal	15074 <_Balloc>
   1520a:	85aa                	mv	a1,a0
   1520c:	c941                	beqz	a0,1529c <__s2b+0xcc>
   1520e:	4785                	li	a5,1
   15210:	c95c                	sw	a5,20(a0)
   15212:	01352c23          	sw	s3,24(a0)
   15216:	47a5                	li	a5,9
   15218:	0747dd63          	bge	a5,s4,15292 <__s2b+0xc2>
   1521c:	020a1793          	slli	a5,s4,0x20
   15220:	e05a                	sd	s6,0(sp)
   15222:	9381                	srli	a5,a5,0x20
   15224:	00940b13          	addi	s6,s0,9
   15228:	e456                	sd	s5,8(sp)
   1522a:	943e                	add	s0,s0,a5
   1522c:	000a0a9b          	sext.w	s5,s4
   15230:	89da                	mv	s3,s6
   15232:	0009c683          	lbu	a3,0(s3)
   15236:	4629                	li	a2,10
   15238:	854a                	mv	a0,s2
   1523a:	fd06869b          	addiw	a3,a3,-48
   1523e:	eadff0ef          	jal	150ea <__multadd>
   15242:	0985                	addi	s3,s3,1
   15244:	85aa                	mv	a1,a0
   15246:	fe8996e3          	bne	s3,s0,15232 <__s2b+0x62>
   1524a:	3ae1                	addiw	s5,s5,-8
   1524c:	1a82                	slli	s5,s5,0x20
   1524e:	020ada93          	srli	s5,s5,0x20
   15252:	015b0433          	add	s0,s6,s5
   15256:	6aa2                	ld	s5,8(sp)
   15258:	6b02                	ld	s6,0(sp)
   1525a:	029a5363          	bge	s4,s1,15280 <__s2b+0xb0>
   1525e:	414484bb          	subw	s1,s1,s4
   15262:	1482                	slli	s1,s1,0x20
   15264:	9081                	srli	s1,s1,0x20
   15266:	94a2                	add	s1,s1,s0
   15268:	00044683          	lbu	a3,0(s0)
   1526c:	4629                	li	a2,10
   1526e:	854a                	mv	a0,s2
   15270:	fd06869b          	addiw	a3,a3,-48
   15274:	e77ff0ef          	jal	150ea <__multadd>
   15278:	0405                	addi	s0,s0,1
   1527a:	85aa                	mv	a1,a0
   1527c:	fe9416e3          	bne	s0,s1,15268 <__s2b+0x98>
   15280:	70e2                	ld	ra,56(sp)
   15282:	7442                	ld	s0,48(sp)
   15284:	74a2                	ld	s1,40(sp)
   15286:	7902                	ld	s2,32(sp)
   15288:	69e2                	ld	s3,24(sp)
   1528a:	6a42                	ld	s4,16(sp)
   1528c:	852e                	mv	a0,a1
   1528e:	6121                	addi	sp,sp,64
   15290:	8082                	ret
   15292:	0429                	addi	s0,s0,10
   15294:	4a25                	li	s4,9
   15296:	b7d1                	j	1525a <__s2b+0x8a>
   15298:	4581                	li	a1,0
   1529a:	b7ad                	j	15204 <__s2b+0x34>
   1529c:	66e5                	lui	a3,0x19
   1529e:	6565                	lui	a0,0x19
   152a0:	a9868693          	addi	a3,a3,-1384 # 18a98 <__clzdi2+0xc2>
   152a4:	4601                	li	a2,0
   152a6:	0d300593          	li	a1,211
   152aa:	b0050513          	addi	a0,a0,-1280 # 18b00 <__clzdi2+0x12a>
   152ae:	e456                	sd	s5,8(sp)
   152b0:	e05a                	sd	s6,0(sp)
   152b2:	208010ef          	jal	164ba <__assert_func>

00000000000152b6 <__hi0bits>:
   152b6:	87aa                	mv	a5,a0
   152b8:	6741                	lui	a4,0x10
   152ba:	4501                	li	a0,0
   152bc:	00e7f563          	bgeu	a5,a4,152c6 <__hi0bits+0x10>
   152c0:	0107979b          	slliw	a5,a5,0x10
   152c4:	4541                	li	a0,16
   152c6:	01000737          	lui	a4,0x1000
   152ca:	00e7f563          	bgeu	a5,a4,152d4 <__hi0bits+0x1e>
   152ce:	0087979b          	slliw	a5,a5,0x8
   152d2:	2521                	addiw	a0,a0,8
   152d4:	10000737          	lui	a4,0x10000
   152d8:	00e7f563          	bgeu	a5,a4,152e2 <__hi0bits+0x2c>
   152dc:	0047979b          	slliw	a5,a5,0x4
   152e0:	2511                	addiw	a0,a0,4
   152e2:	40000737          	lui	a4,0x40000
   152e6:	00e7e663          	bltu	a5,a4,152f2 <__hi0bits+0x3c>
   152ea:	0207c063          	bltz	a5,1530a <__hi0bits+0x54>
   152ee:	2505                	addiw	a0,a0,1
   152f0:	8082                	ret
   152f2:	02279693          	slli	a3,a5,0x22
   152f6:	0027971b          	slliw	a4,a5,0x2
   152fa:	0006c963          	bltz	a3,1530c <__hi0bits+0x56>
   152fe:	02171793          	slli	a5,a4,0x21
   15302:	0007c763          	bltz	a5,15310 <__hi0bits+0x5a>
   15306:	02000513          	li	a0,32
   1530a:	8082                	ret
   1530c:	2509                	addiw	a0,a0,2
   1530e:	8082                	ret
   15310:	250d                	addiw	a0,a0,3
   15312:	8082                	ret

0000000000015314 <__lo0bits>:
   15314:	411c                	lw	a5,0(a0)
   15316:	872a                	mv	a4,a0
   15318:	0077f693          	andi	a3,a5,7
   1531c:	863e                	mv	a2,a5
   1531e:	ce81                	beqz	a3,15336 <__lo0bits+0x22>
   15320:	0017f693          	andi	a3,a5,1
   15324:	4501                	li	a0,0
   15326:	ee9d                	bnez	a3,15364 <__lo0bits+0x50>
   15328:	8a09                	andi	a2,a2,2
   1532a:	ce25                	beqz	a2,153a2 <__lo0bits+0x8e>
   1532c:	0017d79b          	srliw	a5,a5,0x1
   15330:	c31c                	sw	a5,0(a4)
   15332:	4505                	li	a0,1
   15334:	8082                	ret
   15336:	03079693          	slli	a3,a5,0x30
   1533a:	92c1                	srli	a3,a3,0x30
   1533c:	4501                	li	a0,0
   1533e:	cab9                	beqz	a3,15394 <__lo0bits+0x80>
   15340:	0ff7f693          	zext.b	a3,a5
   15344:	c2a9                	beqz	a3,15386 <__lo0bits+0x72>
   15346:	00f7f693          	andi	a3,a5,15
   1534a:	c69d                	beqz	a3,15378 <__lo0bits+0x64>
   1534c:	0037f693          	andi	a3,a5,3
   15350:	ce89                	beqz	a3,1536a <__lo0bits+0x56>
   15352:	0017f693          	andi	a3,a5,1
   15356:	ea81                	bnez	a3,15366 <__lo0bits+0x52>
   15358:	0017d79b          	srliw	a5,a5,0x1
   1535c:	2505                	addiw	a0,a0,1
   1535e:	e781                	bnez	a5,15366 <__lo0bits+0x52>
   15360:	02000513          	li	a0,32
   15364:	8082                	ret
   15366:	c31c                	sw	a5,0(a4)
   15368:	8082                	ret
   1536a:	0027d79b          	srliw	a5,a5,0x2
   1536e:	0017f693          	andi	a3,a5,1
   15372:	2509                	addiw	a0,a0,2
   15374:	faed                	bnez	a3,15366 <__lo0bits+0x52>
   15376:	b7cd                	j	15358 <__lo0bits+0x44>
   15378:	0047d79b          	srliw	a5,a5,0x4
   1537c:	0037f693          	andi	a3,a5,3
   15380:	2511                	addiw	a0,a0,4
   15382:	fae1                	bnez	a3,15352 <__lo0bits+0x3e>
   15384:	b7dd                	j	1536a <__lo0bits+0x56>
   15386:	0087d79b          	srliw	a5,a5,0x8
   1538a:	00f7f693          	andi	a3,a5,15
   1538e:	2521                	addiw	a0,a0,8
   15390:	fed5                	bnez	a3,1534c <__lo0bits+0x38>
   15392:	b7dd                	j	15378 <__lo0bits+0x64>
   15394:	0107d79b          	srliw	a5,a5,0x10
   15398:	0ff7f693          	zext.b	a3,a5
   1539c:	4541                	li	a0,16
   1539e:	f6c5                	bnez	a3,15346 <__lo0bits+0x32>
   153a0:	b7dd                	j	15386 <__lo0bits+0x72>
   153a2:	0027d79b          	srliw	a5,a5,0x2
   153a6:	c31c                	sw	a5,0(a4)
   153a8:	4509                	li	a0,2
   153aa:	8082                	ret

00000000000153ac <__i2b>:
   153ac:	753c                	ld	a5,104(a0)
   153ae:	1101                	addi	sp,sp,-32
   153b0:	e822                	sd	s0,16(sp)
   153b2:	e426                	sd	s1,8(sp)
   153b4:	ec06                	sd	ra,24(sp)
   153b6:	842a                	mv	s0,a0
   153b8:	84ae                	mv	s1,a1
   153ba:	cf91                	beqz	a5,153d6 <__i2b+0x2a>
   153bc:	6788                	ld	a0,8(a5)
   153be:	cd1d                	beqz	a0,153fc <__i2b+0x50>
   153c0:	6118                	ld	a4,0(a0)
   153c2:	e798                	sd	a4,8(a5)
   153c4:	60e2                	ld	ra,24(sp)
   153c6:	6442                	ld	s0,16(sp)
   153c8:	4785                	li	a5,1
   153ca:	1782                	slli	a5,a5,0x20
   153cc:	cd04                	sw	s1,24(a0)
   153ce:	e91c                	sd	a5,16(a0)
   153d0:	64a2                	ld	s1,8(sp)
   153d2:	6105                	addi	sp,sp,32
   153d4:	8082                	ret
   153d6:	04100613          	li	a2,65
   153da:	45a1                	li	a1,8
   153dc:	126010ef          	jal	16502 <_calloc_r>
   153e0:	f428                	sd	a0,104(s0)
   153e2:	87aa                	mv	a5,a0
   153e4:	fd61                	bnez	a0,153bc <__i2b+0x10>
   153e6:	66e5                	lui	a3,0x19
   153e8:	6565                	lui	a0,0x19
   153ea:	a9868693          	addi	a3,a3,-1384 # 18a98 <__clzdi2+0xc2>
   153ee:	4601                	li	a2,0
   153f0:	14500593          	li	a1,325
   153f4:	b0050513          	addi	a0,a0,-1280 # 18b00 <__clzdi2+0x12a>
   153f8:	0c2010ef          	jal	164ba <__assert_func>
   153fc:	02400613          	li	a2,36
   15400:	4585                	li	a1,1
   15402:	8522                	mv	a0,s0
   15404:	0fe010ef          	jal	16502 <_calloc_r>
   15408:	dd79                	beqz	a0,153e6 <__i2b+0x3a>
   1540a:	4785                	li	a5,1
   1540c:	1786                	slli	a5,a5,0x21
   1540e:	0785                	addi	a5,a5,1
   15410:	e51c                	sd	a5,8(a0)
   15412:	bf4d                	j	153c4 <__i2b+0x18>

0000000000015414 <__multiply>:
   15414:	7179                	addi	sp,sp,-48
   15416:	e84a                	sd	s2,16(sp)
   15418:	e44e                	sd	s3,8(sp)
   1541a:	01462903          	lw	s2,20(a2)
   1541e:	0145a983          	lw	s3,20(a1)
   15422:	ec26                	sd	s1,24(sp)
   15424:	e052                	sd	s4,0(sp)
   15426:	f406                	sd	ra,40(sp)
   15428:	f022                	sd	s0,32(sp)
   1542a:	8a2e                	mv	s4,a1
   1542c:	84b2                	mv	s1,a2
   1542e:	0129c763          	blt	s3,s2,1543c <__multiply+0x28>
   15432:	87ca                	mv	a5,s2
   15434:	84ae                	mv	s1,a1
   15436:	894e                	mv	s2,s3
   15438:	8a32                	mv	s4,a2
   1543a:	89be                	mv	s3,a5
   1543c:	44dc                	lw	a5,12(s1)
   1543e:	0139043b          	addw	s0,s2,s3
   15442:	448c                	lw	a1,8(s1)
   15444:	0087d363          	bge	a5,s0,1544a <__multiply+0x36>
   15448:	2585                	addiw	a1,a1,1
   1544a:	c2bff0ef          	jal	15074 <_Balloc>
   1544e:	14050c63          	beqz	a0,155a6 <__multiply+0x192>
   15452:	01850313          	addi	t1,a0,24
   15456:	00241893          	slli	a7,s0,0x2
   1545a:	989a                	add	a7,a7,t1
   1545c:	879a                	mv	a5,t1
   1545e:	01137763          	bgeu	t1,a7,1546c <__multiply+0x58>
   15462:	0007a023          	sw	zero,0(a5)
   15466:	0791                	addi	a5,a5,4
   15468:	ff17ede3          	bltu	a5,a7,15462 <__multiply+0x4e>
   1546c:	018a0813          	addi	a6,s4,24
   15470:	00299e13          	slli	t3,s3,0x2
   15474:	01848e93          	addi	t4,s1,24
   15478:	00291593          	slli	a1,s2,0x2
   1547c:	9e42                	add	t3,t3,a6
   1547e:	95f6                	add	a1,a1,t4
   15480:	0fc87a63          	bgeu	a6,t3,15574 <__multiply+0x160>
   15484:	01948793          	addi	a5,s1,25
   15488:	4f11                	li	t5,4
   1548a:	10f5f763          	bgeu	a1,a5,15598 <__multiply+0x184>
   1548e:	66c1                	lui	a3,0x10
   15490:	16fd                	addi	a3,a3,-1 # ffff <exit-0xe9>
   15492:	a809                	j	154a4 <__multiply+0x90>
   15494:	010fdf9b          	srliw	t6,t6,0x10
   15498:	060f9d63          	bnez	t6,15512 <__multiply+0xfe>
   1549c:	0811                	addi	a6,a6,4
   1549e:	0311                	addi	t1,t1,4
   154a0:	0dc87a63          	bgeu	a6,t3,15574 <__multiply+0x160>
   154a4:	00082f83          	lw	t6,0(a6)
   154a8:	00dff3b3          	and	t2,t6,a3
   154ac:	fe0384e3          	beqz	t2,15494 <__multiply+0x80>
   154b0:	829a                	mv	t0,t1
   154b2:	8ff6                	mv	t6,t4
   154b4:	4481                	li	s1,0
   154b6:	000fa783          	lw	a5,0(t6)
   154ba:	0002a603          	lw	a2,0(t0)
   154be:	0291                	addi	t0,t0,4
   154c0:	00d7f733          	and	a4,a5,a3
   154c4:	0277073b          	mulw	a4,a4,t2
   154c8:	0107d79b          	srliw	a5,a5,0x10
   154cc:	00d67933          	and	s2,a2,a3
   154d0:	0106561b          	srliw	a2,a2,0x10
   154d4:	0f91                	addi	t6,t6,4
   154d6:	027787bb          	mulw	a5,a5,t2
   154da:	0127073b          	addw	a4,a4,s2
   154de:	9f25                	addw	a4,a4,s1
   154e0:	0107549b          	srliw	s1,a4,0x10
   154e4:	8f75                	and	a4,a4,a3
   154e6:	9fb1                	addw	a5,a5,a2
   154e8:	9fa5                	addw	a5,a5,s1
   154ea:	0107961b          	slliw	a2,a5,0x10
   154ee:	8f51                	or	a4,a4,a2
   154f0:	fee2ae23          	sw	a4,-4(t0)
   154f4:	0107d49b          	srliw	s1,a5,0x10
   154f8:	0107d71b          	srliw	a4,a5,0x10
   154fc:	fabfede3          	bltu	t6,a1,154b6 <__multiply+0xa2>
   15500:	01e307b3          	add	a5,t1,t5
   15504:	c398                	sw	a4,0(a5)
   15506:	00082f83          	lw	t6,0(a6)
   1550a:	010fdf9b          	srliw	t6,t6,0x10
   1550e:	f80f87e3          	beqz	t6,1549c <__multiply+0x88>
   15512:	00032703          	lw	a4,0(t1)
   15516:	829a                	mv	t0,t1
   15518:	8676                	mv	a2,t4
   1551a:	83ba                	mv	t2,a4
   1551c:	4481                	li	s1,0
   1551e:	421c                	lw	a5,0(a2)
   15520:	0103d99b          	srliw	s3,t2,0x10
   15524:	8f75                	and	a4,a4,a3
   15526:	8ff5                	and	a5,a5,a3
   15528:	03f787bb          	mulw	a5,a5,t6
   1552c:	0042a383          	lw	t2,4(t0)
   15530:	0291                	addi	t0,t0,4
   15532:	0611                	addi	a2,a2,4
   15534:	00d3f933          	and	s2,t2,a3
   15538:	9fa5                	addw	a5,a5,s1
   1553a:	013787bb          	addw	a5,a5,s3
   1553e:	0107949b          	slliw	s1,a5,0x10
   15542:	8f45                	or	a4,a4,s1
   15544:	fee2ae23          	sw	a4,-4(t0)
   15548:	ffe65703          	lhu	a4,-2(a2)
   1554c:	0107d79b          	srliw	a5,a5,0x10
   15550:	03f7073b          	mulw	a4,a4,t6
   15554:	0127073b          	addw	a4,a4,s2
   15558:	9fb9                	addw	a5,a5,a4
   1555a:	0007871b          	sext.w	a4,a5
   1555e:	0107d49b          	srliw	s1,a5,0x10
   15562:	fab66ee3          	bltu	a2,a1,1551e <__multiply+0x10a>
   15566:	01e30733          	add	a4,t1,t5
   1556a:	c31c                	sw	a5,0(a4)
   1556c:	0811                	addi	a6,a6,4
   1556e:	0311                	addi	t1,t1,4
   15570:	f3c86ae3          	bltu	a6,t3,154a4 <__multiply+0x90>
   15574:	00804563          	bgtz	s0,1557e <__multiply+0x16a>
   15578:	a039                	j	15586 <__multiply+0x172>
   1557a:	347d                	addiw	s0,s0,-1
   1557c:	c409                	beqz	s0,15586 <__multiply+0x172>
   1557e:	ffc8a783          	lw	a5,-4(a7)
   15582:	18f1                	addi	a7,a7,-4
   15584:	dbfd                	beqz	a5,1557a <__multiply+0x166>
   15586:	70a2                	ld	ra,40(sp)
   15588:	c940                	sw	s0,20(a0)
   1558a:	7402                	ld	s0,32(sp)
   1558c:	64e2                	ld	s1,24(sp)
   1558e:	6942                	ld	s2,16(sp)
   15590:	69a2                	ld	s3,8(sp)
   15592:	6a02                	ld	s4,0(sp)
   15594:	6145                	addi	sp,sp,48
   15596:	8082                	ret
   15598:	409587b3          	sub	a5,a1,s1
   1559c:	179d                	addi	a5,a5,-25
   1559e:	9bf1                	andi	a5,a5,-4
   155a0:	00478f13          	addi	t5,a5,4
   155a4:	b5ed                	j	1548e <__multiply+0x7a>
   155a6:	66e5                	lui	a3,0x19
   155a8:	6565                	lui	a0,0x19
   155aa:	a9868693          	addi	a3,a3,-1384 # 18a98 <__clzdi2+0xc2>
   155ae:	4601                	li	a2,0
   155b0:	16200593          	li	a1,354
   155b4:	b0050513          	addi	a0,a0,-1280 # 18b00 <__clzdi2+0x12a>
   155b8:	703000ef          	jal	164ba <__assert_func>

00000000000155bc <__pow5mult>:
   155bc:	7179                	addi	sp,sp,-48
   155be:	f022                	sd	s0,32(sp)
   155c0:	e84a                	sd	s2,16(sp)
   155c2:	e44e                	sd	s3,8(sp)
   155c4:	f406                	sd	ra,40(sp)
   155c6:	00367793          	andi	a5,a2,3
   155ca:	8432                	mv	s0,a2
   155cc:	89aa                	mv	s3,a0
   155ce:	892e                	mv	s2,a1
   155d0:	ebad                	bnez	a5,15642 <__pow5mult+0x86>
   155d2:	8409                	srai	s0,s0,0x2
   155d4:	c431                	beqz	s0,15620 <__pow5mult+0x64>
   155d6:	ec26                	sd	s1,24(sp)
   155d8:	0609b483          	ld	s1,96(s3)
   155dc:	ccbd                	beqz	s1,1565a <__pow5mult+0x9e>
   155de:	00147793          	andi	a5,s0,1
   155e2:	eb89                	bnez	a5,155f4 <__pow5mult+0x38>
   155e4:	8405                	srai	s0,s0,0x1
   155e6:	cc05                	beqz	s0,1561e <__pow5mult+0x62>
   155e8:	6088                	ld	a0,0(s1)
   155ea:	c131                	beqz	a0,1562e <__pow5mult+0x72>
   155ec:	84aa                	mv	s1,a0
   155ee:	00147793          	andi	a5,s0,1
   155f2:	dbed                	beqz	a5,155e4 <__pow5mult+0x28>
   155f4:	8626                	mv	a2,s1
   155f6:	85ca                	mv	a1,s2
   155f8:	854e                	mv	a0,s3
   155fa:	e1bff0ef          	jal	15414 <__multiply>
   155fe:	00090d63          	beqz	s2,15618 <__pow5mult+0x5c>
   15602:	00892703          	lw	a4,8(s2)
   15606:	0689b783          	ld	a5,104(s3)
   1560a:	070e                	slli	a4,a4,0x3
   1560c:	97ba                	add	a5,a5,a4
   1560e:	6398                	ld	a4,0(a5)
   15610:	00e93023          	sd	a4,0(s2)
   15614:	0127b023          	sd	s2,0(a5)
   15618:	8405                	srai	s0,s0,0x1
   1561a:	892a                	mv	s2,a0
   1561c:	f471                	bnez	s0,155e8 <__pow5mult+0x2c>
   1561e:	64e2                	ld	s1,24(sp)
   15620:	70a2                	ld	ra,40(sp)
   15622:	7402                	ld	s0,32(sp)
   15624:	69a2                	ld	s3,8(sp)
   15626:	854a                	mv	a0,s2
   15628:	6942                	ld	s2,16(sp)
   1562a:	6145                	addi	sp,sp,48
   1562c:	8082                	ret
   1562e:	8626                	mv	a2,s1
   15630:	85a6                	mv	a1,s1
   15632:	854e                	mv	a0,s3
   15634:	de1ff0ef          	jal	15414 <__multiply>
   15638:	e088                	sd	a0,0(s1)
   1563a:	00053023          	sd	zero,0(a0)
   1563e:	84aa                	mv	s1,a0
   15640:	b77d                	j	155ee <__pow5mult+0x32>
   15642:	37fd                	addiw	a5,a5,-1
   15644:	6765                	lui	a4,0x19
   15646:	d5070713          	addi	a4,a4,-688 # 18d50 <p05.0>
   1564a:	078a                	slli	a5,a5,0x2
   1564c:	97ba                	add	a5,a5,a4
   1564e:	4390                	lw	a2,0(a5)
   15650:	4681                	li	a3,0
   15652:	a99ff0ef          	jal	150ea <__multadd>
   15656:	892a                	mv	s2,a0
   15658:	bfad                	j	155d2 <__pow5mult+0x16>
   1565a:	4585                	li	a1,1
   1565c:	854e                	mv	a0,s3
   1565e:	a17ff0ef          	jal	15074 <_Balloc>
   15662:	84aa                	mv	s1,a0
   15664:	c919                	beqz	a0,1567a <__pow5mult+0xbe>
   15666:	27100793          	li	a5,625
   1566a:	cd1c                	sw	a5,24(a0)
   1566c:	4785                	li	a5,1
   1566e:	c95c                	sw	a5,20(a0)
   15670:	06a9b023          	sd	a0,96(s3)
   15674:	00053023          	sd	zero,0(a0)
   15678:	b79d                	j	155de <__pow5mult+0x22>
   1567a:	66e5                	lui	a3,0x19
   1567c:	6565                	lui	a0,0x19
   1567e:	a9868693          	addi	a3,a3,-1384 # 18a98 <__clzdi2+0xc2>
   15682:	4601                	li	a2,0
   15684:	14500593          	li	a1,325
   15688:	b0050513          	addi	a0,a0,-1280 # 18b00 <__clzdi2+0x12a>
   1568c:	62f000ef          	jal	164ba <__assert_func>

0000000000015690 <__lshift>:
   15690:	7139                	addi	sp,sp,-64
   15692:	f822                	sd	s0,48(sp)
   15694:	49c0                	lw	s0,20(a1)
   15696:	45dc                	lw	a5,12(a1)
   15698:	e456                	sd	s5,8(sp)
   1569a:	40565a9b          	sraiw	s5,a2,0x5
   1569e:	008a843b          	addw	s0,s5,s0
   156a2:	f426                	sd	s1,40(sp)
   156a4:	f04a                	sd	s2,32(sp)
   156a6:	ec4e                	sd	s3,24(sp)
   156a8:	e852                	sd	s4,16(sp)
   156aa:	e05a                	sd	s6,0(sp)
   156ac:	fc06                	sd	ra,56(sp)
   156ae:	0014091b          	addiw	s2,s0,1
   156b2:	84ae                	mv	s1,a1
   156b4:	8a32                	mv	s4,a2
   156b6:	458c                	lw	a1,8(a1)
   156b8:	89aa                	mv	s3,a0
   156ba:	40565b13          	srai	s6,a2,0x5
   156be:	0127d763          	bge	a5,s2,156cc <__lshift+0x3c>
   156c2:	0017979b          	slliw	a5,a5,0x1
   156c6:	2585                	addiw	a1,a1,1
   156c8:	ff27cde3          	blt	a5,s2,156c2 <__lshift+0x32>
   156cc:	854e                	mv	a0,s3
   156ce:	9a7ff0ef          	jal	15074 <_Balloc>
   156d2:	c571                	beqz	a0,1579e <__lshift+0x10e>
   156d4:	01850713          	addi	a4,a0,24
   156d8:	03605163          	blez	s6,156fa <__lshift+0x6a>
   156dc:	006a869b          	addiw	a3,s5,6
   156e0:	068a                	slli	a3,a3,0x2
   156e2:	96aa                	add	a3,a3,a0
   156e4:	87ba                	mv	a5,a4
   156e6:	0791                	addi	a5,a5,4
   156e8:	fe07ae23          	sw	zero,-4(a5)
   156ec:	fed79de3          	bne	a5,a3,156e6 <__lshift+0x56>
   156f0:	020a9793          	slli	a5,s5,0x20
   156f4:	01e7da93          	srli	s5,a5,0x1e
   156f8:	9756                	add	a4,a4,s5
   156fa:	0144a883          	lw	a7,20(s1)
   156fe:	01848793          	addi	a5,s1,24
   15702:	01fa7613          	andi	a2,s4,31
   15706:	088a                	slli	a7,a7,0x2
   15708:	98be                	add	a7,a7,a5
   1570a:	ca3d                	beqz	a2,15780 <__lshift+0xf0>
   1570c:	02000593          	li	a1,32
   15710:	9d91                	subw	a1,a1,a2
   15712:	833a                	mv	t1,a4
   15714:	4681                	li	a3,0
   15716:	0007a803          	lw	a6,0(a5)
   1571a:	0311                	addi	t1,t1,4
   1571c:	0791                	addi	a5,a5,4
   1571e:	00c8183b          	sllw	a6,a6,a2
   15722:	0106e6b3          	or	a3,a3,a6
   15726:	fed32e23          	sw	a3,-4(t1)
   1572a:	ffc7a803          	lw	a6,-4(a5)
   1572e:	00b856bb          	srlw	a3,a6,a1
   15732:	8836                	mv	a6,a3
   15734:	ff17e1e3          	bltu	a5,a7,15716 <__lshift+0x86>
   15738:	01948793          	addi	a5,s1,25
   1573c:	4611                	li	a2,4
   1573e:	00f8e863          	bltu	a7,a5,1574e <__lshift+0xbe>
   15742:	409887b3          	sub	a5,a7,s1
   15746:	179d                	addi	a5,a5,-25
   15748:	9bf1                	andi	a5,a5,-4
   1574a:	00478613          	addi	a2,a5,4
   1574e:	9732                	add	a4,a4,a2
   15750:	01072023          	sw	a6,0(a4)
   15754:	e291                	bnez	a3,15758 <__lshift+0xc8>
   15756:	8922                	mv	s2,s0
   15758:	4498                	lw	a4,8(s1)
   1575a:	0689b783          	ld	a5,104(s3)
   1575e:	70e2                	ld	ra,56(sp)
   15760:	070e                	slli	a4,a4,0x3
   15762:	97ba                	add	a5,a5,a4
   15764:	6398                	ld	a4,0(a5)
   15766:	01252a23          	sw	s2,20(a0)
   1576a:	7442                	ld	s0,48(sp)
   1576c:	e098                	sd	a4,0(s1)
   1576e:	e384                	sd	s1,0(a5)
   15770:	7902                	ld	s2,32(sp)
   15772:	74a2                	ld	s1,40(sp)
   15774:	69e2                	ld	s3,24(sp)
   15776:	6a42                	ld	s4,16(sp)
   15778:	6aa2                	ld	s5,8(sp)
   1577a:	6b02                	ld	s6,0(sp)
   1577c:	6121                	addi	sp,sp,64
   1577e:	8082                	ret
   15780:	4394                	lw	a3,0(a5)
   15782:	0791                	addi	a5,a5,4
   15784:	0711                	addi	a4,a4,4
   15786:	fed72e23          	sw	a3,-4(a4)
   1578a:	fd17f6e3          	bgeu	a5,a7,15756 <__lshift+0xc6>
   1578e:	4394                	lw	a3,0(a5)
   15790:	0791                	addi	a5,a5,4
   15792:	0711                	addi	a4,a4,4
   15794:	fed72e23          	sw	a3,-4(a4)
   15798:	ff17e4e3          	bltu	a5,a7,15780 <__lshift+0xf0>
   1579c:	bf6d                	j	15756 <__lshift+0xc6>
   1579e:	66e5                	lui	a3,0x19
   157a0:	6565                	lui	a0,0x19
   157a2:	a9868693          	addi	a3,a3,-1384 # 18a98 <__clzdi2+0xc2>
   157a6:	4601                	li	a2,0
   157a8:	1de00593          	li	a1,478
   157ac:	b0050513          	addi	a0,a0,-1280 # 18b00 <__clzdi2+0x12a>
   157b0:	50b000ef          	jal	164ba <__assert_func>

00000000000157b4 <__mcmp>:
   157b4:	49dc                	lw	a5,20(a1)
   157b6:	882a                	mv	a6,a0
   157b8:	4948                	lw	a0,20(a0)
   157ba:	9d1d                	subw	a0,a0,a5
   157bc:	e51d                	bnez	a0,157ea <__mcmp+0x36>
   157be:	078a                	slli	a5,a5,0x2
   157c0:	0861                	addi	a6,a6,24
   157c2:	05e1                	addi	a1,a1,24
   157c4:	00f80733          	add	a4,a6,a5
   157c8:	97ae                	add	a5,a5,a1
   157ca:	a019                	j	157d0 <__mcmp+0x1c>
   157cc:	00e87f63          	bgeu	a6,a4,157ea <__mcmp+0x36>
   157d0:	ffc72603          	lw	a2,-4(a4)
   157d4:	ffc7a683          	lw	a3,-4(a5)
   157d8:	1771                	addi	a4,a4,-4
   157da:	17f1                	addi	a5,a5,-4
   157dc:	fed608e3          	beq	a2,a3,157cc <__mcmp+0x18>
   157e0:	4505                	li	a0,1
   157e2:	00d67463          	bgeu	a2,a3,157ea <__mcmp+0x36>
   157e6:	557d                	li	a0,-1
   157e8:	8082                	ret
   157ea:	8082                	ret

00000000000157ec <__mdiff>:
   157ec:	49d8                	lw	a4,20(a1)
   157ee:	4a5c                	lw	a5,20(a2)
   157f0:	1101                	addi	sp,sp,-32
   157f2:	e822                	sd	s0,16(sp)
   157f4:	e426                	sd	s1,8(sp)
   157f6:	ec06                	sd	ra,24(sp)
   157f8:	e04a                	sd	s2,0(sp)
   157fa:	9f1d                	subw	a4,a4,a5
   157fc:	842e                	mv	s0,a1
   157fe:	84b2                	mv	s1,a2
   15800:	14071063          	bnez	a4,15940 <__mdiff+0x154>
   15804:	00279693          	slli	a3,a5,0x2
   15808:	01858613          	addi	a2,a1,24
   1580c:	01848713          	addi	a4,s1,24
   15810:	00d607b3          	add	a5,a2,a3
   15814:	9736                	add	a4,a4,a3
   15816:	a019                	j	1581c <__mdiff+0x30>
   15818:	12f67c63          	bgeu	a2,a5,15950 <__mdiff+0x164>
   1581c:	ffc7a583          	lw	a1,-4(a5)
   15820:	ffc72683          	lw	a3,-4(a4)
   15824:	17f1                	addi	a5,a5,-4
   15826:	1771                	addi	a4,a4,-4
   15828:	fed588e3          	beq	a1,a3,15818 <__mdiff+0x2c>
   1582c:	4905                	li	s2,1
   1582e:	00d5e663          	bltu	a1,a3,1583a <__mdiff+0x4e>
   15832:	87a6                	mv	a5,s1
   15834:	4901                	li	s2,0
   15836:	84a2                	mv	s1,s0
   15838:	843e                	mv	s0,a5
   1583a:	448c                	lw	a1,8(s1)
   1583c:	839ff0ef          	jal	15074 <_Balloc>
   15840:	12050f63          	beqz	a0,1597e <__mdiff+0x192>
   15844:	0144a303          	lw	t1,20(s1)
   15848:	01442283          	lw	t0,20(s0)
   1584c:	01848f13          	addi	t5,s1,24
   15850:	00231e13          	slli	t3,t1,0x2
   15854:	01840813          	addi	a6,s0,24
   15858:	028a                	slli	t0,t0,0x2
   1585a:	01850f93          	addi	t6,a0,24
   1585e:	68c1                	lui	a7,0x10
   15860:	01252823          	sw	s2,16(a0)
   15864:	9e7a                	add	t3,t3,t5
   15866:	92c2                	add	t0,t0,a6
   15868:	85fe                	mv	a1,t6
   1586a:	8efa                	mv	t4,t5
   1586c:	4601                	li	a2,0
   1586e:	18fd                	addi	a7,a7,-1 # ffff <exit-0xe9>
   15870:	000ea703          	lw	a4,0(t4)
   15874:	00082683          	lw	a3,0(a6)
   15878:	0591                	addi	a1,a1,4
   1587a:	011777b3          	and	a5,a4,a7
   1587e:	0116f3b3          	and	t2,a3,a7
   15882:	407787bb          	subw	a5,a5,t2
   15886:	9fb1                	addw	a5,a5,a2
   15888:	0106d69b          	srliw	a3,a3,0x10
   1588c:	0107571b          	srliw	a4,a4,0x10
   15890:	9f15                	subw	a4,a4,a3
   15892:	4107d69b          	sraiw	a3,a5,0x10
   15896:	9f35                	addw	a4,a4,a3
   15898:	00f8f7b3          	and	a5,a7,a5
   1589c:	0107169b          	slliw	a3,a4,0x10
   158a0:	8fd5                	or	a5,a5,a3
   158a2:	2781                	sext.w	a5,a5
   158a4:	0811                	addi	a6,a6,4
   158a6:	fef5ae23          	sw	a5,-4(a1)
   158aa:	0e91                	addi	t4,t4,4
   158ac:	4107561b          	sraiw	a2,a4,0x10
   158b0:	fc5860e3          	bltu	a6,t0,15870 <__mdiff+0x84>
   158b4:	01940713          	addi	a4,s0,25
   158b8:	40828433          	sub	s0,t0,s0
   158bc:	141d                	addi	s0,s0,-25
   158be:	00e2b2b3          	sltu	t0,t0,a4
   158c2:	0012c893          	xori	a7,t0,1
   158c6:	8009                	srli	s0,s0,0x2
   158c8:	4711                	li	a4,4
   158ca:	06028f63          	beqz	t0,15948 <__mdiff+0x15c>
   158ce:	9f3a                	add	t5,t5,a4
   158d0:	00ef8eb3          	add	t4,t6,a4
   158d4:	6841                	lui	a6,0x10
   158d6:	85f6                	mv	a1,t4
   158d8:	86fa                	mv	a3,t5
   158da:	187d                	addi	a6,a6,-1 # ffff <exit-0xe9>
   158dc:	09cf7863          	bgeu	t5,t3,1596c <__mdiff+0x180>
   158e0:	429c                	lw	a5,0(a3)
   158e2:	0006089b          	sext.w	a7,a2
   158e6:	0591                	addi	a1,a1,4
   158e8:	0107f733          	and	a4,a5,a6
   158ec:	9f31                	addw	a4,a4,a2
   158ee:	4107571b          	sraiw	a4,a4,0x10
   158f2:	0107d61b          	srliw	a2,a5,0x10
   158f6:	9f31                	addw	a4,a4,a2
   158f8:	011787bb          	addw	a5,a5,a7
   158fc:	0107161b          	slliw	a2,a4,0x10
   15900:	0107f7b3          	and	a5,a5,a6
   15904:	8fd1                	or	a5,a5,a2
   15906:	2781                	sext.w	a5,a5
   15908:	0691                	addi	a3,a3,4
   1590a:	fef5ae23          	sw	a5,-4(a1)
   1590e:	4107561b          	sraiw	a2,a4,0x10
   15912:	fdc6e7e3          	bltu	a3,t3,158e0 <__mdiff+0xf4>
   15916:	1e7d                	addi	t3,t3,-1
   15918:	41ee0e33          	sub	t3,t3,t5
   1591c:	ffce7e13          	andi	t3,t3,-4
   15920:	01ce8733          	add	a4,t4,t3
   15924:	e791                	bnez	a5,15930 <__mdiff+0x144>
   15926:	ffc72783          	lw	a5,-4(a4)
   1592a:	337d                	addiw	t1,t1,-1
   1592c:	1771                	addi	a4,a4,-4
   1592e:	dfe5                	beqz	a5,15926 <__mdiff+0x13a>
   15930:	60e2                	ld	ra,24(sp)
   15932:	6442                	ld	s0,16(sp)
   15934:	00652a23          	sw	t1,20(a0)
   15938:	64a2                	ld	s1,8(sp)
   1593a:	6902                	ld	s2,0(sp)
   1593c:	6105                	addi	sp,sp,32
   1593e:	8082                	ret
   15940:	4905                	li	s2,1
   15942:	ee0758e3          	bgez	a4,15832 <__mdiff+0x46>
   15946:	bdd5                	j	1583a <__mdiff+0x4e>
   15948:	00140713          	addi	a4,s0,1
   1594c:	070a                	slli	a4,a4,0x2
   1594e:	b741                	j	158ce <__mdiff+0xe2>
   15950:	4581                	li	a1,0
   15952:	f22ff0ef          	jal	15074 <_Balloc>
   15956:	cd1d                	beqz	a0,15994 <__mdiff+0x1a8>
   15958:	60e2                	ld	ra,24(sp)
   1595a:	6442                	ld	s0,16(sp)
   1595c:	4785                	li	a5,1
   1595e:	c95c                	sw	a5,20(a0)
   15960:	00052c23          	sw	zero,24(a0)
   15964:	64a2                	ld	s1,8(sp)
   15966:	6902                	ld	s2,0(sp)
   15968:	6105                	addi	sp,sp,32
   1596a:	8082                	ret
   1596c:	4701                	li	a4,0
   1596e:	00089463          	bnez	a7,15976 <__mdiff+0x18a>
   15972:	977e                	add	a4,a4,t6
   15974:	bf45                	j	15924 <__mdiff+0x138>
   15976:	00241713          	slli	a4,s0,0x2
   1597a:	977e                	add	a4,a4,t6
   1597c:	b765                	j	15924 <__mdiff+0x138>
   1597e:	66e5                	lui	a3,0x19
   15980:	6565                	lui	a0,0x19
   15982:	a9868693          	addi	a3,a3,-1384 # 18a98 <__clzdi2+0xc2>
   15986:	4601                	li	a2,0
   15988:	24500593          	li	a1,581
   1598c:	b0050513          	addi	a0,a0,-1280 # 18b00 <__clzdi2+0x12a>
   15990:	32b000ef          	jal	164ba <__assert_func>
   15994:	66e5                	lui	a3,0x19
   15996:	6565                	lui	a0,0x19
   15998:	a9868693          	addi	a3,a3,-1384 # 18a98 <__clzdi2+0xc2>
   1599c:	4601                	li	a2,0
   1599e:	23700593          	li	a1,567
   159a2:	b0050513          	addi	a0,a0,-1280 # 18b00 <__clzdi2+0x12a>
   159a6:	315000ef          	jal	164ba <__assert_func>

00000000000159aa <__ulp>:
   159aa:	e2050753          	fmv.x.d	a4,fa0
   159ae:	7ff007b7          	lui	a5,0x7ff00
   159b2:	9301                	srli	a4,a4,0x20
   159b4:	8f7d                	and	a4,a4,a5
   159b6:	fcc007b7          	lui	a5,0xfcc00
   159ba:	00e786bb          	addw	a3,a5,a4
   159be:	4701                	li	a4,0
   159c0:	00d05963          	blez	a3,159d2 <__ulp+0x28>
   159c4:	1702                	slli	a4,a4,0x20
   159c6:	1682                	slli	a3,a3,0x20
   159c8:	9301                	srli	a4,a4,0x20
   159ca:	8f55                	or	a4,a4,a3
   159cc:	f2070553          	fmv.d.x	fa0,a4
   159d0:	8082                	ret
   159d2:	40d007bb          	negw	a5,a3
   159d6:	4147d71b          	sraiw	a4,a5,0x14
   159da:	46cd                	li	a3,19
   159dc:	00e6ce63          	blt	a3,a4,159f8 <__ulp+0x4e>
   159e0:	000806b7          	lui	a3,0x80
   159e4:	40e6d6bb          	sraw	a3,a3,a4
   159e8:	4701                	li	a4,0
   159ea:	1702                	slli	a4,a4,0x20
   159ec:	1682                	slli	a3,a3,0x20
   159ee:	9301                	srli	a4,a4,0x20
   159f0:	8f55                	or	a4,a4,a3
   159f2:	f2070553          	fmv.d.x	fa0,a4
   159f6:	8082                	ret
   159f8:	fec7079b          	addiw	a5,a4,-20
   159fc:	46f9                	li	a3,30
   159fe:	4705                	li	a4,1
   15a00:	00f6c663          	blt	a3,a5,15a0c <__ulp+0x62>
   15a04:	80000737          	lui	a4,0x80000
   15a08:	00f7573b          	srlw	a4,a4,a5
   15a0c:	4681                	li	a3,0
   15a0e:	1702                	slli	a4,a4,0x20
   15a10:	1682                	slli	a3,a3,0x20
   15a12:	9301                	srli	a4,a4,0x20
   15a14:	8f55                	or	a4,a4,a3
   15a16:	f2070553          	fmv.d.x	fa0,a4
   15a1a:	8082                	ret

0000000000015a1c <__b2d>:
   15a1c:	7179                	addi	sp,sp,-48
   15a1e:	ec26                	sd	s1,24(sp)
   15a20:	4944                	lw	s1,20(a0)
   15a22:	f022                	sd	s0,32(sp)
   15a24:	01850413          	addi	s0,a0,24
   15a28:	048a                	slli	s1,s1,0x2
   15a2a:	94a2                	add	s1,s1,s0
   15a2c:	e84a                	sd	s2,16(sp)
   15a2e:	ffc4a903          	lw	s2,-4(s1)
   15a32:	e44e                	sd	s3,8(sp)
   15a34:	e052                	sd	s4,0(sp)
   15a36:	854a                	mv	a0,s2
   15a38:	89ae                	mv	s3,a1
   15a3a:	f406                	sd	ra,40(sp)
   15a3c:	87bff0ef          	jal	152b6 <__hi0bits>
   15a40:	02000693          	li	a3,32
   15a44:	40a687bb          	subw	a5,a3,a0
   15a48:	00f9a023          	sw	a5,0(s3)
   15a4c:	47a9                	li	a5,10
   15a4e:	ffc48a13          	addi	s4,s1,-4
   15a52:	08a7d563          	bge	a5,a0,15adc <__b2d+0xc0>
   15a56:	ff55079b          	addiw	a5,a0,-11
   15a5a:	05447163          	bgeu	s0,s4,15a9c <__b2d+0x80>
   15a5e:	ff84a703          	lw	a4,-8(s1)
   15a62:	cba9                	beqz	a5,15ab4 <__b2d+0x98>
   15a64:	9e9d                	subw	a3,a3,a5
   15a66:	00d7563b          	srlw	a2,a4,a3
   15a6a:	00f9193b          	sllw	s2,s2,a5
   15a6e:	00c96933          	or	s2,s2,a2
   15a72:	3ff00637          	lui	a2,0x3ff00
   15a76:	00c96933          	or	s2,s2,a2
   15a7a:	00f715bb          	sllw	a1,a4,a5
   15a7e:	ff848613          	addi	a2,s1,-8
   15a82:	02091793          	slli	a5,s2,0x20
   15a86:	0005871b          	sext.w	a4,a1
   15a8a:	02c47a63          	bgeu	s0,a2,15abe <__b2d+0xa2>
   15a8e:	ff44a703          	lw	a4,-12(s1)
   15a92:	00d7573b          	srlw	a4,a4,a3
   15a96:	8f4d                	or	a4,a4,a1
   15a98:	2701                	sext.w	a4,a4
   15a9a:	a015                	j	15abe <__b2d+0xa2>
   15a9c:	472d                	li	a4,11
   15a9e:	00e50a63          	beq	a0,a4,15ab2 <__b2d+0x96>
   15aa2:	3ff00737          	lui	a4,0x3ff00
   15aa6:	00f917bb          	sllw	a5,s2,a5
   15aaa:	8fd9                	or	a5,a5,a4
   15aac:	1782                	slli	a5,a5,0x20
   15aae:	4701                	li	a4,0
   15ab0:	a039                	j	15abe <__b2d+0xa2>
   15ab2:	4701                	li	a4,0
   15ab4:	3ff007b7          	lui	a5,0x3ff00
   15ab8:	00f967b3          	or	a5,s2,a5
   15abc:	1782                	slli	a5,a5,0x20
   15abe:	70a2                	ld	ra,40(sp)
   15ac0:	7402                	ld	s0,32(sp)
   15ac2:	9381                	srli	a5,a5,0x20
   15ac4:	1702                	slli	a4,a4,0x20
   15ac6:	9301                	srli	a4,a4,0x20
   15ac8:	1782                	slli	a5,a5,0x20
   15aca:	8fd9                	or	a5,a5,a4
   15acc:	64e2                	ld	s1,24(sp)
   15ace:	6942                	ld	s2,16(sp)
   15ad0:	69a2                	ld	s3,8(sp)
   15ad2:	6a02                	ld	s4,0(sp)
   15ad4:	f2078553          	fmv.d.x	fa0,a5
   15ad8:	6145                	addi	sp,sp,48
   15ada:	8082                	ret
   15adc:	46ad                	li	a3,11
   15ade:	9e89                	subw	a3,a3,a0
   15ae0:	3ff00737          	lui	a4,0x3ff00
   15ae4:	00d957bb          	srlw	a5,s2,a3
   15ae8:	8fd9                	or	a5,a5,a4
   15aea:	1782                	slli	a5,a5,0x20
   15aec:	4701                	li	a4,0
   15aee:	01447663          	bgeu	s0,s4,15afa <__b2d+0xde>
   15af2:	ff84a703          	lw	a4,-8(s1)
   15af6:	00d7573b          	srlw	a4,a4,a3
   15afa:	2555                	addiw	a0,a0,21
   15afc:	00a9153b          	sllw	a0,s2,a0
   15b00:	8f49                	or	a4,a4,a0
   15b02:	2701                	sext.w	a4,a4
   15b04:	bf6d                	j	15abe <__b2d+0xa2>

0000000000015b06 <__d2b>:
   15b06:	7139                	addi	sp,sp,-64
   15b08:	e852                	sd	s4,16(sp)
   15b0a:	8a2e                	mv	s4,a1
   15b0c:	4585                	li	a1,1
   15b0e:	f822                	sd	s0,48(sp)
   15b10:	f04a                	sd	s2,32(sp)
   15b12:	fc06                	sd	ra,56(sp)
   15b14:	f426                	sd	s1,40(sp)
   15b16:	ec4e                	sd	s3,24(sp)
   15b18:	e2050453          	fmv.x.d	s0,fa0
   15b1c:	8932                	mv	s2,a2
   15b1e:	d56ff0ef          	jal	15074 <_Balloc>
   15b22:	c955                	beqz	a0,15bd6 <__d2b+0xd0>
   15b24:	42045793          	srai	a5,s0,0x20
   15b28:	0147d99b          	srliw	s3,a5,0x14
   15b2c:	7ff9f993          	andi	s3,s3,2047
   15b30:	17b2                	slli	a5,a5,0x2c
   15b32:	84aa                	mv	s1,a0
   15b34:	93b1                	srli	a5,a5,0x2c
   15b36:	00098563          	beqz	s3,15b40 <__d2b+0x3a>
   15b3a:	00100737          	lui	a4,0x100
   15b3e:	8fd9                	or	a5,a5,a4
   15b40:	c63e                	sw	a5,12(sp)
   15b42:	2401                	sext.w	s0,s0
   15b44:	e029                	bnez	s0,15b86 <__d2b+0x80>
   15b46:	0068                	addi	a0,sp,12
   15b48:	fccff0ef          	jal	15314 <__lo0bits>
   15b4c:	47b2                	lw	a5,12(sp)
   15b4e:	4405                	li	s0,1
   15b50:	c8c0                	sw	s0,20(s1)
   15b52:	cc9c                	sw	a5,24(s1)
   15b54:	0205051b          	addiw	a0,a0,32
   15b58:	06098063          	beqz	s3,15bb8 <__d2b+0xb2>
   15b5c:	bcd9899b          	addiw	s3,s3,-1075
   15b60:	00a989bb          	addw	s3,s3,a0
   15b64:	03500413          	li	s0,53
   15b68:	013a2023          	sw	s3,0(s4)
   15b6c:	40a4053b          	subw	a0,s0,a0
   15b70:	70e2                	ld	ra,56(sp)
   15b72:	7442                	ld	s0,48(sp)
   15b74:	00a92023          	sw	a0,0(s2)
   15b78:	69e2                	ld	s3,24(sp)
   15b7a:	7902                	ld	s2,32(sp)
   15b7c:	6a42                	ld	s4,16(sp)
   15b7e:	8526                	mv	a0,s1
   15b80:	74a2                	ld	s1,40(sp)
   15b82:	6121                	addi	sp,sp,64
   15b84:	8082                	ret
   15b86:	0028                	addi	a0,sp,8
   15b88:	c422                	sw	s0,8(sp)
   15b8a:	f8aff0ef          	jal	15314 <__lo0bits>
   15b8e:	47b2                	lw	a5,12(sp)
   15b90:	4722                	lw	a4,8(sp)
   15b92:	c919                	beqz	a0,15ba8 <__d2b+0xa2>
   15b94:	02000693          	li	a3,32
   15b98:	9e89                	subw	a3,a3,a0
   15b9a:	00d796bb          	sllw	a3,a5,a3
   15b9e:	8f55                	or	a4,a4,a3
   15ba0:	00a7d7bb          	srlw	a5,a5,a0
   15ba4:	2701                	sext.w	a4,a4
   15ba6:	c63e                	sw	a5,12(sp)
   15ba8:	00f03433          	snez	s0,a5
   15bac:	0405                	addi	s0,s0,1
   15bae:	cc98                	sw	a4,24(s1)
   15bb0:	ccdc                	sw	a5,28(s1)
   15bb2:	c8c0                	sw	s0,20(s1)
   15bb4:	fa0994e3          	bnez	s3,15b5c <__d2b+0x56>
   15bb8:	bce5051b          	addiw	a0,a0,-1074
   15bbc:	00241793          	slli	a5,s0,0x2
   15bc0:	00aa2023          	sw	a0,0(s4)
   15bc4:	97a6                	add	a5,a5,s1
   15bc6:	4bc8                	lw	a0,20(a5)
   15bc8:	0054141b          	slliw	s0,s0,0x5
   15bcc:	eeaff0ef          	jal	152b6 <__hi0bits>
   15bd0:	40a4053b          	subw	a0,s0,a0
   15bd4:	bf71                	j	15b70 <__d2b+0x6a>
   15bd6:	66e5                	lui	a3,0x19
   15bd8:	6565                	lui	a0,0x19
   15bda:	a9868693          	addi	a3,a3,-1384 # 18a98 <__clzdi2+0xc2>
   15bde:	4601                	li	a2,0
   15be0:	30f00593          	li	a1,783
   15be4:	b0050513          	addi	a0,a0,-1280 # 18b00 <__clzdi2+0x12a>
   15be8:	0d3000ef          	jal	164ba <__assert_func>

0000000000015bec <__ratio>:
   15bec:	7179                	addi	sp,sp,-48
   15bee:	ec26                	sd	s1,24(sp)
   15bf0:	84ae                	mv	s1,a1
   15bf2:	002c                	addi	a1,sp,8
   15bf4:	f406                	sd	ra,40(sp)
   15bf6:	f022                	sd	s0,32(sp)
   15bf8:	e84a                	sd	s2,16(sp)
   15bfa:	892a                	mv	s2,a0
   15bfc:	e21ff0ef          	jal	15a1c <__b2d>
   15c00:	006c                	addi	a1,sp,12
   15c02:	8526                	mv	a0,s1
   15c04:	e2050453          	fmv.x.d	s0,fa0
   15c08:	e15ff0ef          	jal	15a1c <__b2d>
   15c0c:	01492783          	lw	a5,20(s2)
   15c10:	48d0                	lw	a2,20(s1)
   15c12:	46b2                	lw	a3,12(sp)
   15c14:	4722                	lw	a4,8(sp)
   15c16:	9f91                	subw	a5,a5,a2
   15c18:	0057979b          	slliw	a5,a5,0x5
   15c1c:	9f15                	subw	a4,a4,a3
   15c1e:	00e786bb          	addw	a3,a5,a4
   15c22:	87b6                	mv	a5,a3
   15c24:	e2050753          	fmv.x.d	a4,fa0
   15c28:	02d05963          	blez	a3,15c5a <__ratio+0x6e>
   15c2c:	02045693          	srli	a3,s0,0x20
   15c30:	0147979b          	slliw	a5,a5,0x14
   15c34:	9fb5                	addw	a5,a5,a3
   15c36:	56fd                	li	a3,-1
   15c38:	9281                	srli	a3,a3,0x20
   15c3a:	1782                	slli	a5,a5,0x20
   15c3c:	8ee1                	and	a3,a3,s0
   15c3e:	00f6e433          	or	s0,a3,a5
   15c42:	f20407d3          	fmv.d.x	fa5,s0
   15c46:	70a2                	ld	ra,40(sp)
   15c48:	7402                	ld	s0,32(sp)
   15c4a:	f2070753          	fmv.d.x	fa4,a4
   15c4e:	64e2                	ld	s1,24(sp)
   15c50:	6942                	ld	s2,16(sp)
   15c52:	1ae7f553          	fdiv.d	fa0,fa5,fa4
   15c56:	6145                	addi	sp,sp,48
   15c58:	8082                	ret
   15c5a:	02075693          	srli	a3,a4,0x20
   15c5e:	0147979b          	slliw	a5,a5,0x14
   15c62:	40f687bb          	subw	a5,a3,a5
   15c66:	56fd                	li	a3,-1
   15c68:	9281                	srli	a3,a3,0x20
   15c6a:	1782                	slli	a5,a5,0x20
   15c6c:	8f75                	and	a4,a4,a3
   15c6e:	8f5d                	or	a4,a4,a5
   15c70:	bfc9                	j	15c42 <__ratio+0x56>

0000000000015c72 <_mprec_log10>:
   15c72:	47dd                	li	a5,23
   15c74:	00a7db63          	bge	a5,a0,15c8a <_mprec_log10+0x18>
   15c78:	1d81b507          	fld	fa0,472(gp) # 1ad80 <__SDATA_BEGIN__+0x30>
   15c7c:	1e01b787          	fld	fa5,480(gp) # 1ad88 <__SDATA_BEGIN__+0x38>
   15c80:	357d                	addiw	a0,a0,-1
   15c82:	12f57553          	fmul.d	fa0,fa0,fa5
   15c86:	fd6d                	bnez	a0,15c80 <_mprec_log10+0xe>
   15c88:	8082                	ret
   15c8a:	67e5                	lui	a5,0x19
   15c8c:	050e                	slli	a0,a0,0x3
   15c8e:	db078793          	addi	a5,a5,-592 # 18db0 <__mprec_tens>
   15c92:	97aa                	add	a5,a5,a0
   15c94:	2388                	fld	fa0,0(a5)
   15c96:	8082                	ret

0000000000015c98 <__copybits>:
   15c98:	4a54                	lw	a3,20(a2)
   15c9a:	35fd                	addiw	a1,a1,-1
   15c9c:	4055d59b          	sraiw	a1,a1,0x5
   15ca0:	2585                	addiw	a1,a1,1
   15ca2:	01860793          	addi	a5,a2,24 # 3ff00018 <__BSS_END__+0x3fee4c70>
   15ca6:	068a                	slli	a3,a3,0x2
   15ca8:	058a                	slli	a1,a1,0x2
   15caa:	96be                	add	a3,a3,a5
   15cac:	95aa                	add	a1,a1,a0
   15cae:	02d7f163          	bgeu	a5,a3,15cd0 <__copybits+0x38>
   15cb2:	872a                	mv	a4,a0
   15cb4:	0007a803          	lw	a6,0(a5)
   15cb8:	0791                	addi	a5,a5,4
   15cba:	0711                	addi	a4,a4,4 # 100004 <__BSS_END__+0xe4c5c>
   15cbc:	ff072e23          	sw	a6,-4(a4)
   15cc0:	fed7eae3          	bltu	a5,a3,15cb4 <__copybits+0x1c>
   15cc4:	40c687b3          	sub	a5,a3,a2
   15cc8:	179d                	addi	a5,a5,-25
   15cca:	9bf1                	andi	a5,a5,-4
   15ccc:	0791                	addi	a5,a5,4
   15cce:	953e                	add	a0,a0,a5
   15cd0:	00b57763          	bgeu	a0,a1,15cde <__copybits+0x46>
   15cd4:	0511                	addi	a0,a0,4
   15cd6:	fe052e23          	sw	zero,-4(a0)
   15cda:	feb56de3          	bltu	a0,a1,15cd4 <__copybits+0x3c>
   15cde:	8082                	ret

0000000000015ce0 <__any_on>:
   15ce0:	4958                	lw	a4,20(a0)
   15ce2:	4055d613          	srai	a2,a1,0x5
   15ce6:	01850693          	addi	a3,a0,24
   15cea:	00c75d63          	bge	a4,a2,15d04 <__any_on+0x24>
   15cee:	070a                	slli	a4,a4,0x2
   15cf0:	00e687b3          	add	a5,a3,a4
   15cf4:	02f6f863          	bgeu	a3,a5,15d24 <__any_on+0x44>
   15cf8:	ffc7a703          	lw	a4,-4(a5)
   15cfc:	17f1                	addi	a5,a5,-4
   15cfe:	db7d                	beqz	a4,15cf4 <__any_on+0x14>
   15d00:	4505                	li	a0,1
   15d02:	8082                	ret
   15d04:	00261793          	slli	a5,a2,0x2
   15d08:	97b6                	add	a5,a5,a3
   15d0a:	fee655e3          	bge	a2,a4,15cf4 <__any_on+0x14>
   15d0e:	89fd                	andi	a1,a1,31
   15d10:	d1f5                	beqz	a1,15cf4 <__any_on+0x14>
   15d12:	4390                	lw	a2,0(a5)
   15d14:	4505                	li	a0,1
   15d16:	00b6573b          	srlw	a4,a2,a1
   15d1a:	00b7173b          	sllw	a4,a4,a1
   15d1e:	fcc70be3          	beq	a4,a2,15cf4 <__any_on+0x14>
   15d22:	8082                	ret
   15d24:	4501                	li	a0,0
   15d26:	8082                	ret

0000000000015d28 <_realloc_r>:
   15d28:	715d                	addi	sp,sp,-80
   15d2a:	f84a                	sd	s2,48(sp)
   15d2c:	e486                	sd	ra,72(sp)
   15d2e:	8932                	mv	s2,a2
   15d30:	16058363          	beqz	a1,15e96 <_realloc_r+0x16e>
   15d34:	e0a2                	sd	s0,64(sp)
   15d36:	fc26                	sd	s1,56(sp)
   15d38:	842e                	mv	s0,a1
   15d3a:	f44e                	sd	s3,40(sp)
   15d3c:	f052                	sd	s4,32(sp)
   15d3e:	ec56                	sd	s5,24(sp)
   15d40:	89aa                	mv	s3,a0
   15d42:	d1efb0ef          	jal	11260 <__malloc_lock>
   15d46:	ff843783          	ld	a5,-8(s0)
   15d4a:	01790493          	addi	s1,s2,23
   15d4e:	02e00713          	li	a4,46
   15d52:	ff040a93          	addi	s5,s0,-16
   15d56:	ffc7fa13          	andi	s4,a5,-4
   15d5a:	0c977363          	bgeu	a4,s1,15e20 <_realloc_r+0xf8>
   15d5e:	80000737          	lui	a4,0x80000
   15d62:	98c1                	andi	s1,s1,-16
   15d64:	fff74713          	not	a4,a4
   15d68:	0c976063          	bltu	a4,s1,15e28 <_realloc_r+0x100>
   15d6c:	0b24ee63          	bltu	s1,s2,15e28 <_realloc_r+0x100>
   15d70:	0c9a5763          	bge	s4,s1,15e3e <_realloc_r+0x116>
   15d74:	6769                	lui	a4,0x1a
   15d76:	e062                	sd	s8,0(sp)
   15d78:	39870c13          	addi	s8,a4,920 # 1a398 <__malloc_av_>
   15d7c:	010c3603          	ld	a2,16(s8)
   15d80:	014a86b3          	add	a3,s5,s4
   15d84:	6698                	ld	a4,8(a3)
   15d86:	12d60f63          	beq	a2,a3,15ec4 <_realloc_r+0x19c>
   15d8a:	ffe77613          	andi	a2,a4,-2
   15d8e:	9636                	add	a2,a2,a3
   15d90:	6610                	ld	a2,8(a2)
   15d92:	8a05                	andi	a2,a2,1
   15d94:	e66d                	bnez	a2,15e7e <_realloc_r+0x156>
   15d96:	9b71                	andi	a4,a4,-4
   15d98:	00ea0633          	add	a2,s4,a4
   15d9c:	08965b63          	bge	a2,s1,15e32 <_realloc_r+0x10a>
   15da0:	8b85                	andi	a5,a5,1
   15da2:	e78d                	bnez	a5,15dcc <_realloc_r+0xa4>
   15da4:	e45e                	sd	s7,8(sp)
   15da6:	ff043b83          	ld	s7,-16(s0)
   15daa:	e85a                	sd	s6,16(sp)
   15dac:	417a8bb3          	sub	s7,s5,s7
   15db0:	008bb783          	ld	a5,8(s7)
   15db4:	9bf1                	andi	a5,a5,-4
   15db6:	973e                	add	a4,a4,a5
   15db8:	01470b33          	add	s6,a4,s4
   15dbc:	249b5563          	bge	s6,s1,16006 <_realloc_r+0x2de>
   15dc0:	00fa0b33          	add	s6,s4,a5
   15dc4:	1c9b5763          	bge	s6,s1,15f92 <_realloc_r+0x26a>
   15dc8:	6b42                	ld	s6,16(sp)
   15dca:	6ba2                	ld	s7,8(sp)
   15dcc:	85ca                	mv	a1,s2
   15dce:	854e                	mv	a0,s3
   15dd0:	e8ffa0ef          	jal	10c5e <_malloc_r>
   15dd4:	892a                	mv	s2,a0
   15dd6:	2e050863          	beqz	a0,160c6 <_realloc_r+0x39e>
   15dda:	ff843783          	ld	a5,-8(s0)
   15dde:	ff050713          	addi	a4,a0,-16
   15de2:	9bf9                	andi	a5,a5,-2
   15de4:	97d6                	add	a5,a5,s5
   15de6:	1ae78063          	beq	a5,a4,15f86 <_realloc_r+0x25e>
   15dea:	ff8a0613          	addi	a2,s4,-8
   15dee:	04800793          	li	a5,72
   15df2:	20c7e663          	bltu	a5,a2,15ffe <_realloc_r+0x2d6>
   15df6:	02700713          	li	a4,39
   15dfa:	16c76963          	bltu	a4,a2,15f6c <_realloc_r+0x244>
   15dfe:	87aa                	mv	a5,a0
   15e00:	8722                	mv	a4,s0
   15e02:	6314                	ld	a3,0(a4)
   15e04:	e394                	sd	a3,0(a5)
   15e06:	6714                	ld	a3,8(a4)
   15e08:	e794                	sd	a3,8(a5)
   15e0a:	6b18                	ld	a4,16(a4)
   15e0c:	eb98                	sd	a4,16(a5)
   15e0e:	85a2                	mv	a1,s0
   15e10:	854e                	mv	a0,s3
   15e12:	c09fa0ef          	jal	10a1a <_free_r>
   15e16:	854e                	mv	a0,s3
   15e18:	c4afb0ef          	jal	11262 <__malloc_unlock>
   15e1c:	6c02                	ld	s8,0(sp)
   15e1e:	a0b1                	j	15e6a <_realloc_r+0x142>
   15e20:	02000493          	li	s1,32
   15e24:	f524f6e3          	bgeu	s1,s2,15d70 <_realloc_r+0x48>
   15e28:	47b1                	li	a5,12
   15e2a:	00f9a023          	sw	a5,0(s3)
   15e2e:	4901                	li	s2,0
   15e30:	a82d                	j	15e6a <_realloc_r+0x142>
   15e32:	6e9c                	ld	a5,24(a3)
   15e34:	6a98                	ld	a4,16(a3)
   15e36:	6c02                	ld	s8,0(sp)
   15e38:	8a32                	mv	s4,a2
   15e3a:	ef1c                	sd	a5,24(a4)
   15e3c:	eb98                	sd	a4,16(a5)
   15e3e:	008ab783          	ld	a5,8(s5)
   15e42:	409a06b3          	sub	a3,s4,s1
   15e46:	467d                	li	a2,31
   15e48:	8b85                	andi	a5,a5,1
   15e4a:	014a8733          	add	a4,s5,s4
   15e4e:	04d66a63          	bltu	a2,a3,15ea2 <_realloc_r+0x17a>
   15e52:	0147e7b3          	or	a5,a5,s4
   15e56:	00fab423          	sd	a5,8(s5)
   15e5a:	671c                	ld	a5,8(a4)
   15e5c:	0017e793          	ori	a5,a5,1
   15e60:	e71c                	sd	a5,8(a4)
   15e62:	854e                	mv	a0,s3
   15e64:	bfefb0ef          	jal	11262 <__malloc_unlock>
   15e68:	8922                	mv	s2,s0
   15e6a:	6406                	ld	s0,64(sp)
   15e6c:	60a6                	ld	ra,72(sp)
   15e6e:	74e2                	ld	s1,56(sp)
   15e70:	79a2                	ld	s3,40(sp)
   15e72:	7a02                	ld	s4,32(sp)
   15e74:	6ae2                	ld	s5,24(sp)
   15e76:	854a                	mv	a0,s2
   15e78:	7942                	ld	s2,48(sp)
   15e7a:	6161                	addi	sp,sp,80
   15e7c:	8082                	ret
   15e7e:	8b85                	andi	a5,a5,1
   15e80:	f7b1                	bnez	a5,15dcc <_realloc_r+0xa4>
   15e82:	e45e                	sd	s7,8(sp)
   15e84:	ff043b83          	ld	s7,-16(s0)
   15e88:	e85a                	sd	s6,16(sp)
   15e8a:	417a8bb3          	sub	s7,s5,s7
   15e8e:	008bb783          	ld	a5,8(s7)
   15e92:	9bf1                	andi	a5,a5,-4
   15e94:	b735                	j	15dc0 <_realloc_r+0x98>
   15e96:	60a6                	ld	ra,72(sp)
   15e98:	7942                	ld	s2,48(sp)
   15e9a:	85b2                	mv	a1,a2
   15e9c:	6161                	addi	sp,sp,80
   15e9e:	dc1fa06f          	j	10c5e <_malloc_r>
   15ea2:	8fc5                	or	a5,a5,s1
   15ea4:	00fab423          	sd	a5,8(s5)
   15ea8:	009a85b3          	add	a1,s5,s1
   15eac:	0016e693          	ori	a3,a3,1
   15eb0:	e594                	sd	a3,8(a1)
   15eb2:	671c                	ld	a5,8(a4)
   15eb4:	05c1                	addi	a1,a1,16
   15eb6:	854e                	mv	a0,s3
   15eb8:	0017e793          	ori	a5,a5,1
   15ebc:	e71c                	sd	a5,8(a4)
   15ebe:	b5dfa0ef          	jal	10a1a <_free_r>
   15ec2:	b745                	j	15e62 <_realloc_r+0x13a>
   15ec4:	9b71                	andi	a4,a4,-4
   15ec6:	014706b3          	add	a3,a4,s4
   15eca:	02048613          	addi	a2,s1,32
   15ece:	1cc6d363          	bge	a3,a2,16094 <_realloc_r+0x36c>
   15ed2:	8b85                	andi	a5,a5,1
   15ed4:	ee079ce3          	bnez	a5,15dcc <_realloc_r+0xa4>
   15ed8:	e45e                	sd	s7,8(sp)
   15eda:	ff043b83          	ld	s7,-16(s0)
   15ede:	e85a                	sd	s6,16(sp)
   15ee0:	417a8bb3          	sub	s7,s5,s7
   15ee4:	008bb783          	ld	a5,8(s7)
   15ee8:	9bf1                	andi	a5,a5,-4
   15eea:	973e                	add	a4,a4,a5
   15eec:	01470b33          	add	s6,a4,s4
   15ef0:	eccb48e3          	blt	s6,a2,15dc0 <_realloc_r+0x98>
   15ef4:	018bb783          	ld	a5,24(s7)
   15ef8:	010bb703          	ld	a4,16(s7)
   15efc:	ff8a0613          	addi	a2,s4,-8
   15f00:	04800693          	li	a3,72
   15f04:	ef1c                	sd	a5,24(a4)
   15f06:	eb98                	sd	a4,16(a5)
   15f08:	010b8913          	addi	s2,s7,16
   15f0c:	1cc6ec63          	bltu	a3,a2,160e4 <_realloc_r+0x3bc>
   15f10:	02700713          	li	a4,39
   15f14:	87ca                	mv	a5,s2
   15f16:	00c77f63          	bgeu	a4,a2,15f34 <_realloc_r+0x20c>
   15f1a:	6018                	ld	a4,0(s0)
   15f1c:	03700793          	li	a5,55
   15f20:	00ebb823          	sd	a4,16(s7)
   15f24:	6418                	ld	a4,8(s0)
   15f26:	00ebbc23          	sd	a4,24(s7)
   15f2a:	1cc7e263          	bltu	a5,a2,160ee <_realloc_r+0x3c6>
   15f2e:	0441                	addi	s0,s0,16
   15f30:	020b8793          	addi	a5,s7,32
   15f34:	6018                	ld	a4,0(s0)
   15f36:	e398                	sd	a4,0(a5)
   15f38:	6418                	ld	a4,8(s0)
   15f3a:	e798                	sd	a4,8(a5)
   15f3c:	6818                	ld	a4,16(s0)
   15f3e:	eb98                	sd	a4,16(a5)
   15f40:	009b8733          	add	a4,s7,s1
   15f44:	409b07b3          	sub	a5,s6,s1
   15f48:	00ec3823          	sd	a4,16(s8)
   15f4c:	0017e793          	ori	a5,a5,1
   15f50:	e71c                	sd	a5,8(a4)
   15f52:	008bb783          	ld	a5,8(s7)
   15f56:	854e                	mv	a0,s3
   15f58:	8b85                	andi	a5,a5,1
   15f5a:	8fc5                	or	a5,a5,s1
   15f5c:	00fbb423          	sd	a5,8(s7)
   15f60:	b02fb0ef          	jal	11262 <__malloc_unlock>
   15f64:	6b42                	ld	s6,16(sp)
   15f66:	6ba2                	ld	s7,8(sp)
   15f68:	6c02                	ld	s8,0(sp)
   15f6a:	b701                	j	15e6a <_realloc_r+0x142>
   15f6c:	6014                	ld	a3,0(s0)
   15f6e:	03700713          	li	a4,55
   15f72:	e114                	sd	a3,0(a0)
   15f74:	6414                	ld	a3,8(s0)
   15f76:	e514                	sd	a3,8(a0)
   15f78:	10c76363          	bltu	a4,a2,1607e <_realloc_r+0x356>
   15f7c:	01040713          	addi	a4,s0,16
   15f80:	01050793          	addi	a5,a0,16
   15f84:	bdbd                	j	15e02 <_realloc_r+0xda>
   15f86:	ff853783          	ld	a5,-8(a0)
   15f8a:	6c02                	ld	s8,0(sp)
   15f8c:	9bf1                	andi	a5,a5,-4
   15f8e:	9a3e                	add	s4,s4,a5
   15f90:	b57d                	j	15e3e <_realloc_r+0x116>
   15f92:	018bb783          	ld	a5,24(s7)
   15f96:	010bb703          	ld	a4,16(s7)
   15f9a:	ff8a0613          	addi	a2,s4,-8
   15f9e:	04800693          	li	a3,72
   15fa2:	ef1c                	sd	a5,24(a4)
   15fa4:	eb98                	sd	a4,16(a5)
   15fa6:	010b8913          	addi	s2,s7,16
   15faa:	0cc6e563          	bltu	a3,a2,16074 <_realloc_r+0x34c>
   15fae:	02700713          	li	a4,39
   15fb2:	87ca                	mv	a5,s2
   15fb4:	02c77863          	bgeu	a4,a2,15fe4 <_realloc_r+0x2bc>
   15fb8:	6018                	ld	a4,0(s0)
   15fba:	03700793          	li	a5,55
   15fbe:	00ebb823          	sd	a4,16(s7)
   15fc2:	6418                	ld	a4,8(s0)
   15fc4:	00ebbc23          	sd	a4,24(s7)
   15fc8:	0ec7fb63          	bgeu	a5,a2,160be <_realloc_r+0x396>
   15fcc:	681c                	ld	a5,16(s0)
   15fce:	02fbb023          	sd	a5,32(s7)
   15fd2:	6c1c                	ld	a5,24(s0)
   15fd4:	02fbb423          	sd	a5,40(s7)
   15fd8:	08d60263          	beq	a2,a3,1605c <_realloc_r+0x334>
   15fdc:	02040413          	addi	s0,s0,32
   15fe0:	030b8793          	addi	a5,s7,48
   15fe4:	6018                	ld	a4,0(s0)
   15fe6:	e398                	sd	a4,0(a5)
   15fe8:	6418                	ld	a4,8(s0)
   15fea:	e798                	sd	a4,8(a5)
   15fec:	6818                	ld	a4,16(s0)
   15fee:	eb98                	sd	a4,16(a5)
   15ff0:	8a5a                	mv	s4,s6
   15ff2:	8ade                	mv	s5,s7
   15ff4:	6b42                	ld	s6,16(sp)
   15ff6:	6ba2                	ld	s7,8(sp)
   15ff8:	6c02                	ld	s8,0(sp)
   15ffa:	844a                	mv	s0,s2
   15ffc:	b589                	j	15e3e <_realloc_r+0x116>
   15ffe:	85a2                	mv	a1,s0
   16000:	f44fd0ef          	jal	13744 <memmove>
   16004:	b529                	j	15e0e <_realloc_r+0xe6>
   16006:	6e9c                	ld	a5,24(a3)
   16008:	6a98                	ld	a4,16(a3)
   1600a:	ff8a0613          	addi	a2,s4,-8
   1600e:	04800693          	li	a3,72
   16012:	ef1c                	sd	a5,24(a4)
   16014:	eb98                	sd	a4,16(a5)
   16016:	010bb703          	ld	a4,16(s7)
   1601a:	018bb783          	ld	a5,24(s7)
   1601e:	010b8913          	addi	s2,s7,16
   16022:	ef1c                	sd	a5,24(a4)
   16024:	eb98                	sd	a4,16(a5)
   16026:	04c6e763          	bltu	a3,a2,16074 <_realloc_r+0x34c>
   1602a:	02700713          	li	a4,39
   1602e:	87ca                	mv	a5,s2
   16030:	fac77ae3          	bgeu	a4,a2,15fe4 <_realloc_r+0x2bc>
   16034:	6018                	ld	a4,0(s0)
   16036:	03700793          	li	a5,55
   1603a:	00ebb823          	sd	a4,16(s7)
   1603e:	6418                	ld	a4,8(s0)
   16040:	00ebbc23          	sd	a4,24(s7)
   16044:	06c7fd63          	bgeu	a5,a2,160be <_realloc_r+0x396>
   16048:	6818                	ld	a4,16(s0)
   1604a:	04800793          	li	a5,72
   1604e:	02ebb023          	sd	a4,32(s7)
   16052:	6c18                	ld	a4,24(s0)
   16054:	02ebb423          	sd	a4,40(s7)
   16058:	f8f612e3          	bne	a2,a5,15fdc <_realloc_r+0x2b4>
   1605c:	7018                	ld	a4,32(s0)
   1605e:	040b8793          	addi	a5,s7,64
   16062:	03040413          	addi	s0,s0,48
   16066:	02ebb823          	sd	a4,48(s7)
   1606a:	ff843703          	ld	a4,-8(s0)
   1606e:	02ebbc23          	sd	a4,56(s7)
   16072:	bf8d                	j	15fe4 <_realloc_r+0x2bc>
   16074:	85a2                	mv	a1,s0
   16076:	854a                	mv	a0,s2
   16078:	eccfd0ef          	jal	13744 <memmove>
   1607c:	bf95                	j	15ff0 <_realloc_r+0x2c8>
   1607e:	6818                	ld	a4,16(s0)
   16080:	e918                	sd	a4,16(a0)
   16082:	6c18                	ld	a4,24(s0)
   16084:	ed18                	sd	a4,24(a0)
   16086:	04f60663          	beq	a2,a5,160d2 <_realloc_r+0x3aa>
   1608a:	02040713          	addi	a4,s0,32
   1608e:	02050793          	addi	a5,a0,32
   16092:	bb85                	j	15e02 <_realloc_r+0xda>
   16094:	9aa6                	add	s5,s5,s1
   16096:	409687b3          	sub	a5,a3,s1
   1609a:	015c3823          	sd	s5,16(s8)
   1609e:	0017e793          	ori	a5,a5,1
   160a2:	00fab423          	sd	a5,8(s5)
   160a6:	ff843783          	ld	a5,-8(s0)
   160aa:	854e                	mv	a0,s3
   160ac:	8922                	mv	s2,s0
   160ae:	8b85                	andi	a5,a5,1
   160b0:	8fc5                	or	a5,a5,s1
   160b2:	fef43c23          	sd	a5,-8(s0)
   160b6:	9acfb0ef          	jal	11262 <__malloc_unlock>
   160ba:	6c02                	ld	s8,0(sp)
   160bc:	b37d                	j	15e6a <_realloc_r+0x142>
   160be:	0441                	addi	s0,s0,16
   160c0:	020b8793          	addi	a5,s7,32
   160c4:	b705                	j	15fe4 <_realloc_r+0x2bc>
   160c6:	854e                	mv	a0,s3
   160c8:	99afb0ef          	jal	11262 <__malloc_unlock>
   160cc:	4901                	li	s2,0
   160ce:	6c02                	ld	s8,0(sp)
   160d0:	bb69                	j	15e6a <_realloc_r+0x142>
   160d2:	7014                	ld	a3,32(s0)
   160d4:	03040713          	addi	a4,s0,48
   160d8:	03050793          	addi	a5,a0,48
   160dc:	f114                	sd	a3,32(a0)
   160de:	7414                	ld	a3,40(s0)
   160e0:	f514                	sd	a3,40(a0)
   160e2:	b305                	j	15e02 <_realloc_r+0xda>
   160e4:	85a2                	mv	a1,s0
   160e6:	854a                	mv	a0,s2
   160e8:	e5cfd0ef          	jal	13744 <memmove>
   160ec:	bd91                	j	15f40 <_realloc_r+0x218>
   160ee:	681c                	ld	a5,16(s0)
   160f0:	02fbb023          	sd	a5,32(s7)
   160f4:	6c1c                	ld	a5,24(s0)
   160f6:	02fbb423          	sd	a5,40(s7)
   160fa:	00d60763          	beq	a2,a3,16108 <_realloc_r+0x3e0>
   160fe:	02040413          	addi	s0,s0,32
   16102:	030b8793          	addi	a5,s7,48
   16106:	b53d                	j	15f34 <_realloc_r+0x20c>
   16108:	7018                	ld	a4,32(s0)
   1610a:	040b8793          	addi	a5,s7,64
   1610e:	03040413          	addi	s0,s0,48
   16112:	02ebb823          	sd	a4,48(s7)
   16116:	ff843703          	ld	a4,-8(s0)
   1611a:	02ebbc23          	sd	a4,56(s7)
   1611e:	bd19                	j	15f34 <_realloc_r+0x20c>

0000000000016120 <__smakebuf_r>:
   16120:	01059783          	lh	a5,16(a1)
   16124:	7135                	addi	sp,sp,-160
   16126:	e922                	sd	s0,144(sp)
   16128:	ed06                	sd	ra,152(sp)
   1612a:	0027f713          	andi	a4,a5,2
   1612e:	842e                	mv	s0,a1
   16130:	cb19                	beqz	a4,16146 <__smakebuf_r+0x26>
   16132:	07758793          	addi	a5,a1,119
   16136:	e19c                	sd	a5,0(a1)
   16138:	ed9c                	sd	a5,24(a1)
   1613a:	4785                	li	a5,1
   1613c:	d19c                	sw	a5,32(a1)
   1613e:	60ea                	ld	ra,152(sp)
   16140:	644a                	ld	s0,144(sp)
   16142:	610d                	addi	sp,sp,160
   16144:	8082                	ret
   16146:	01259583          	lh	a1,18(a1)
   1614a:	e526                	sd	s1,136(sp)
   1614c:	e14a                	sd	s2,128(sp)
   1614e:	fcce                	sd	s3,120(sp)
   16150:	f8d2                	sd	s4,112(sp)
   16152:	84aa                	mv	s1,a0
   16154:	0605c463          	bltz	a1,161bc <__smakebuf_r+0x9c>
   16158:	0030                	addi	a2,sp,8
   1615a:	206000ef          	jal	16360 <_fstat_r>
   1615e:	04054d63          	bltz	a0,161b8 <__smakebuf_r+0x98>
   16162:	4932                	lw	s2,12(sp)
   16164:	67bd                	lui	a5,0xf
   16166:	6985                	lui	s3,0x1
   16168:	00f97933          	and	s2,s2,a5
   1616c:	6789                	lui	a5,0x2
   1616e:	40f90933          	sub	s2,s2,a5
   16172:	00193913          	seqz	s2,s2
   16176:	40000a13          	li	s4,1024
   1617a:	80098993          	addi	s3,s3,-2048 # 800 <exit-0xf8e8>
   1617e:	85d2                	mv	a1,s4
   16180:	8526                	mv	a0,s1
   16182:	addfa0ef          	jal	10c5e <_malloc_r>
   16186:	01041783          	lh	a5,16(s0)
   1618a:	c539                	beqz	a0,161d8 <__smakebuf_r+0xb8>
   1618c:	0807e793          	ori	a5,a5,128
   16190:	e008                	sd	a0,0(s0)
   16192:	ec08                	sd	a0,24(s0)
   16194:	00f41823          	sh	a5,16(s0)
   16198:	03442023          	sw	s4,32(s0)
   1619c:	06091563          	bnez	s2,16206 <__smakebuf_r+0xe6>
   161a0:	0137e7b3          	or	a5,a5,s3
   161a4:	60ea                	ld	ra,152(sp)
   161a6:	00f41823          	sh	a5,16(s0)
   161aa:	644a                	ld	s0,144(sp)
   161ac:	64aa                	ld	s1,136(sp)
   161ae:	690a                	ld	s2,128(sp)
   161b0:	79e6                	ld	s3,120(sp)
   161b2:	7a46                	ld	s4,112(sp)
   161b4:	610d                	addi	sp,sp,160
   161b6:	8082                	ret
   161b8:	01041783          	lh	a5,16(s0)
   161bc:	0807f793          	andi	a5,a5,128
   161c0:	4901                	li	s2,0
   161c2:	cf95                	beqz	a5,161fe <__smakebuf_r+0xde>
   161c4:	04000a13          	li	s4,64
   161c8:	85d2                	mv	a1,s4
   161ca:	8526                	mv	a0,s1
   161cc:	a93fa0ef          	jal	10c5e <_malloc_r>
   161d0:	01041783          	lh	a5,16(s0)
   161d4:	4981                	li	s3,0
   161d6:	f95d                	bnez	a0,1618c <__smakebuf_r+0x6c>
   161d8:	2007f713          	andi	a4,a5,512
   161dc:	ef15                	bnez	a4,16218 <__smakebuf_r+0xf8>
   161de:	9bf1                	andi	a5,a5,-4
   161e0:	0027e793          	ori	a5,a5,2
   161e4:	07740713          	addi	a4,s0,119
   161e8:	00f41823          	sh	a5,16(s0)
   161ec:	4785                	li	a5,1
   161ee:	64aa                	ld	s1,136(sp)
   161f0:	690a                	ld	s2,128(sp)
   161f2:	79e6                	ld	s3,120(sp)
   161f4:	7a46                	ld	s4,112(sp)
   161f6:	e018                	sd	a4,0(s0)
   161f8:	ec18                	sd	a4,24(s0)
   161fa:	d01c                	sw	a5,32(s0)
   161fc:	b789                	j	1613e <__smakebuf_r+0x1e>
   161fe:	40000a13          	li	s4,1024
   16202:	4981                	li	s3,0
   16204:	bfad                	j	1617e <__smakebuf_r+0x5e>
   16206:	01241583          	lh	a1,18(s0)
   1620a:	8526                	mv	a0,s1
   1620c:	18e000ef          	jal	1639a <_isatty_r>
   16210:	e909                	bnez	a0,16222 <__smakebuf_r+0x102>
   16212:	01041783          	lh	a5,16(s0)
   16216:	b769                	j	161a0 <__smakebuf_r+0x80>
   16218:	64aa                	ld	s1,136(sp)
   1621a:	690a                	ld	s2,128(sp)
   1621c:	79e6                	ld	s3,120(sp)
   1621e:	7a46                	ld	s4,112(sp)
   16220:	bf39                	j	1613e <__smakebuf_r+0x1e>
   16222:	01045783          	lhu	a5,16(s0)
   16226:	9bf1                	andi	a5,a5,-4
   16228:	0017e793          	ori	a5,a5,1
   1622c:	0107979b          	slliw	a5,a5,0x10
   16230:	4107d79b          	sraiw	a5,a5,0x10
   16234:	b7b5                	j	161a0 <__smakebuf_r+0x80>

0000000000016236 <__swhatbuf_r>:
   16236:	7175                	addi	sp,sp,-144
   16238:	e122                	sd	s0,128(sp)
   1623a:	842e                	mv	s0,a1
   1623c:	01259583          	lh	a1,18(a1)
   16240:	fca6                	sd	s1,120(sp)
   16242:	f8ca                	sd	s2,112(sp)
   16244:	e506                	sd	ra,136(sp)
   16246:	84b2                	mv	s1,a2
   16248:	8936                	mv	s2,a3
   1624a:	0205cc63          	bltz	a1,16282 <__swhatbuf_r+0x4c>
   1624e:	0030                	addi	a2,sp,8
   16250:	110000ef          	jal	16360 <_fstat_r>
   16254:	02054763          	bltz	a0,16282 <__swhatbuf_r+0x4c>
   16258:	47b2                	lw	a5,12(sp)
   1625a:	673d                	lui	a4,0xf
   1625c:	60aa                	ld	ra,136(sp)
   1625e:	8ff9                	and	a5,a5,a4
   16260:	6709                	lui	a4,0x2
   16262:	8f99                	sub	a5,a5,a4
   16264:	640a                	ld	s0,128(sp)
   16266:	0017b793          	seqz	a5,a5
   1626a:	00f92023          	sw	a5,0(s2)
   1626e:	40000713          	li	a4,1024
   16272:	e098                	sd	a4,0(s1)
   16274:	6505                	lui	a0,0x1
   16276:	74e6                	ld	s1,120(sp)
   16278:	7946                	ld	s2,112(sp)
   1627a:	80050513          	addi	a0,a0,-2048 # 800 <exit-0xf8e8>
   1627e:	6149                	addi	sp,sp,144
   16280:	8082                	ret
   16282:	01045783          	lhu	a5,16(s0)
   16286:	0807f793          	andi	a5,a5,128
   1628a:	cf91                	beqz	a5,162a6 <__swhatbuf_r+0x70>
   1628c:	60aa                	ld	ra,136(sp)
   1628e:	640a                	ld	s0,128(sp)
   16290:	4781                	li	a5,0
   16292:	00f92023          	sw	a5,0(s2)
   16296:	04000713          	li	a4,64
   1629a:	e098                	sd	a4,0(s1)
   1629c:	7946                	ld	s2,112(sp)
   1629e:	74e6                	ld	s1,120(sp)
   162a0:	4501                	li	a0,0
   162a2:	6149                	addi	sp,sp,144
   162a4:	8082                	ret
   162a6:	60aa                	ld	ra,136(sp)
   162a8:	640a                	ld	s0,128(sp)
   162aa:	00f92023          	sw	a5,0(s2)
   162ae:	40000713          	li	a4,1024
   162b2:	e098                	sd	a4,0(s1)
   162b4:	7946                	ld	s2,112(sp)
   162b6:	74e6                	ld	s1,120(sp)
   162b8:	4501                	li	a0,0
   162ba:	6149                	addi	sp,sp,144
   162bc:	8082                	ret

00000000000162be <_setlocale_r>:
   162be:	1101                	addi	sp,sp,-32
   162c0:	ec06                	sd	ra,24(sp)
   162c2:	e426                	sd	s1,8(sp)
   162c4:	c215                	beqz	a2,162e8 <_setlocale_r+0x2a>
   162c6:	65e5                	lui	a1,0x19
   162c8:	b5858593          	addi	a1,a1,-1192 # 18b58 <__clzdi2+0x182>
   162cc:	8532                	mv	a0,a2
   162ce:	e822                	sd	s0,16(sp)
   162d0:	8432                	mv	s0,a2
   162d2:	0fe000ef          	jal	163d0 <strcmp>
   162d6:	64e5                	lui	s1,0x19
   162d8:	e911                	bnez	a0,162ec <_setlocale_r+0x2e>
   162da:	6442                	ld	s0,16(sp)
   162dc:	b5048513          	addi	a0,s1,-1200 # 18b50 <__clzdi2+0x17a>
   162e0:	60e2                	ld	ra,24(sp)
   162e2:	64a2                	ld	s1,8(sp)
   162e4:	6105                	addi	sp,sp,32
   162e6:	8082                	ret
   162e8:	64e5                	lui	s1,0x19
   162ea:	bfcd                	j	162dc <_setlocale_r+0x1e>
   162ec:	b5048593          	addi	a1,s1,-1200 # 18b50 <__clzdi2+0x17a>
   162f0:	8522                	mv	a0,s0
   162f2:	0de000ef          	jal	163d0 <strcmp>
   162f6:	d175                	beqz	a0,162da <_setlocale_r+0x1c>
   162f8:	65e5                	lui	a1,0x19
   162fa:	a6858593          	addi	a1,a1,-1432 # 18a68 <__clzdi2+0x92>
   162fe:	8522                	mv	a0,s0
   16300:	0d0000ef          	jal	163d0 <strcmp>
   16304:	d979                	beqz	a0,162da <_setlocale_r+0x1c>
   16306:	6442                	ld	s0,16(sp)
   16308:	4501                	li	a0,0
   1630a:	bfd9                	j	162e0 <_setlocale_r+0x22>

000000000001630c <__locale_mb_cur_max>:
   1630c:	1601c503          	lbu	a0,352(gp) # 1ad08 <__global_locale+0x160>
   16310:	8082                	ret

0000000000016312 <setlocale>:
   16312:	1101                	addi	sp,sp,-32
   16314:	ec06                	sd	ra,24(sp)
   16316:	e426                	sd	s1,8(sp)
   16318:	c195                	beqz	a1,1633c <setlocale+0x2a>
   1631a:	e822                	sd	s0,16(sp)
   1631c:	842e                	mv	s0,a1
   1631e:	65e5                	lui	a1,0x19
   16320:	b5858593          	addi	a1,a1,-1192 # 18b58 <__clzdi2+0x182>
   16324:	8522                	mv	a0,s0
   16326:	0aa000ef          	jal	163d0 <strcmp>
   1632a:	64e5                	lui	s1,0x19
   1632c:	e911                	bnez	a0,16340 <setlocale+0x2e>
   1632e:	6442                	ld	s0,16(sp)
   16330:	b5048513          	addi	a0,s1,-1200 # 18b50 <__clzdi2+0x17a>
   16334:	60e2                	ld	ra,24(sp)
   16336:	64a2                	ld	s1,8(sp)
   16338:	6105                	addi	sp,sp,32
   1633a:	8082                	ret
   1633c:	64e5                	lui	s1,0x19
   1633e:	bfcd                	j	16330 <setlocale+0x1e>
   16340:	b5048593          	addi	a1,s1,-1200 # 18b50 <__clzdi2+0x17a>
   16344:	8522                	mv	a0,s0
   16346:	08a000ef          	jal	163d0 <strcmp>
   1634a:	d175                	beqz	a0,1632e <setlocale+0x1c>
   1634c:	65e5                	lui	a1,0x19
   1634e:	a6858593          	addi	a1,a1,-1432 # 18a68 <__clzdi2+0x92>
   16352:	8522                	mv	a0,s0
   16354:	07c000ef          	jal	163d0 <strcmp>
   16358:	d979                	beqz	a0,1632e <setlocale+0x1c>
   1635a:	6442                	ld	s0,16(sp)
   1635c:	4501                	li	a0,0
   1635e:	bfd9                	j	16334 <setlocale+0x22>

0000000000016360 <_fstat_r>:
   16360:	1101                	addi	sp,sp,-32
   16362:	872e                	mv	a4,a1
   16364:	e822                	sd	s0,16(sp)
   16366:	e426                	sd	s1,8(sp)
   16368:	842a                	mv	s0,a0
   1636a:	85b2                	mv	a1,a2
   1636c:	853a                	mv	a0,a4
   1636e:	ec06                	sd	ra,24(sp)
   16370:	2401a023          	sw	zero,576(gp) # 1ade8 <errno>
   16374:	2f0010ef          	jal	17664 <_fstat>
   16378:	57fd                	li	a5,-1
   1637a:	00f50763          	beq	a0,a5,16388 <_fstat_r+0x28>
   1637e:	60e2                	ld	ra,24(sp)
   16380:	6442                	ld	s0,16(sp)
   16382:	64a2                	ld	s1,8(sp)
   16384:	6105                	addi	sp,sp,32
   16386:	8082                	ret
   16388:	2401a783          	lw	a5,576(gp) # 1ade8 <errno>
   1638c:	dbed                	beqz	a5,1637e <_fstat_r+0x1e>
   1638e:	60e2                	ld	ra,24(sp)
   16390:	c01c                	sw	a5,0(s0)
   16392:	6442                	ld	s0,16(sp)
   16394:	64a2                	ld	s1,8(sp)
   16396:	6105                	addi	sp,sp,32
   16398:	8082                	ret

000000000001639a <_isatty_r>:
   1639a:	1101                	addi	sp,sp,-32
   1639c:	e822                	sd	s0,16(sp)
   1639e:	e426                	sd	s1,8(sp)
   163a0:	842a                	mv	s0,a0
   163a2:	852e                	mv	a0,a1
   163a4:	ec06                	sd	ra,24(sp)
   163a6:	2401a023          	sw	zero,576(gp) # 1ade8 <errno>
   163aa:	2fe010ef          	jal	176a8 <_isatty>
   163ae:	57fd                	li	a5,-1
   163b0:	00f50763          	beq	a0,a5,163be <_isatty_r+0x24>
   163b4:	60e2                	ld	ra,24(sp)
   163b6:	6442                	ld	s0,16(sp)
   163b8:	64a2                	ld	s1,8(sp)
   163ba:	6105                	addi	sp,sp,32
   163bc:	8082                	ret
   163be:	2401a783          	lw	a5,576(gp) # 1ade8 <errno>
   163c2:	dbed                	beqz	a5,163b4 <_isatty_r+0x1a>
   163c4:	60e2                	ld	ra,24(sp)
   163c6:	c01c                	sw	a5,0(s0)
   163c8:	6442                	ld	s0,16(sp)
   163ca:	64a2                	ld	s1,8(sp)
   163cc:	6105                	addi	sp,sp,32
   163ce:	8082                	ret

00000000000163d0 <strcmp>:
   163d0:	00b56733          	or	a4,a0,a1
   163d4:	53fd                	li	t2,-1
   163d6:	8b1d                	andi	a4,a4,7
   163d8:	eb4d                	bnez	a4,1648a <strcmp+0xba>
   163da:	00005797          	auipc	a5,0x5
   163de:	9de7b783          	ld	a5,-1570(a5) # 1adb8 <mask>
   163e2:	6110                	ld	a2,0(a0)
   163e4:	6194                	ld	a3,0(a1)
   163e6:	00f672b3          	and	t0,a2,a5
   163ea:	00f66333          	or	t1,a2,a5
   163ee:	92be                	add	t0,t0,a5
   163f0:	0062e2b3          	or	t0,t0,t1
   163f4:	0a729963          	bne	t0,t2,164a6 <strcmp+0xd6>
   163f8:	02d61e63          	bne	a2,a3,16434 <strcmp+0x64>
   163fc:	6510                	ld	a2,8(a0)
   163fe:	6594                	ld	a3,8(a1)
   16400:	00f672b3          	and	t0,a2,a5
   16404:	00f66333          	or	t1,a2,a5
   16408:	92be                	add	t0,t0,a5
   1640a:	0062e2b3          	or	t0,t0,t1
   1640e:	08729a63          	bne	t0,t2,164a2 <strcmp+0xd2>
   16412:	02d61163          	bne	a2,a3,16434 <strcmp+0x64>
   16416:	6910                	ld	a2,16(a0)
   16418:	6994                	ld	a3,16(a1)
   1641a:	00f672b3          	and	t0,a2,a5
   1641e:	00f66333          	or	t1,a2,a5
   16422:	92be                	add	t0,t0,a5
   16424:	0062e2b3          	or	t0,t0,t1
   16428:	08729363          	bne	t0,t2,164ae <strcmp+0xde>
   1642c:	0561                	addi	a0,a0,24
   1642e:	05e1                	addi	a1,a1,24
   16430:	fad609e3          	beq	a2,a3,163e2 <strcmp+0x12>
   16434:	03061713          	slli	a4,a2,0x30
   16438:	03069793          	slli	a5,a3,0x30
   1643c:	02f71863          	bne	a4,a5,1646c <strcmp+0x9c>
   16440:	02061713          	slli	a4,a2,0x20
   16444:	02069793          	slli	a5,a3,0x20
   16448:	02f71263          	bne	a4,a5,1646c <strcmp+0x9c>
   1644c:	01061713          	slli	a4,a2,0x10
   16450:	01069793          	slli	a5,a3,0x10
   16454:	00f71c63          	bne	a4,a5,1646c <strcmp+0x9c>
   16458:	03065713          	srli	a4,a2,0x30
   1645c:	0306d793          	srli	a5,a3,0x30
   16460:	40f70533          	sub	a0,a4,a5
   16464:	0ff57593          	zext.b	a1,a0
   16468:	e991                	bnez	a1,1647c <strcmp+0xac>
   1646a:	8082                	ret
   1646c:	9341                	srli	a4,a4,0x30
   1646e:	93c1                	srli	a5,a5,0x30
   16470:	40f70533          	sub	a0,a4,a5
   16474:	0ff57593          	zext.b	a1,a0
   16478:	e191                	bnez	a1,1647c <strcmp+0xac>
   1647a:	8082                	ret
   1647c:	0ff77713          	zext.b	a4,a4
   16480:	0ff7f793          	zext.b	a5,a5
   16484:	40f70533          	sub	a0,a4,a5
   16488:	8082                	ret
   1648a:	00054603          	lbu	a2,0(a0)
   1648e:	0005c683          	lbu	a3,0(a1)
   16492:	0505                	addi	a0,a0,1
   16494:	0585                	addi	a1,a1,1
   16496:	00d61363          	bne	a2,a3,1649c <strcmp+0xcc>
   1649a:	fa65                	bnez	a2,1648a <strcmp+0xba>
   1649c:	40d60533          	sub	a0,a2,a3
   164a0:	8082                	ret
   164a2:	0521                	addi	a0,a0,8
   164a4:	05a1                	addi	a1,a1,8
   164a6:	fed612e3          	bne	a2,a3,1648a <strcmp+0xba>
   164aa:	4501                	li	a0,0
   164ac:	8082                	ret
   164ae:	0541                	addi	a0,a0,16
   164b0:	05c1                	addi	a1,a1,16
   164b2:	fcd61ce3          	bne	a2,a3,1648a <strcmp+0xba>
   164b6:	4501                	li	a0,0
   164b8:	8082                	ret

00000000000164ba <__assert_func>:
   164ba:	2201b703          	ld	a4,544(gp) # 1adc8 <_impure_ptr>
   164be:	1141                	addi	sp,sp,-16
   164c0:	87b6                	mv	a5,a3
   164c2:	8832                	mv	a6,a2
   164c4:	e406                	sd	ra,8(sp)
   164c6:	01873883          	ld	a7,24(a4) # 2018 <exit-0xe0d0>
   164ca:	86aa                	mv	a3,a0
   164cc:	872e                	mv	a4,a1
   164ce:	863e                	mv	a2,a5
   164d0:	00080d63          	beqz	a6,164ea <__assert_func+0x30>
   164d4:	67e5                	lui	a5,0x19
   164d6:	b6878793          	addi	a5,a5,-1176 # 18b68 <__clzdi2+0x192>
   164da:	65e5                	lui	a1,0x19
   164dc:	b7858593          	addi	a1,a1,-1160 # 18b78 <__clzdi2+0x1a2>
   164e0:	8546                	mv	a0,a7
   164e2:	15c000ef          	jal	1663e <fiprintf>
   164e6:	5b1000ef          	jal	17296 <abort>
   164ea:	6865                	lui	a6,0x19
   164ec:	a6880793          	addi	a5,a6,-1432 # 18a68 <__clzdi2+0x92>
   164f0:	a6880813          	addi	a6,a6,-1432
   164f4:	b7dd                	j	164da <__assert_func+0x20>

00000000000164f6 <__assert>:
   164f6:	1141                	addi	sp,sp,-16
   164f8:	86b2                	mv	a3,a2
   164fa:	4601                	li	a2,0
   164fc:	e406                	sd	ra,8(sp)
   164fe:	fbdff0ef          	jal	164ba <__assert_func>

0000000000016502 <_calloc_r>:
   16502:	02c5b7b3          	mulhu	a5,a1,a2
   16506:	1141                	addi	sp,sp,-16
   16508:	e406                	sd	ra,8(sp)
   1650a:	e022                	sd	s0,0(sp)
   1650c:	02c585b3          	mul	a1,a1,a2
   16510:	efb5                	bnez	a5,1658c <_calloc_r+0x8a>
   16512:	f4cfa0ef          	jal	10c5e <_malloc_r>
   16516:	842a                	mv	s0,a0
   16518:	cd35                	beqz	a0,16594 <_calloc_r+0x92>
   1651a:	ff853603          	ld	a2,-8(a0)
   1651e:	04800713          	li	a4,72
   16522:	9a71                	andi	a2,a2,-4
   16524:	1661                	addi	a2,a2,-8
   16526:	04c76263          	bltu	a4,a2,1656a <_calloc_r+0x68>
   1652a:	02700693          	li	a3,39
   1652e:	87aa                	mv	a5,a0
   16530:	02c6f263          	bgeu	a3,a2,16554 <_calloc_r+0x52>
   16534:	00053023          	sd	zero,0(a0)
   16538:	00053423          	sd	zero,8(a0)
   1653c:	03700793          	li	a5,55
   16540:	02c7fd63          	bgeu	a5,a2,1657a <_calloc_r+0x78>
   16544:	00053823          	sd	zero,16(a0)
   16548:	00053c23          	sd	zero,24(a0)
   1654c:	02050793          	addi	a5,a0,32
   16550:	04e60863          	beq	a2,a4,165a0 <_calloc_r+0x9e>
   16554:	0007b023          	sd	zero,0(a5)
   16558:	0007b423          	sd	zero,8(a5)
   1655c:	0007b823          	sd	zero,16(a5)
   16560:	60a2                	ld	ra,8(sp)
   16562:	8522                	mv	a0,s0
   16564:	6402                	ld	s0,0(sp)
   16566:	0141                	addi	sp,sp,16
   16568:	8082                	ret
   1656a:	4581                	li	a1,0
   1656c:	a58fa0ef          	jal	107c4 <memset>
   16570:	60a2                	ld	ra,8(sp)
   16572:	8522                	mv	a0,s0
   16574:	6402                	ld	s0,0(sp)
   16576:	0141                	addi	sp,sp,16
   16578:	8082                	ret
   1657a:	01050793          	addi	a5,a0,16
   1657e:	0007b023          	sd	zero,0(a5)
   16582:	0007b423          	sd	zero,8(a5)
   16586:	0007b823          	sd	zero,16(a5)
   1658a:	bfd9                	j	16560 <_calloc_r+0x5e>
   1658c:	505000ef          	jal	17290 <__errno>
   16590:	47b1                	li	a5,12
   16592:	c11c                	sw	a5,0(a0)
   16594:	4401                	li	s0,0
   16596:	60a2                	ld	ra,8(sp)
   16598:	8522                	mv	a0,s0
   1659a:	6402                	ld	s0,0(sp)
   1659c:	0141                	addi	sp,sp,16
   1659e:	8082                	ret
   165a0:	02053023          	sd	zero,32(a0)
   165a4:	03050793          	addi	a5,a0,48
   165a8:	02053423          	sd	zero,40(a0)
   165ac:	b765                	j	16554 <_calloc_r+0x52>

00000000000165ae <_mbtowc_r>:
   165ae:	0e81b783          	ld	a5,232(gp) # 1ac90 <__global_locale+0xe8>
   165b2:	8782                	jr	a5

00000000000165b4 <__ascii_mbtowc>:
   165b4:	c999                	beqz	a1,165ca <__ascii_mbtowc+0x16>
   165b6:	c61d                	beqz	a2,165e4 <__ascii_mbtowc+0x30>
   165b8:	ca95                	beqz	a3,165ec <__ascii_mbtowc+0x38>
   165ba:	00064783          	lbu	a5,0(a2)
   165be:	c19c                	sw	a5,0(a1)
   165c0:	00064503          	lbu	a0,0(a2)
   165c4:	00a03533          	snez	a0,a0
   165c8:	8082                	ret
   165ca:	1141                	addi	sp,sp,-16
   165cc:	006c                	addi	a1,sp,12
   165ce:	ce09                	beqz	a2,165e8 <__ascii_mbtowc+0x34>
   165d0:	c285                	beqz	a3,165f0 <__ascii_mbtowc+0x3c>
   165d2:	00064783          	lbu	a5,0(a2)
   165d6:	c19c                	sw	a5,0(a1)
   165d8:	00064503          	lbu	a0,0(a2)
   165dc:	00a03533          	snez	a0,a0
   165e0:	0141                	addi	sp,sp,16
   165e2:	8082                	ret
   165e4:	4501                	li	a0,0
   165e6:	8082                	ret
   165e8:	4501                	li	a0,0
   165ea:	bfdd                	j	165e0 <__ascii_mbtowc+0x2c>
   165ec:	5579                	li	a0,-2
   165ee:	8082                	ret
   165f0:	5579                	li	a0,-2
   165f2:	b7fd                	j	165e0 <__ascii_mbtowc+0x2c>

00000000000165f4 <_wctomb_r>:
   165f4:	0e01b783          	ld	a5,224(gp) # 1ac88 <__global_locale+0xe0>
   165f8:	8782                	jr	a5

00000000000165fa <__ascii_wctomb>:
   165fa:	0006079b          	sext.w	a5,a2
   165fe:	cd91                	beqz	a1,1661a <__ascii_wctomb+0x20>
   16600:	0ff00713          	li	a4,255
   16604:	00f76663          	bltu	a4,a5,16610 <__ascii_wctomb+0x16>
   16608:	00c58023          	sb	a2,0(a1)
   1660c:	4505                	li	a0,1
   1660e:	8082                	ret
   16610:	08a00793          	li	a5,138
   16614:	c11c                	sw	a5,0(a0)
   16616:	557d                	li	a0,-1
   16618:	8082                	ret
   1661a:	4501                	li	a0,0
   1661c:	8082                	ret

000000000001661e <_fiprintf_r>:
   1661e:	715d                	addi	sp,sp,-80
   16620:	02810313          	addi	t1,sp,40
   16624:	f436                	sd	a3,40(sp)
   16626:	869a                	mv	a3,t1
   16628:	ec06                	sd	ra,24(sp)
   1662a:	f83a                	sd	a4,48(sp)
   1662c:	fc3e                	sd	a5,56(sp)
   1662e:	e0c2                	sd	a6,64(sp)
   16630:	e4c6                	sd	a7,72(sp)
   16632:	e41a                	sd	t1,8(sp)
   16634:	036000ef          	jal	1666a <_vfiprintf_r>
   16638:	60e2                	ld	ra,24(sp)
   1663a:	6161                	addi	sp,sp,80
   1663c:	8082                	ret

000000000001663e <fiprintf>:
   1663e:	8e2a                	mv	t3,a0
   16640:	715d                	addi	sp,sp,-80
   16642:	2201b503          	ld	a0,544(gp) # 1adc8 <_impure_ptr>
   16646:	02010313          	addi	t1,sp,32
   1664a:	f032                	sd	a2,32(sp)
   1664c:	f436                	sd	a3,40(sp)
   1664e:	862e                	mv	a2,a1
   16650:	869a                	mv	a3,t1
   16652:	85f2                	mv	a1,t3
   16654:	ec06                	sd	ra,24(sp)
   16656:	f83a                	sd	a4,48(sp)
   16658:	fc3e                	sd	a5,56(sp)
   1665a:	e0c2                	sd	a6,64(sp)
   1665c:	e4c6                	sd	a7,72(sp)
   1665e:	e41a                	sd	t1,8(sp)
   16660:	00a000ef          	jal	1666a <_vfiprintf_r>
   16664:	60e2                	ld	ra,24(sp)
   16666:	6161                	addi	sp,sp,80
   16668:	8082                	ret

000000000001666a <_vfiprintf_r>:
   1666a:	7105                	addi	sp,sp,-480
   1666c:	ff4e                	sd	s3,440(sp)
   1666e:	fb52                	sd	s4,432(sp)
   16670:	ef5e                	sd	s7,408(sp)
   16672:	feee                	sd	s11,376(sp)
   16674:	ef86                	sd	ra,472(sp)
   16676:	eb62                	sd	s8,400(sp)
   16678:	8a2a                	mv	s4,a0
   1667a:	89ae                	mv	s3,a1
   1667c:	8db2                	mv	s11,a2
   1667e:	8bb6                	mv	s7,a3
   16680:	c501                	beqz	a0,16688 <_vfiprintf_r+0x1e>
   16682:	653c                	ld	a5,72(a0)
   16684:	240780e3          	beqz	a5,170c4 <_vfiprintf_r+0xa5a>
   16688:	01099683          	lh	a3,16(s3)
   1668c:	0ac9a783          	lw	a5,172(s3)
   16690:	03269613          	slli	a2,a3,0x32
   16694:	00064b63          	bltz	a2,166aa <_vfiprintf_r+0x40>
   16698:	7679                	lui	a2,0xffffe
   1669a:	167d                	addi	a2,a2,-1 # ffffffffffffdfff <__BSS_END__+0xfffffffffffe2c57>
   1669c:	6589                	lui	a1,0x2
   1669e:	8ecd                	or	a3,a3,a1
   166a0:	8ff1                	and	a5,a5,a2
   166a2:	00d99823          	sh	a3,16(s3)
   166a6:	0af9a623          	sw	a5,172(s3)
   166aa:	03279693          	slli	a3,a5,0x32
   166ae:	3006c8e3          	bltz	a3,171be <_vfiprintf_r+0xb54>
   166b2:	01099783          	lh	a5,16(s3)
   166b6:	0087f693          	andi	a3,a5,8
   166ba:	24068463          	beqz	a3,16902 <_vfiprintf_r+0x298>
   166be:	0189b683          	ld	a3,24(s3)
   166c2:	24068063          	beqz	a3,16902 <_vfiprintf_r+0x298>
   166c6:	8be9                	andi	a5,a5,26
   166c8:	46a9                	li	a3,10
   166ca:	24d78863          	beq	a5,a3,1691a <_vfiprintf_r+0x2b0>
   166ce:	e36a                	sd	s10,384(sp)
   166d0:	6d65                	lui	s10,0x19
   166d2:	f756                	sd	s5,424(sp)
   166d4:	f35a                	sd	s6,416(sp)
   166d6:	0f010a93          	addi	s5,sp,240
   166da:	f7cd0793          	addi	a5,s10,-132 # 18f7c <_ctype_+0x104>
   166de:	6b65                	lui	s6,0x19
   166e0:	eba2                	sd	s0,464(sp)
   166e2:	e3ca                	sd	s2,448(sp)
   166e4:	e7a6                	sd	s1,456(sp)
   166e6:	e766                	sd	s9,392(sp)
   166e8:	f8d6                	sd	s5,112(sp)
   166ea:	e102                	sd	zero,128(sp)
   166ec:	dc82                	sw	zero,120(sp)
   166ee:	8456                	mv	s0,s5
   166f0:	e802                	sd	zero,16(sp)
   166f2:	fc02                	sd	zero,56(sp)
   166f4:	f802                	sd	zero,48(sp)
   166f6:	e082                	sd	zero,64(sp)
   166f8:	4c01                	li	s8,0
   166fa:	e43e                	sd	a5,8(sp)
   166fc:	4941                	li	s2,16
   166fe:	0e8b0b13          	addi	s6,s6,232 # 190e8 <zeroes.0>
   16702:	000dc783          	lbu	a5,0(s11)
   16706:	16078963          	beqz	a5,16878 <_vfiprintf_r+0x20e>
   1670a:	84ee                	mv	s1,s11
   1670c:	02500713          	li	a4,37
   16710:	22e78663          	beq	a5,a4,1693c <_vfiprintf_r+0x2d2>
   16714:	0014c783          	lbu	a5,1(s1)
   16718:	0485                	addi	s1,s1,1
   1671a:	fbfd                	bnez	a5,16710 <_vfiprintf_r+0xa6>
   1671c:	41b48d3b          	subw	s10,s1,s11
   16720:	140d0c63          	beqz	s10,16878 <_vfiprintf_r+0x20e>
   16724:	57e6                	lw	a5,120(sp)
   16726:	670a                	ld	a4,128(sp)
   16728:	01b43023          	sd	s11,0(s0)
   1672c:	2785                	addiw	a5,a5,1
   1672e:	976a                	add	a4,a4,s10
   16730:	01a43423          	sd	s10,8(s0)
   16734:	e13a                	sd	a4,128(sp)
   16736:	dcbe                	sw	a5,120(sp)
   16738:	0007871b          	sext.w	a4,a5
   1673c:	479d                	li	a5,7
   1673e:	0441                	addi	s0,s0,16
   16740:	20e7c563          	blt	a5,a4,1694a <_vfiprintf_r+0x2e0>
   16744:	0004c783          	lbu	a5,0(s1)
   16748:	018d0c3b          	addw	s8,s10,s8
   1674c:	12078663          	beqz	a5,16878 <_vfiprintf_r+0x20e>
   16750:	0014c783          	lbu	a5,1(s1)
   16754:	00148d93          	addi	s11,s1,1
   16758:	060103a3          	sb	zero,103(sp)
   1675c:	54fd                	li	s1,-1
   1675e:	4c81                	li	s9,0
   16760:	4d01                	li	s10,0
   16762:	05a00613          	li	a2,90
   16766:	0d85                	addi	s11,s11,1
   16768:	2781                	sext.w	a5,a5
   1676a:	fe07871b          	addiw	a4,a5,-32
   1676e:	0007069b          	sext.w	a3,a4
   16772:	04d66563          	bltu	a2,a3,167bc <_vfiprintf_r+0x152>
   16776:	02071693          	slli	a3,a4,0x20
   1677a:	01e6d713          	srli	a4,a3,0x1e
   1677e:	66a2                	ld	a3,8(sp)
   16780:	9736                	add	a4,a4,a3
   16782:	4318                	lw	a4,0(a4)
   16784:	8702                	jr	a4
   16786:	4c81                	li	s9,0
   16788:	45a5                	li	a1,9
   1678a:	000dc683          	lbu	a3,0(s11)
   1678e:	002c971b          	slliw	a4,s9,0x2
   16792:	01970cbb          	addw	s9,a4,s9
   16796:	fd07879b          	addiw	a5,a5,-48
   1679a:	001c9c9b          	slliw	s9,s9,0x1
   1679e:	fd06871b          	addiw	a4,a3,-48
   167a2:	01978cbb          	addw	s9,a5,s9
   167a6:	0d85                	addi	s11,s11,1
   167a8:	0006879b          	sext.w	a5,a3
   167ac:	fce5ffe3          	bgeu	a1,a4,1678a <_vfiprintf_r+0x120>
   167b0:	fe07871b          	addiw	a4,a5,-32
   167b4:	0007069b          	sext.w	a3,a4
   167b8:	fad67fe3          	bgeu	a2,a3,16776 <_vfiprintf_r+0x10c>
   167bc:	cfd5                	beqz	a5,16878 <_vfiprintf_r+0x20e>
   167be:	08f10423          	sb	a5,136(sp)
   167c2:	060103a3          	sb	zero,103(sp)
   167c6:	4305                	li	t1,1
   167c8:	4e05                	li	t3,1
   167ca:	08810893          	addi	a7,sp,136
   167ce:	4481                	li	s1,0
   167d0:	4f81                	li	t6,0
   167d2:	084d7293          	andi	t0,s10,132
   167d6:	678a                	ld	a5,128(sp)
   167d8:	5766                	lw	a4,120(sp)
   167da:	00029663          	bnez	t0,167e6 <_vfiprintf_r+0x17c>
   167de:	406c86bb          	subw	a3,s9,t1
   167e2:	64d04163          	bgtz	a3,16e24 <_vfiprintf_r+0x7ba>
   167e6:	06714683          	lbu	a3,103(sp)
   167ea:	ce91                	beqz	a3,16806 <_vfiprintf_r+0x19c>
   167ec:	06710613          	addi	a2,sp,103
   167f0:	e010                	sd	a2,0(s0)
   167f2:	2705                	addiw	a4,a4,1
   167f4:	0785                	addi	a5,a5,1
   167f6:	4605                	li	a2,1
   167f8:	e410                	sd	a2,8(s0)
   167fa:	e13e                	sd	a5,128(sp)
   167fc:	dcba                	sw	a4,120(sp)
   167fe:	469d                	li	a3,7
   16800:	0441                	addi	s0,s0,16
   16802:	14e6cc63          	blt	a3,a4,1695a <_vfiprintf_r+0x2f0>
   16806:	000f8e63          	beqz	t6,16822 <_vfiprintf_r+0x1b8>
   1680a:	10b0                	addi	a2,sp,104
   1680c:	e010                	sd	a2,0(s0)
   1680e:	2705                	addiw	a4,a4,1
   16810:	0789                	addi	a5,a5,2
   16812:	4609                	li	a2,2
   16814:	e410                	sd	a2,8(s0)
   16816:	e13e                	sd	a5,128(sp)
   16818:	dcba                	sw	a4,120(sp)
   1681a:	469d                	li	a3,7
   1681c:	0441                	addi	s0,s0,16
   1681e:	6ae6ca63          	blt	a3,a4,16ed2 <_vfiprintf_r+0x868>
   16822:	08000693          	li	a3,128
   16826:	44d28f63          	beq	t0,a3,16c84 <_vfiprintf_r+0x61a>
   1682a:	41c484bb          	subw	s1,s1,t3
   1682e:	50904163          	bgtz	s1,16d30 <_vfiprintf_r+0x6c6>
   16832:	0017069b          	addiw	a3,a4,1
   16836:	97f2                	add	a5,a5,t3
   16838:	01143023          	sd	a7,0(s0)
   1683c:	01c43423          	sd	t3,8(s0)
   16840:	e13e                	sd	a5,128(sp)
   16842:	dcb6                	sw	a3,120(sp)
   16844:	471d                	li	a4,7
   16846:	0441                	addi	s0,s0,16
   16848:	56d74f63          	blt	a4,a3,16dc6 <_vfiprintf_r+0x75c>
   1684c:	004d7d13          	andi	s10,s10,4
   16850:	000d0663          	beqz	s10,1685c <_vfiprintf_r+0x1f2>
   16854:	406c84bb          	subw	s1,s9,t1
   16858:	6a904063          	bgtz	s1,16ef8 <_vfiprintf_r+0x88e>
   1685c:	8766                	mv	a4,s9
   1685e:	006cd363          	bge	s9,t1,16864 <_vfiprintf_r+0x1fa>
   16862:	871a                	mv	a4,t1
   16864:	01870c3b          	addw	s8,a4,s8
   16868:	56079b63          	bnez	a5,16dde <_vfiprintf_r+0x774>
   1686c:	000dc783          	lbu	a5,0(s11)
   16870:	dc82                	sw	zero,120(sp)
   16872:	8456                	mv	s0,s5
   16874:	e8079be3          	bnez	a5,1670a <_vfiprintf_r+0xa0>
   16878:	678a                	ld	a5,128(sp)
   1687a:	120796e3          	bnez	a5,171a6 <_vfiprintf_r+0xb3c>
   1687e:	0109d783          	lhu	a5,16(s3)
   16882:	645e                	ld	s0,464(sp)
   16884:	64be                	ld	s1,456(sp)
   16886:	0407f793          	andi	a5,a5,64
   1688a:	691e                	ld	s2,448(sp)
   1688c:	7aba                	ld	s5,424(sp)
   1688e:	7b1a                	ld	s6,416(sp)
   16890:	6cba                	ld	s9,392(sp)
   16892:	6d1a                	ld	s10,384(sp)
   16894:	120795e3          	bnez	a5,171be <_vfiprintf_r+0xb54>
   16898:	60fe                	ld	ra,472(sp)
   1689a:	79fa                	ld	s3,440(sp)
   1689c:	7a5a                	ld	s4,432(sp)
   1689e:	6bfa                	ld	s7,408(sp)
   168a0:	7df6                	ld	s11,376(sp)
   168a2:	8562                	mv	a0,s8
   168a4:	6c5a                	ld	s8,400(sp)
   168a6:	613d                	addi	sp,sp,480
   168a8:	8082                	ret
   168aa:	010d6d13          	ori	s10,s10,16
   168ae:	000dc783          	lbu	a5,0(s11)
   168b2:	2d01                	sext.w	s10,s10
   168b4:	bd4d                	j	16766 <_vfiprintf_r+0xfc>
   168b6:	010d6d13          	ori	s10,s10,16
   168ba:	2d01                	sext.w	s10,s10
   168bc:	020d7793          	andi	a5,s10,32
   168c0:	008b8e93          	addi	t4,s7,8
   168c4:	cfdd                	beqz	a5,16982 <_vfiprintf_r+0x318>
   168c6:	000bb783          	ld	a5,0(s7)
   168ca:	8bbe                	mv	s7,a5
   168cc:	0c07cb63          	bltz	a5,169a2 <_vfiprintf_r+0x338>
   168d0:	0e04c463          	bltz	s1,169b8 <_vfiprintf_r+0x34e>
   168d4:	f7fd7d13          	andi	s10,s10,-129
   168d8:	2d01                	sext.w	s10,s10
   168da:	0c0b9f63          	bnez	s7,169b8 <_vfiprintf_r+0x34e>
   168de:	0c049be3          	bnez	s1,171b4 <_vfiprintf_r+0xb4a>
   168e2:	06714783          	lbu	a5,103(sp)
   168e6:	4301                	li	t1,0
   168e8:	4e01                	li	t3,0
   168ea:	8bf6                	mv	s7,t4
   168ec:	0ec10893          	addi	a7,sp,236
   168f0:	c391                	beqz	a5,168f4 <_vfiprintf_r+0x28a>
   168f2:	2305                	addiw	t1,t1,1
   168f4:	002d7f93          	andi	t6,s10,2
   168f8:	ec0f8de3          	beqz	t6,167d2 <_vfiprintf_r+0x168>
   168fc:	2309                	addiw	t1,t1,2
   168fe:	4f89                	li	t6,2
   16900:	bdc9                	j	167d2 <_vfiprintf_r+0x168>
   16902:	85ce                	mv	a1,s3
   16904:	8552                	mv	a0,s4
   16906:	ba7fc0ef          	jal	134ac <__swsetup_r>
   1690a:	0a051ae3          	bnez	a0,171be <_vfiprintf_r+0xb54>
   1690e:	01099783          	lh	a5,16(s3)
   16912:	46a9                	li	a3,10
   16914:	8be9                	andi	a5,a5,26
   16916:	dad79ce3          	bne	a5,a3,166ce <_vfiprintf_r+0x64>
   1691a:	01299783          	lh	a5,18(s3)
   1691e:	da07c8e3          	bltz	a5,166ce <_vfiprintf_r+0x64>
   16922:	60fe                	ld	ra,472(sp)
   16924:	6c5a                	ld	s8,400(sp)
   16926:	86de                	mv	a3,s7
   16928:	866e                	mv	a2,s11
   1692a:	6bfa                	ld	s7,408(sp)
   1692c:	7df6                	ld	s11,376(sp)
   1692e:	85ce                	mv	a1,s3
   16930:	8552                	mv	a0,s4
   16932:	79fa                	ld	s3,440(sp)
   16934:	7a5a                	ld	s4,432(sp)
   16936:	613d                	addi	sp,sp,480
   16938:	0c10006f          	j	171f8 <__sbprintf>
   1693c:	41b48d3b          	subw	s10,s1,s11
   16940:	de0d12e3          	bnez	s10,16724 <_vfiprintf_r+0xba>
   16944:	0004c783          	lbu	a5,0(s1)
   16948:	b511                	j	1674c <_vfiprintf_r+0xe2>
   1694a:	1890                	addi	a2,sp,112
   1694c:	85ce                	mv	a1,s3
   1694e:	8552                	mv	a0,s4
   16950:	cfefc0ef          	jal	12e4e <__sprint_r>
   16954:	f50d                	bnez	a0,1687e <_vfiprintf_r+0x214>
   16956:	8456                	mv	s0,s5
   16958:	b3f5                	j	16744 <_vfiprintf_r+0xda>
   1695a:	1890                	addi	a2,sp,112
   1695c:	85ce                	mv	a1,s3
   1695e:	8552                	mv	a0,s4
   16960:	e8f2                	sd	t3,80(sp)
   16962:	e49a                	sd	t1,72(sp)
   16964:	f446                	sd	a7,40(sp)
   16966:	f016                	sd	t0,32(sp)
   16968:	ec7e                	sd	t6,24(sp)
   1696a:	ce4fc0ef          	jal	12e4e <__sprint_r>
   1696e:	f901                	bnez	a0,1687e <_vfiprintf_r+0x214>
   16970:	678a                	ld	a5,128(sp)
   16972:	5766                	lw	a4,120(sp)
   16974:	6e46                	ld	t3,80(sp)
   16976:	6326                	ld	t1,72(sp)
   16978:	78a2                	ld	a7,40(sp)
   1697a:	7282                	ld	t0,32(sp)
   1697c:	6fe2                	ld	t6,24(sp)
   1697e:	8456                	mv	s0,s5
   16980:	b559                	j	16806 <_vfiprintf_r+0x19c>
   16982:	010d7793          	andi	a5,s10,16
   16986:	f3a1                	bnez	a5,168c6 <_vfiprintf_r+0x25c>
   16988:	040d7793          	andi	a5,s10,64
   1698c:	000bab83          	lw	s7,0(s7)
   16990:	76078f63          	beqz	a5,1710e <_vfiprintf_r+0xaa4>
   16994:	010b9b9b          	slliw	s7,s7,0x10
   16998:	410bdb9b          	sraiw	s7,s7,0x10
   1699c:	87de                	mv	a5,s7
   1699e:	f207d9e3          	bgez	a5,168d0 <_vfiprintf_r+0x266>
   169a2:	02d00793          	li	a5,45
   169a6:	06f103a3          	sb	a5,103(sp)
   169aa:	41700bb3          	neg	s7,s7
   169ae:	0004c563          	bltz	s1,169b8 <_vfiprintf_r+0x34e>
   169b2:	f7fd7d13          	andi	s10,s10,-129
   169b6:	2d01                	sext.w	s10,s10
   169b8:	47a5                	li	a5,9
   169ba:	6b77e063          	bltu	a5,s7,1705a <_vfiprintf_r+0x9f0>
   169be:	030b879b          	addiw	a5,s7,48
   169c2:	0ff7f793          	zext.b	a5,a5
   169c6:	8bf6                	mv	s7,t4
   169c8:	0ef105a3          	sb	a5,235(sp)
   169cc:	0004831b          	sext.w	t1,s1
   169d0:	00904363          	bgtz	s1,169d6 <_vfiprintf_r+0x36c>
   169d4:	4305                	li	t1,1
   169d6:	4e05                	li	t3,1
   169d8:	0eb10893          	addi	a7,sp,235
   169dc:	06714783          	lbu	a5,103(sp)
   169e0:	fb89                	bnez	a5,168f2 <_vfiprintf_r+0x288>
   169e2:	bf09                	j	168f4 <_vfiprintf_r+0x28a>
   169e4:	000bb883          	ld	a7,0(s7)
   169e8:	060103a3          	sb	zero,103(sp)
   169ec:	0ba1                	addi	s7,s7,8
   169ee:	6e088f63          	beqz	a7,170ec <_vfiprintf_r+0xa82>
   169f2:	6404cc63          	bltz	s1,1704a <_vfiprintf_r+0x9e0>
   169f6:	8546                	mv	a0,a7
   169f8:	8626                	mv	a2,s1
   169fa:	4581                	li	a1,0
   169fc:	ec46                	sd	a7,24(sp)
   169fe:	b89fc0ef          	jal	13586 <memchr>
   16a02:	68e2                	ld	a7,24(sp)
   16a04:	8e26                	mv	t3,s1
   16a06:	c119                	beqz	a0,16a0c <_vfiprintf_r+0x3a2>
   16a08:	41150e3b          	subw	t3,a0,a7
   16a0c:	fffe4313          	not	t1,t3
   16a10:	06714783          	lbu	a5,103(sp)
   16a14:	43f35313          	srai	t1,t1,0x3f
   16a18:	006e7333          	and	t1,t3,t1
   16a1c:	2301                	sext.w	t1,t1
   16a1e:	4481                	li	s1,0
   16a20:	4f81                	li	t6,0
   16a22:	ec0798e3          	bnez	a5,168f2 <_vfiprintf_r+0x288>
   16a26:	b375                	j	167d2 <_vfiprintf_r+0x168>
   16a28:	000ba783          	lw	a5,0(s7)
   16a2c:	060103a3          	sb	zero,103(sp)
   16a30:	0ba1                	addi	s7,s7,8
   16a32:	08f10423          	sb	a5,136(sp)
   16a36:	4305                	li	t1,1
   16a38:	4e05                	li	t3,1
   16a3a:	08810893          	addi	a7,sp,136
   16a3e:	bb41                	j	167ce <_vfiprintf_r+0x164>
   16a40:	000bac83          	lw	s9,0(s7)
   16a44:	0ba1                	addi	s7,s7,8
   16a46:	080cdf63          	bgez	s9,16ae4 <_vfiprintf_r+0x47a>
   16a4a:	41900cbb          	negw	s9,s9
   16a4e:	004d6d13          	ori	s10,s10,4
   16a52:	000dc783          	lbu	a5,0(s11)
   16a56:	2d01                	sext.w	s10,s10
   16a58:	b339                	j	16766 <_vfiprintf_r+0xfc>
   16a5a:	02b00713          	li	a4,43
   16a5e:	000dc783          	lbu	a5,0(s11)
   16a62:	06e103a3          	sb	a4,103(sp)
   16a66:	b301                	j	16766 <_vfiprintf_r+0xfc>
   16a68:	080d6d13          	ori	s10,s10,128
   16a6c:	000dc783          	lbu	a5,0(s11)
   16a70:	2d01                	sext.w	s10,s10
   16a72:	b9d5                	j	16766 <_vfiprintf_r+0xfc>
   16a74:	000dc783          	lbu	a5,0(s11)
   16a78:	02a00593          	li	a1,42
   16a7c:	001d8693          	addi	a3,s11,1
   16a80:	74b78763          	beq	a5,a1,171ce <_vfiprintf_r+0xb64>
   16a84:	fd07871b          	addiw	a4,a5,-48
   16a88:	4825                	li	a6,9
   16a8a:	4581                	li	a1,0
   16a8c:	4525                	li	a0,9
   16a8e:	8db6                	mv	s11,a3
   16a90:	4481                	li	s1,0
   16a92:	cce86ce3          	bltu	a6,a4,1676a <_vfiprintf_r+0x100>
   16a96:	0006c783          	lbu	a5,0(a3)
   16a9a:	0025949b          	slliw	s1,a1,0x2
   16a9e:	9cad                	addw	s1,s1,a1
   16aa0:	0014949b          	slliw	s1,s1,0x1
   16aa4:	00e485bb          	addw	a1,s1,a4
   16aa8:	fd07871b          	addiw	a4,a5,-48
   16aac:	84ae                	mv	s1,a1
   16aae:	0685                	addi	a3,a3,1
   16ab0:	fee573e3          	bgeu	a0,a4,16a96 <_vfiprintf_r+0x42c>
   16ab4:	5205c163          	bltz	a1,16fd6 <_vfiprintf_r+0x96c>
   16ab8:	8db6                	mv	s11,a3
   16aba:	b945                	j	1676a <_vfiprintf_r+0x100>
   16abc:	8552                	mv	a0,s4
   16abe:	c11fc0ef          	jal	136ce <_localeconv_r>
   16ac2:	651c                	ld	a5,8(a0)
   16ac4:	853e                	mv	a0,a5
   16ac6:	e0be                	sd	a5,64(sp)
   16ac8:	e95fc0ef          	jal	1395c <strlen>
   16acc:	87aa                	mv	a5,a0
   16ace:	8552                	mv	a0,s4
   16ad0:	f83e                	sd	a5,48(sp)
   16ad2:	bfdfc0ef          	jal	136ce <_localeconv_r>
   16ad6:	6918                	ld	a4,16(a0)
   16ad8:	77c2                	ld	a5,48(sp)
   16ada:	05a00613          	li	a2,90
   16ade:	fc3a                	sd	a4,56(sp)
   16ae0:	4c079a63          	bnez	a5,16fb4 <_vfiprintf_r+0x94a>
   16ae4:	000dc783          	lbu	a5,0(s11)
   16ae8:	b9bd                	j	16766 <_vfiprintf_r+0xfc>
   16aea:	001d6d13          	ori	s10,s10,1
   16aee:	000dc783          	lbu	a5,0(s11)
   16af2:	2d01                	sext.w	s10,s10
   16af4:	b98d                	j	16766 <_vfiprintf_r+0xfc>
   16af6:	06714703          	lbu	a4,103(sp)
   16afa:	000dc783          	lbu	a5,0(s11)
   16afe:	c60714e3          	bnez	a4,16766 <_vfiprintf_r+0xfc>
   16b02:	02000713          	li	a4,32
   16b06:	06e103a3          	sb	a4,103(sp)
   16b0a:	b9b1                	j	16766 <_vfiprintf_r+0xfc>
   16b0c:	010d6793          	ori	a5,s10,16
   16b10:	2781                	sext.w	a5,a5
   16b12:	0207f713          	andi	a4,a5,32
   16b16:	008b8693          	addi	a3,s7,8
   16b1a:	e709                	bnez	a4,16b24 <_vfiprintf_r+0x4ba>
   16b1c:	0107f713          	andi	a4,a5,16
   16b20:	46070763          	beqz	a4,16f8e <_vfiprintf_r+0x924>
   16b24:	000bb703          	ld	a4,0(s7)
   16b28:	bff7fd13          	andi	s10,a5,-1025
   16b2c:	060103a3          	sb	zero,103(sp)
   16b30:	2d01                	sext.w	s10,s10
   16b32:	8bb6                	mv	s7,a3
   16b34:	0804c463          	bltz	s1,16bbc <_vfiprintf_r+0x552>
   16b38:	b7f7f793          	andi	a5,a5,-1153
   16b3c:	2781                	sext.w	a5,a5
   16b3e:	56071e63          	bnez	a4,170ba <_vfiprintf_r+0xa50>
   16b42:	8e6a                	mv	t3,s10
   16b44:	8d3e                	mv	s10,a5
   16b46:	e4a5                	bnez	s1,16bae <_vfiprintf_r+0x544>
   16b48:	42071a63          	bnez	a4,16f7c <_vfiprintf_r+0x912>
   16b4c:	001e7e13          	andi	t3,t3,1
   16b50:	420e0b63          	beqz	t3,16f86 <_vfiprintf_r+0x91c>
   16b54:	03000793          	li	a5,48
   16b58:	0ef105a3          	sb	a5,235(sp)
   16b5c:	8372                	mv	t1,t3
   16b5e:	0eb10893          	addi	a7,sp,235
   16b62:	bdad                	j	169dc <_vfiprintf_r+0x372>
   16b64:	000dc783          	lbu	a5,0(s11)
   16b68:	06c00713          	li	a4,108
   16b6c:	56e78863          	beq	a5,a4,170dc <_vfiprintf_r+0xa72>
   16b70:	010d6d13          	ori	s10,s10,16
   16b74:	2d01                	sext.w	s10,s10
   16b76:	bec5                	j	16766 <_vfiprintf_r+0xfc>
   16b78:	010d6e13          	ori	t3,s10,16
   16b7c:	2e01                	sext.w	t3,t3
   16b7e:	020e7793          	andi	a5,t3,32
   16b82:	008b8e93          	addi	t4,s7,8
   16b86:	e789                	bnez	a5,16b90 <_vfiprintf_r+0x526>
   16b88:	010e7793          	andi	a5,t3,16
   16b8c:	40078a63          	beqz	a5,16fa0 <_vfiprintf_r+0x936>
   16b90:	000bbb83          	ld	s7,0(s7)
   16b94:	060103a3          	sb	zero,103(sp)
   16b98:	8d72                	mv	s10,t3
   16b9a:	e004cfe3          	bltz	s1,169b8 <_vfiprintf_r+0x34e>
   16b9e:	f7fe7d13          	andi	s10,t3,-129
   16ba2:	2d01                	sext.w	s10,s10
   16ba4:	e00b9ae3          	bnez	s7,169b8 <_vfiprintf_r+0x34e>
   16ba8:	8bf6                	mv	s7,t4
   16baa:	4705                	li	a4,1
   16bac:	dcd1                	beqz	s1,16b48 <_vfiprintf_r+0x4de>
   16bae:	4785                	li	a5,1
   16bb0:	60f70363          	beq	a4,a5,171b6 <_vfiprintf_r+0xb4c>
   16bb4:	4789                	li	a5,2
   16bb6:	58f70263          	beq	a4,a5,1713a <_vfiprintf_r+0xad0>
   16bba:	4701                	li	a4,0
   16bbc:	0ec10e13          	addi	t3,sp,236
   16bc0:	88f2                	mv	a7,t3
   16bc2:	00777793          	andi	a5,a4,7
   16bc6:	03078793          	addi	a5,a5,48
   16bca:	fef88fa3          	sb	a5,-1(a7)
   16bce:	830d                	srli	a4,a4,0x3
   16bd0:	86c6                	mv	a3,a7
   16bd2:	18fd                	addi	a7,a7,-1
   16bd4:	f77d                	bnez	a4,16bc2 <_vfiprintf_r+0x558>
   16bd6:	001d7713          	andi	a4,s10,1
   16bda:	22070c63          	beqz	a4,16e12 <_vfiprintf_r+0x7a8>
   16bde:	03000713          	li	a4,48
   16be2:	22e78863          	beq	a5,a4,16e12 <_vfiprintf_r+0x7a8>
   16be6:	16f9                	addi	a3,a3,-2
   16be8:	fee88fa3          	sb	a4,-1(a7)
   16bec:	40de0e3b          	subw	t3,t3,a3
   16bf0:	0004831b          	sext.w	t1,s1
   16bf4:	3dc4cd63          	blt	s1,t3,16fce <_vfiprintf_r+0x964>
   16bf8:	88b6                	mv	a7,a3
   16bfa:	b3cd                	j	169dc <_vfiprintf_r+0x372>
   16bfc:	000dc783          	lbu	a5,0(s11)
   16c00:	06800713          	li	a4,104
   16c04:	4ce78463          	beq	a5,a4,170cc <_vfiprintf_r+0xa62>
   16c08:	040d6d13          	ori	s10,s10,64
   16c0c:	2d01                	sext.w	s10,s10
   16c0e:	bea1                	j	16766 <_vfiprintf_r+0xfc>
   16c10:	020d6d13          	ori	s10,s10,32
   16c14:	000dc783          	lbu	a5,0(s11)
   16c18:	2d01                	sext.w	s10,s10
   16c1a:	b6b1                	j	16766 <_vfiprintf_r+0xfc>
   16c1c:	67a1                	lui	a5,0x8
   16c1e:	83078793          	addi	a5,a5,-2000 # 7830 <exit-0x88b8>
   16c22:	06f11423          	sh	a5,104(sp)
   16c26:	67e5                	lui	a5,0x19
   16c28:	002d6d13          	ori	s10,s10,2
   16c2c:	a4078793          	addi	a5,a5,-1472 # 18a40 <__clzdi2+0x6a>
   16c30:	000bb703          	ld	a4,0(s7)
   16c34:	2d01                	sext.w	s10,s10
   16c36:	0ba1                	addi	s7,s7,8
   16c38:	e83e                	sd	a5,16(sp)
   16c3a:	060103a3          	sb	zero,103(sp)
   16c3e:	1a04cc63          	bltz	s1,16df6 <_vfiprintf_r+0x78c>
   16c42:	f7fd7793          	andi	a5,s10,-129
   16c46:	2781                	sext.w	a5,a5
   16c48:	1a071363          	bnez	a4,16dee <_vfiprintf_r+0x784>
   16c4c:	8e6a                	mv	t3,s10
   16c4e:	4709                	li	a4,2
   16c50:	8d3e                	mv	s10,a5
   16c52:	bdd5                	j	16b46 <_vfiprintf_r+0x4dc>
   16c54:	020d7793          	andi	a5,s10,32
   16c58:	000bb703          	ld	a4,0(s7)
   16c5c:	e385                	bnez	a5,16c7c <_vfiprintf_r+0x612>
   16c5e:	010d7793          	andi	a5,s10,16
   16c62:	ef89                	bnez	a5,16c7c <_vfiprintf_r+0x612>
   16c64:	040d7793          	andi	a5,s10,64
   16c68:	50079d63          	bnez	a5,17182 <_vfiprintf_r+0xb18>
   16c6c:	200d7d13          	andi	s10,s10,512
   16c70:	540d0a63          	beqz	s10,171c4 <_vfiprintf_r+0xb5a>
   16c74:	01870023          	sb	s8,0(a4)
   16c78:	0ba1                	addi	s7,s7,8
   16c7a:	b461                	j	16702 <_vfiprintf_r+0x98>
   16c7c:	01873023          	sd	s8,0(a4)
   16c80:	0ba1                	addi	s7,s7,8
   16c82:	b441                	j	16702 <_vfiprintf_r+0x98>
   16c84:	406c86bb          	subw	a3,s9,t1
   16c88:	bad051e3          	blez	a3,1682a <_vfiprintf_r+0x1c0>
   16c8c:	6f65                	lui	t5,0x19
   16c8e:	4641                	li	a2,16
   16c90:	0e8f0f13          	addi	t5,t5,232 # 190e8 <zeroes.0>
   16c94:	04d65f63          	bge	a2,a3,16cf2 <_vfiprintf_r+0x688>
   16c98:	f026                	sd	s1,32(sp)
   16c9a:	8622                	mv	a2,s0
   16c9c:	4ec1                	li	t4,16
   16c9e:	4f9d                	li	t6,7
   16ca0:	ec46                	sd	a7,24(sp)
   16ca2:	f41a                	sd	t1,40(sp)
   16ca4:	e4f2                	sd	t3,72(sp)
   16ca6:	8436                	mv	s0,a3
   16ca8:	84fa                	mv	s1,t5
   16caa:	a021                	j	16cb2 <_vfiprintf_r+0x648>
   16cac:	3441                	addiw	s0,s0,-16
   16cae:	028edb63          	bge	t4,s0,16ce4 <_vfiprintf_r+0x67a>
   16cb2:	2705                	addiw	a4,a4,1
   16cb4:	07c1                	addi	a5,a5,16
   16cb6:	e204                	sd	s1,0(a2)
   16cb8:	01d63423          	sd	t4,8(a2)
   16cbc:	e13e                	sd	a5,128(sp)
   16cbe:	dcba                	sw	a4,120(sp)
   16cc0:	0641                	addi	a2,a2,16
   16cc2:	feefd5e3          	bge	t6,a4,16cac <_vfiprintf_r+0x642>
   16cc6:	1890                	addi	a2,sp,112
   16cc8:	85ce                	mv	a1,s3
   16cca:	8552                	mv	a0,s4
   16ccc:	982fc0ef          	jal	12e4e <__sprint_r>
   16cd0:	ba0517e3          	bnez	a0,1687e <_vfiprintf_r+0x214>
   16cd4:	4ec1                	li	t4,16
   16cd6:	3441                	addiw	s0,s0,-16
   16cd8:	678a                	ld	a5,128(sp)
   16cda:	5766                	lw	a4,120(sp)
   16cdc:	8656                	mv	a2,s5
   16cde:	4f9d                	li	t6,7
   16ce0:	fc8ec9e3          	blt	t4,s0,16cb2 <_vfiprintf_r+0x648>
   16ce4:	8f26                	mv	t5,s1
   16ce6:	68e2                	ld	a7,24(sp)
   16ce8:	7322                	ld	t1,40(sp)
   16cea:	6e26                	ld	t3,72(sp)
   16cec:	7482                	ld	s1,32(sp)
   16cee:	86a2                	mv	a3,s0
   16cf0:	8432                	mv	s0,a2
   16cf2:	97b6                	add	a5,a5,a3
   16cf4:	2705                	addiw	a4,a4,1
   16cf6:	e414                	sd	a3,8(s0)
   16cf8:	01e43023          	sd	t5,0(s0)
   16cfc:	e13e                	sd	a5,128(sp)
   16cfe:	dcba                	sw	a4,120(sp)
   16d00:	469d                	li	a3,7
   16d02:	0441                	addi	s0,s0,16
   16d04:	b2e6d3e3          	bge	a3,a4,1682a <_vfiprintf_r+0x1c0>
   16d08:	1890                	addi	a2,sp,112
   16d0a:	85ce                	mv	a1,s3
   16d0c:	8552                	mv	a0,s4
   16d0e:	f472                	sd	t3,40(sp)
   16d10:	f01a                	sd	t1,32(sp)
   16d12:	ec46                	sd	a7,24(sp)
   16d14:	93afc0ef          	jal	12e4e <__sprint_r>
   16d18:	b60513e3          	bnez	a0,1687e <_vfiprintf_r+0x214>
   16d1c:	7e22                	ld	t3,40(sp)
   16d1e:	678a                	ld	a5,128(sp)
   16d20:	5766                	lw	a4,120(sp)
   16d22:	41c484bb          	subw	s1,s1,t3
   16d26:	7302                	ld	t1,32(sp)
   16d28:	68e2                	ld	a7,24(sp)
   16d2a:	8456                	mv	s0,s5
   16d2c:	b09053e3          	blez	s1,16832 <_vfiprintf_r+0x1c8>
   16d30:	6f65                	lui	t5,0x19
   16d32:	0e8f0f13          	addi	t5,t5,232 # 190e8 <zeroes.0>
   16d36:	04995c63          	bge	s2,s1,16d8e <_vfiprintf_r+0x724>
   16d3a:	86a2                	mv	a3,s0
   16d3c:	4e9d                	li	t4,7
   16d3e:	8426                	mv	s0,s1
   16d40:	ec46                	sd	a7,24(sp)
   16d42:	f01a                	sd	t1,32(sp)
   16d44:	f472                	sd	t3,40(sp)
   16d46:	84da                	mv	s1,s6
   16d48:	a021                	j	16d50 <_vfiprintf_r+0x6e6>
   16d4a:	3441                	addiw	s0,s0,-16
   16d4c:	02895b63          	bge	s2,s0,16d82 <_vfiprintf_r+0x718>
   16d50:	2705                	addiw	a4,a4,1
   16d52:	07c1                	addi	a5,a5,16
   16d54:	0166b023          	sd	s6,0(a3)
   16d58:	0126b423          	sd	s2,8(a3)
   16d5c:	e13e                	sd	a5,128(sp)
   16d5e:	dcba                	sw	a4,120(sp)
   16d60:	06c1                	addi	a3,a3,16
   16d62:	feeed4e3          	bge	t4,a4,16d4a <_vfiprintf_r+0x6e0>
   16d66:	1890                	addi	a2,sp,112
   16d68:	85ce                	mv	a1,s3
   16d6a:	8552                	mv	a0,s4
   16d6c:	8e2fc0ef          	jal	12e4e <__sprint_r>
   16d70:	b00517e3          	bnez	a0,1687e <_vfiprintf_r+0x214>
   16d74:	3441                	addiw	s0,s0,-16
   16d76:	678a                	ld	a5,128(sp)
   16d78:	5766                	lw	a4,120(sp)
   16d7a:	86d6                	mv	a3,s5
   16d7c:	4e9d                	li	t4,7
   16d7e:	fc8949e3          	blt	s2,s0,16d50 <_vfiprintf_r+0x6e6>
   16d82:	68e2                	ld	a7,24(sp)
   16d84:	7302                	ld	t1,32(sp)
   16d86:	7e22                	ld	t3,40(sp)
   16d88:	8f26                	mv	t5,s1
   16d8a:	84a2                	mv	s1,s0
   16d8c:	8436                	mv	s0,a3
   16d8e:	2705                	addiw	a4,a4,1
   16d90:	97a6                	add	a5,a5,s1
   16d92:	01e43023          	sd	t5,0(s0)
   16d96:	e404                	sd	s1,8(s0)
   16d98:	e13e                	sd	a5,128(sp)
   16d9a:	dcba                	sw	a4,120(sp)
   16d9c:	469d                	li	a3,7
   16d9e:	0441                	addi	s0,s0,16
   16da0:	a8e6d9e3          	bge	a3,a4,16832 <_vfiprintf_r+0x1c8>
   16da4:	1890                	addi	a2,sp,112
   16da6:	85ce                	mv	a1,s3
   16da8:	8552                	mv	a0,s4
   16daa:	f472                	sd	t3,40(sp)
   16dac:	f01a                	sd	t1,32(sp)
   16dae:	ec46                	sd	a7,24(sp)
   16db0:	89efc0ef          	jal	12e4e <__sprint_r>
   16db4:	ac0515e3          	bnez	a0,1687e <_vfiprintf_r+0x214>
   16db8:	678a                	ld	a5,128(sp)
   16dba:	5766                	lw	a4,120(sp)
   16dbc:	7e22                	ld	t3,40(sp)
   16dbe:	7302                	ld	t1,32(sp)
   16dc0:	68e2                	ld	a7,24(sp)
   16dc2:	8456                	mv	s0,s5
   16dc4:	b4bd                	j	16832 <_vfiprintf_r+0x1c8>
   16dc6:	1890                	addi	a2,sp,112
   16dc8:	85ce                	mv	a1,s3
   16dca:	8552                	mv	a0,s4
   16dcc:	ec1a                	sd	t1,24(sp)
   16dce:	880fc0ef          	jal	12e4e <__sprint_r>
   16dd2:	aa0516e3          	bnez	a0,1687e <_vfiprintf_r+0x214>
   16dd6:	678a                	ld	a5,128(sp)
   16dd8:	6362                	ld	t1,24(sp)
   16dda:	8456                	mv	s0,s5
   16ddc:	bc85                	j	1684c <_vfiprintf_r+0x1e2>
   16dde:	1890                	addi	a2,sp,112
   16de0:	85ce                	mv	a1,s3
   16de2:	8552                	mv	a0,s4
   16de4:	86afc0ef          	jal	12e4e <__sprint_r>
   16de8:	a80502e3          	beqz	a0,1686c <_vfiprintf_r+0x202>
   16dec:	bc49                	j	1687e <_vfiprintf_r+0x214>
   16dee:	8d3e                	mv	s10,a5
   16df0:	4789                	li	a5,2
   16df2:	dc0785e3          	beqz	a5,16bbc <_vfiprintf_r+0x552>
   16df6:	66c2                	ld	a3,16(sp)
   16df8:	0ec10e13          	addi	t3,sp,236
   16dfc:	88f2                	mv	a7,t3
   16dfe:	00f77793          	andi	a5,a4,15
   16e02:	97b6                	add	a5,a5,a3
   16e04:	0007c783          	lbu	a5,0(a5)
   16e08:	8311                	srli	a4,a4,0x4
   16e0a:	18fd                	addi	a7,a7,-1
   16e0c:	00f88023          	sb	a5,0(a7)
   16e10:	f77d                	bnez	a4,16dfe <_vfiprintf_r+0x794>
   16e12:	411e0e3b          	subw	t3,t3,a7
   16e16:	0004831b          	sext.w	t1,s1
   16e1a:	bdc4d1e3          	bge	s1,t3,169dc <_vfiprintf_r+0x372>
   16e1e:	000e031b          	sext.w	t1,t3
   16e22:	be6d                	j	169dc <_vfiprintf_r+0x372>
   16e24:	6ee5                	lui	t4,0x19
   16e26:	4641                	li	a2,16
   16e28:	0f8e8e93          	addi	t4,t4,248 # 190f8 <blanks.1>
   16e2c:	06d65363          	bge	a2,a3,16e92 <_vfiprintf_r+0x828>
   16e30:	e4a6                	sd	s1,72(sp)
   16e32:	8622                	mv	a2,s0
   16e34:	4f41                	li	t5,16
   16e36:	439d                	li	t2,7
   16e38:	ec7e                	sd	t6,24(sp)
   16e3a:	f016                	sd	t0,32(sp)
   16e3c:	f446                	sd	a7,40(sp)
   16e3e:	e89a                	sd	t1,80(sp)
   16e40:	ecf2                	sd	t3,88(sp)
   16e42:	8436                	mv	s0,a3
   16e44:	84f6                	mv	s1,t4
   16e46:	a021                	j	16e4e <_vfiprintf_r+0x7e4>
   16e48:	3441                	addiw	s0,s0,-16
   16e4a:	028f5b63          	bge	t5,s0,16e80 <_vfiprintf_r+0x816>
   16e4e:	2705                	addiw	a4,a4,1
   16e50:	07c1                	addi	a5,a5,16
   16e52:	e204                	sd	s1,0(a2)
   16e54:	01e63423          	sd	t5,8(a2)
   16e58:	e13e                	sd	a5,128(sp)
   16e5a:	dcba                	sw	a4,120(sp)
   16e5c:	0641                	addi	a2,a2,16
   16e5e:	fee3d5e3          	bge	t2,a4,16e48 <_vfiprintf_r+0x7de>
   16e62:	1890                	addi	a2,sp,112
   16e64:	85ce                	mv	a1,s3
   16e66:	8552                	mv	a0,s4
   16e68:	fe7fb0ef          	jal	12e4e <__sprint_r>
   16e6c:	a00519e3          	bnez	a0,1687e <_vfiprintf_r+0x214>
   16e70:	4f41                	li	t5,16
   16e72:	3441                	addiw	s0,s0,-16
   16e74:	678a                	ld	a5,128(sp)
   16e76:	5766                	lw	a4,120(sp)
   16e78:	8656                	mv	a2,s5
   16e7a:	439d                	li	t2,7
   16e7c:	fc8f49e3          	blt	t5,s0,16e4e <_vfiprintf_r+0x7e4>
   16e80:	8ea6                	mv	t4,s1
   16e82:	6fe2                	ld	t6,24(sp)
   16e84:	7282                	ld	t0,32(sp)
   16e86:	78a2                	ld	a7,40(sp)
   16e88:	6346                	ld	t1,80(sp)
   16e8a:	6e66                	ld	t3,88(sp)
   16e8c:	64a6                	ld	s1,72(sp)
   16e8e:	86a2                	mv	a3,s0
   16e90:	8432                	mv	s0,a2
   16e92:	97b6                	add	a5,a5,a3
   16e94:	2705                	addiw	a4,a4,1
   16e96:	e414                	sd	a3,8(s0)
   16e98:	01d43023          	sd	t4,0(s0)
   16e9c:	e13e                	sd	a5,128(sp)
   16e9e:	dcba                	sw	a4,120(sp)
   16ea0:	469d                	li	a3,7
   16ea2:	0441                	addi	s0,s0,16
   16ea4:	94e6d1e3          	bge	a3,a4,167e6 <_vfiprintf_r+0x17c>
   16ea8:	1890                	addi	a2,sp,112
   16eaa:	85ce                	mv	a1,s3
   16eac:	8552                	mv	a0,s4
   16eae:	e8f2                	sd	t3,80(sp)
   16eb0:	e49a                	sd	t1,72(sp)
   16eb2:	f446                	sd	a7,40(sp)
   16eb4:	f016                	sd	t0,32(sp)
   16eb6:	ec7e                	sd	t6,24(sp)
   16eb8:	f97fb0ef          	jal	12e4e <__sprint_r>
   16ebc:	9c0511e3          	bnez	a0,1687e <_vfiprintf_r+0x214>
   16ec0:	678a                	ld	a5,128(sp)
   16ec2:	5766                	lw	a4,120(sp)
   16ec4:	6e46                	ld	t3,80(sp)
   16ec6:	6326                	ld	t1,72(sp)
   16ec8:	78a2                	ld	a7,40(sp)
   16eca:	7282                	ld	t0,32(sp)
   16ecc:	6fe2                	ld	t6,24(sp)
   16ece:	8456                	mv	s0,s5
   16ed0:	ba19                	j	167e6 <_vfiprintf_r+0x17c>
   16ed2:	1890                	addi	a2,sp,112
   16ed4:	85ce                	mv	a1,s3
   16ed6:	8552                	mv	a0,s4
   16ed8:	e4f2                	sd	t3,72(sp)
   16eda:	f41a                	sd	t1,40(sp)
   16edc:	f046                	sd	a7,32(sp)
   16ede:	ec16                	sd	t0,24(sp)
   16ee0:	f6ffb0ef          	jal	12e4e <__sprint_r>
   16ee4:	98051de3          	bnez	a0,1687e <_vfiprintf_r+0x214>
   16ee8:	678a                	ld	a5,128(sp)
   16eea:	5766                	lw	a4,120(sp)
   16eec:	6e26                	ld	t3,72(sp)
   16eee:	7322                	ld	t1,40(sp)
   16ef0:	7882                	ld	a7,32(sp)
   16ef2:	62e2                	ld	t0,24(sp)
   16ef4:	8456                	mv	s0,s5
   16ef6:	b235                	j	16822 <_vfiprintf_r+0x1b8>
   16ef8:	6ee5                	lui	t4,0x19
   16efa:	46c1                	li	a3,16
   16efc:	5766                	lw	a4,120(sp)
   16efe:	0f8e8e93          	addi	t4,t4,248 # 190f8 <blanks.1>
   16f02:	0496d763          	bge	a3,s1,16f50 <_vfiprintf_r+0x8e6>
   16f06:	f05e                	sd	s7,32(sp)
   16f08:	4d41                	li	s10,16
   16f0a:	489d                	li	a7,7
   16f0c:	ec1a                	sd	t1,24(sp)
   16f0e:	8bf6                	mv	s7,t4
   16f10:	a021                	j	16f18 <_vfiprintf_r+0x8ae>
   16f12:	34c1                	addiw	s1,s1,-16
   16f14:	029d5b63          	bge	s10,s1,16f4a <_vfiprintf_r+0x8e0>
   16f18:	2705                	addiw	a4,a4,1
   16f1a:	07c1                	addi	a5,a5,16
   16f1c:	01743023          	sd	s7,0(s0)
   16f20:	01a43423          	sd	s10,8(s0)
   16f24:	e13e                	sd	a5,128(sp)
   16f26:	dcba                	sw	a4,120(sp)
   16f28:	0441                	addi	s0,s0,16
   16f2a:	fee8d4e3          	bge	a7,a4,16f12 <_vfiprintf_r+0x8a8>
   16f2e:	1890                	addi	a2,sp,112
   16f30:	85ce                	mv	a1,s3
   16f32:	8552                	mv	a0,s4
   16f34:	f1bfb0ef          	jal	12e4e <__sprint_r>
   16f38:	940513e3          	bnez	a0,1687e <_vfiprintf_r+0x214>
   16f3c:	34c1                	addiw	s1,s1,-16
   16f3e:	678a                	ld	a5,128(sp)
   16f40:	5766                	lw	a4,120(sp)
   16f42:	8456                	mv	s0,s5
   16f44:	489d                	li	a7,7
   16f46:	fc9d49e3          	blt	s10,s1,16f18 <_vfiprintf_r+0x8ae>
   16f4a:	8ede                	mv	t4,s7
   16f4c:	6362                	ld	t1,24(sp)
   16f4e:	7b82                	ld	s7,32(sp)
   16f50:	0017069b          	addiw	a3,a4,1
   16f54:	97a6                	add	a5,a5,s1
   16f56:	01d43023          	sd	t4,0(s0)
   16f5a:	e404                	sd	s1,8(s0)
   16f5c:	e13e                	sd	a5,128(sp)
   16f5e:	dcb6                	sw	a3,120(sp)
   16f60:	471d                	li	a4,7
   16f62:	8ed75de3          	bge	a4,a3,1685c <_vfiprintf_r+0x1f2>
   16f66:	1890                	addi	a2,sp,112
   16f68:	85ce                	mv	a1,s3
   16f6a:	8552                	mv	a0,s4
   16f6c:	ec1a                	sd	t1,24(sp)
   16f6e:	ee1fb0ef          	jal	12e4e <__sprint_r>
   16f72:	900516e3          	bnez	a0,1687e <_vfiprintf_r+0x214>
   16f76:	678a                	ld	a5,128(sp)
   16f78:	6362                	ld	t1,24(sp)
   16f7a:	b0cd                	j	1685c <_vfiprintf_r+0x1f2>
   16f7c:	4301                	li	t1,0
   16f7e:	4e01                	li	t3,0
   16f80:	0ec10893          	addi	a7,sp,236
   16f84:	bca1                	j	169dc <_vfiprintf_r+0x372>
   16f86:	4301                	li	t1,0
   16f88:	0ec10893          	addi	a7,sp,236
   16f8c:	bc81                	j	169dc <_vfiprintf_r+0x372>
   16f8e:	0407f613          	andi	a2,a5,64
   16f92:	000ba703          	lw	a4,0(s7)
   16f96:	16060663          	beqz	a2,17102 <_vfiprintf_r+0xa98>
   16f9a:	1742                	slli	a4,a4,0x30
   16f9c:	9341                	srli	a4,a4,0x30
   16f9e:	b669                	j	16b28 <_vfiprintf_r+0x4be>
   16fa0:	040e7793          	andi	a5,t3,64
   16fa4:	000bab83          	lw	s7,0(s7)
   16fa8:	16078d63          	beqz	a5,17122 <_vfiprintf_r+0xab8>
   16fac:	1bc2                	slli	s7,s7,0x30
   16fae:	030bdb93          	srli	s7,s7,0x30
   16fb2:	b6cd                	j	16b94 <_vfiprintf_r+0x52a>
   16fb4:	000dc783          	lbu	a5,0(s11)
   16fb8:	fa070763          	beqz	a4,16766 <_vfiprintf_r+0xfc>
   16fbc:	00074703          	lbu	a4,0(a4)
   16fc0:	fa070363          	beqz	a4,16766 <_vfiprintf_r+0xfc>
   16fc4:	400d6d13          	ori	s10,s10,1024
   16fc8:	2d01                	sext.w	s10,s10
   16fca:	f9cff06f          	j	16766 <_vfiprintf_r+0xfc>
   16fce:	000e031b          	sext.w	t1,t3
   16fd2:	88b6                	mv	a7,a3
   16fd4:	b421                	j	169dc <_vfiprintf_r+0x372>
   16fd6:	54fd                	li	s1,-1
   16fd8:	8db6                	mv	s11,a3
   16fda:	f90ff06f          	j	1676a <_vfiprintf_r+0x100>
   16fde:	6765                	lui	a4,0x19
   16fe0:	a5870713          	addi	a4,a4,-1448 # 18a58 <__clzdi2+0x82>
   16fe4:	e83a                	sd	a4,16(sp)
   16fe6:	020d7713          	andi	a4,s10,32
   16fea:	008b8693          	addi	a3,s7,8
   16fee:	eb39                	bnez	a4,17044 <_vfiprintf_r+0x9da>
   16ff0:	010d7713          	andi	a4,s10,16
   16ff4:	eb21                	bnez	a4,17044 <_vfiprintf_r+0x9da>
   16ff6:	040d7613          	andi	a2,s10,64
   16ffa:	000ba703          	lw	a4,0(s7)
   16ffe:	12060863          	beqz	a2,1712e <_vfiprintf_r+0xac4>
   17002:	1742                	slli	a4,a4,0x30
   17004:	9341                	srli	a4,a4,0x30
   17006:	001d7613          	andi	a2,s10,1
   1700a:	ca19                	beqz	a2,17020 <_vfiprintf_r+0x9b6>
   1700c:	cb11                	beqz	a4,17020 <_vfiprintf_r+0x9b6>
   1700e:	002d6d13          	ori	s10,s10,2
   17012:	03000613          	li	a2,48
   17016:	06c10423          	sb	a2,104(sp)
   1701a:	06f104a3          	sb	a5,105(sp)
   1701e:	2d01                	sext.w	s10,s10
   17020:	bffd7d13          	andi	s10,s10,-1025
   17024:	2d01                	sext.w	s10,s10
   17026:	8bb6                	mv	s7,a3
   17028:	b909                	j	16c3a <_vfiprintf_r+0x5d0>
   1702a:	8e6a                	mv	t3,s10
   1702c:	be89                	j	16b7e <_vfiprintf_r+0x514>
   1702e:	87ea                	mv	a5,s10
   17030:	b4cd                	j	16b12 <_vfiprintf_r+0x4a8>
   17032:	6765                	lui	a4,0x19
   17034:	a4070713          	addi	a4,a4,-1472 # 18a40 <__clzdi2+0x6a>
   17038:	e83a                	sd	a4,16(sp)
   1703a:	020d7713          	andi	a4,s10,32
   1703e:	008b8693          	addi	a3,s7,8
   17042:	d75d                	beqz	a4,16ff0 <_vfiprintf_r+0x986>
   17044:	000bb703          	ld	a4,0(s7)
   17048:	bf7d                	j	17006 <_vfiprintf_r+0x99c>
   1704a:	8546                	mv	a0,a7
   1704c:	ec46                	sd	a7,24(sp)
   1704e:	90ffc0ef          	jal	1395c <strlen>
   17052:	68e2                	ld	a7,24(sp)
   17054:	00050e1b          	sext.w	t3,a0
   17058:	ba55                	j	16a0c <_vfiprintf_r+0x3a2>
   1705a:	0ec10e13          	addi	t3,sp,236
   1705e:	7862                	ld	a6,56(sp)
   17060:	400d7f13          	andi	t5,s10,1024
   17064:	4601                	li	a2,0
   17066:	8772                	mv	a4,t3
   17068:	46a9                	li	a3,10
   1706a:	4325                	li	t1,9
   1706c:	0ff00f93          	li	t6,255
   17070:	a039                	j	1707e <_vfiprintf_r+0xa14>
   17072:	02dbd7b3          	divu	a5,s7,a3
   17076:	03737763          	bgeu	t1,s7,170a4 <_vfiprintf_r+0xa3a>
   1707a:	8bbe                	mv	s7,a5
   1707c:	8746                	mv	a4,a7
   1707e:	fff70893          	addi	a7,a4,-1
   17082:	2605                	addiw	a2,a2,1
   17084:	02dbf7b3          	remu	a5,s7,a3
   17088:	0307879b          	addiw	a5,a5,48
   1708c:	fef70fa3          	sb	a5,-1(a4)
   17090:	fe0f01e3          	beqz	t5,17072 <_vfiprintf_r+0xa08>
   17094:	00084783          	lbu	a5,0(a6)
   17098:	fcc79de3          	bne	a5,a2,17072 <_vfiprintf_r+0xa08>
   1709c:	fdf78be3          	beq	a5,t6,17072 <_vfiprintf_r+0xa08>
   170a0:	09736f63          	bltu	t1,s7,1713e <_vfiprintf_r+0xad4>
   170a4:	fc42                	sd	a6,56(sp)
   170a6:	411e0e3b          	subw	t3,t3,a7
   170aa:	0004831b          	sext.w	t1,s1
   170ae:	01c4d463          	bge	s1,t3,170b6 <_vfiprintf_r+0xa4c>
   170b2:	000e031b          	sext.w	t1,t3
   170b6:	8bf6                	mv	s7,t4
   170b8:	b215                	j	169dc <_vfiprintf_r+0x372>
   170ba:	8d3e                	mv	s10,a5
   170bc:	4781                	li	a5,0
   170be:	ae078fe3          	beqz	a5,16bbc <_vfiprintf_r+0x552>
   170c2:	bb15                	j	16df6 <_vfiprintf_r+0x78c>
   170c4:	b36f90ef          	jal	103fa <__sinit>
   170c8:	dc0ff06f          	j	16688 <_vfiprintf_r+0x1e>
   170cc:	200d6d13          	ori	s10,s10,512
   170d0:	001dc783          	lbu	a5,1(s11)
   170d4:	2d01                	sext.w	s10,s10
   170d6:	0d85                	addi	s11,s11,1
   170d8:	e8eff06f          	j	16766 <_vfiprintf_r+0xfc>
   170dc:	020d6d13          	ori	s10,s10,32
   170e0:	001dc783          	lbu	a5,1(s11)
   170e4:	2d01                	sext.w	s10,s10
   170e6:	0d85                	addi	s11,s11,1
   170e8:	e7eff06f          	j	16766 <_vfiprintf_r+0xfc>
   170ec:	4799                	li	a5,6
   170ee:	00048e1b          	sext.w	t3,s1
   170f2:	0897e663          	bltu	a5,s1,1717e <_vfiprintf_r+0xb14>
   170f6:	68e5                	lui	a7,0x19
   170f8:	8372                	mv	t1,t3
   170fa:	a7088893          	addi	a7,a7,-1424 # 18a70 <__clzdi2+0x9a>
   170fe:	ed0ff06f          	j	167ce <_vfiprintf_r+0x164>
   17102:	2007f613          	andi	a2,a5,512
   17106:	ce49                	beqz	a2,171a0 <_vfiprintf_r+0xb36>
   17108:	0ff77713          	zext.b	a4,a4
   1710c:	bc31                	j	16b28 <_vfiprintf_r+0x4be>
   1710e:	200d7793          	andi	a5,s10,512
   17112:	c7c1                	beqz	a5,1719a <_vfiprintf_r+0xb30>
   17114:	018b9b9b          	slliw	s7,s7,0x18
   17118:	418bdb9b          	sraiw	s7,s7,0x18
   1711c:	87de                	mv	a5,s7
   1711e:	faeff06f          	j	168cc <_vfiprintf_r+0x262>
   17122:	200e7793          	andi	a5,t3,512
   17126:	c7b5                	beqz	a5,17192 <_vfiprintf_r+0xb28>
   17128:	0ffbfb93          	zext.b	s7,s7
   1712c:	b4a5                	j	16b94 <_vfiprintf_r+0x52a>
   1712e:	200d7613          	andi	a2,s10,512
   17132:	ce29                	beqz	a2,1718c <_vfiprintf_r+0xb22>
   17134:	0ff77713          	zext.b	a4,a4
   17138:	b5f9                	j	17006 <_vfiprintf_r+0x99c>
   1713a:	4701                	li	a4,0
   1713c:	b96d                	j	16df6 <_vfiprintf_r+0x78c>
   1713e:	77c2                	ld	a5,48(sp)
   17140:	6586                	ld	a1,64(sp)
   17142:	e4f2                	sd	t3,72(sp)
   17144:	40f888b3          	sub	a7,a7,a5
   17148:	863e                	mv	a2,a5
   1714a:	8546                	mv	a0,a7
   1714c:	fc76                	sd	t4,56(sp)
   1714e:	f47a                	sd	t5,40(sp)
   17150:	f042                	sd	a6,32(sp)
   17152:	ec46                	sd	a7,24(sp)
   17154:	ce0fc0ef          	jal	13634 <strncpy>
   17158:	7802                	ld	a6,32(sp)
   1715a:	47a9                	li	a5,10
   1715c:	02fbd7b3          	divu	a5,s7,a5
   17160:	00184703          	lbu	a4,1(a6)
   17164:	68e2                	ld	a7,24(sp)
   17166:	7f22                	ld	t5,40(sp)
   17168:	00e03733          	snez	a4,a4
   1716c:	7ee2                	ld	t4,56(sp)
   1716e:	6e26                	ld	t3,72(sp)
   17170:	983a                	add	a6,a6,a4
   17172:	4601                	li	a2,0
   17174:	46a9                	li	a3,10
   17176:	4325                	li	t1,9
   17178:	0ff00f93          	li	t6,255
   1717c:	bdfd                	j	1707a <_vfiprintf_r+0xa10>
   1717e:	4e19                	li	t3,6
   17180:	bf9d                	j	170f6 <_vfiprintf_r+0xa8c>
   17182:	01871023          	sh	s8,0(a4)
   17186:	0ba1                	addi	s7,s7,8
   17188:	d7aff06f          	j	16702 <_vfiprintf_r+0x98>
   1718c:	1702                	slli	a4,a4,0x20
   1718e:	9301                	srli	a4,a4,0x20
   17190:	bd9d                	j	17006 <_vfiprintf_r+0x99c>
   17192:	1b82                	slli	s7,s7,0x20
   17194:	020bdb93          	srli	s7,s7,0x20
   17198:	baf5                	j	16b94 <_vfiprintf_r+0x52a>
   1719a:	87de                	mv	a5,s7
   1719c:	f30ff06f          	j	168cc <_vfiprintf_r+0x262>
   171a0:	1702                	slli	a4,a4,0x20
   171a2:	9301                	srli	a4,a4,0x20
   171a4:	b251                	j	16b28 <_vfiprintf_r+0x4be>
   171a6:	1890                	addi	a2,sp,112
   171a8:	85ce                	mv	a1,s3
   171aa:	8552                	mv	a0,s4
   171ac:	ca3fb0ef          	jal	12e4e <__sprint_r>
   171b0:	eceff06f          	j	1687e <_vfiprintf_r+0x214>
   171b4:	8bf6                	mv	s7,t4
   171b6:	03000793          	li	a5,48
   171ba:	80fff06f          	j	169c8 <_vfiprintf_r+0x35e>
   171be:	5c7d                	li	s8,-1
   171c0:	ed8ff06f          	j	16898 <_vfiprintf_r+0x22e>
   171c4:	01872023          	sw	s8,0(a4)
   171c8:	0ba1                	addi	s7,s7,8
   171ca:	d38ff06f          	j	16702 <_vfiprintf_r+0x98>
   171ce:	000ba783          	lw	a5,0(s7)
   171d2:	0ba1                	addi	s7,s7,8
   171d4:	0007849b          	sext.w	s1,a5
   171d8:	0007d363          	bgez	a5,171de <_vfiprintf_r+0xb74>
   171dc:	54fd                	li	s1,-1
   171de:	001dc783          	lbu	a5,1(s11)
   171e2:	8db6                	mv	s11,a3
   171e4:	d82ff06f          	j	16766 <_vfiprintf_r+0xfc>

00000000000171e8 <vfiprintf>:
   171e8:	87aa                	mv	a5,a0
   171ea:	2201b503          	ld	a0,544(gp) # 1adc8 <_impure_ptr>
   171ee:	86b2                	mv	a3,a2
   171f0:	862e                	mv	a2,a1
   171f2:	85be                	mv	a1,a5
   171f4:	c76ff06f          	j	1666a <_vfiprintf_r>

00000000000171f8 <__sbprintf>:
   171f8:	b3010113          	addi	sp,sp,-1232
   171fc:	0125d703          	lhu	a4,18(a1) # 2012 <exit-0xe0d6>
   17200:	0105d783          	lhu	a5,16(a1)
   17204:	4c813023          	sd	s0,1216(sp)
   17208:	842e                	mv	s0,a1
   1720a:	65c1                	lui	a1,0x10
   1720c:	35f5                	addiw	a1,a1,-3 # fffd <exit-0xeb>
   1720e:	0ac42e03          	lw	t3,172(s0)
   17212:	03043303          	ld	t1,48(s0)
   17216:	04043883          	ld	a7,64(s0)
   1721a:	0107171b          	slliw	a4,a4,0x10
   1721e:	8fed                	and	a5,a5,a1
   17220:	8fd9                	or	a5,a5,a4
   17222:	40000813          	li	a6,1024
   17226:	c83e                	sw	a5,16(sp)
   17228:	858a                	mv	a1,sp
   1722a:	191c                	addi	a5,sp,176
   1722c:	4a913c23          	sd	s1,1208(sp)
   17230:	4b213823          	sd	s2,1200(sp)
   17234:	4c113423          	sd	ra,1224(sp)
   17238:	892a                	mv	s2,a0
   1723a:	d772                	sw	t3,172(sp)
   1723c:	f81a                	sd	t1,48(sp)
   1723e:	e0c6                	sd	a7,64(sp)
   17240:	e03e                	sd	a5,0(sp)
   17242:	ec3e                	sd	a5,24(sp)
   17244:	c642                	sw	a6,12(sp)
   17246:	d042                	sw	a6,32(sp)
   17248:	d402                	sw	zero,40(sp)
   1724a:	c20ff0ef          	jal	1666a <_vfiprintf_r>
   1724e:	84aa                	mv	s1,a0
   17250:	02055963          	bgez	a0,17282 <__sbprintf+0x8a>
   17254:	01015783          	lhu	a5,16(sp)
   17258:	0407f793          	andi	a5,a5,64
   1725c:	c799                	beqz	a5,1726a <__sbprintf+0x72>
   1725e:	01045783          	lhu	a5,16(s0)
   17262:	0407e793          	ori	a5,a5,64
   17266:	00f41823          	sh	a5,16(s0)
   1726a:	4c813083          	ld	ra,1224(sp)
   1726e:	4c013403          	ld	s0,1216(sp)
   17272:	4b013903          	ld	s2,1200(sp)
   17276:	8526                	mv	a0,s1
   17278:	4b813483          	ld	s1,1208(sp)
   1727c:	4d010113          	addi	sp,sp,1232
   17280:	8082                	ret
   17282:	858a                	mv	a1,sp
   17284:	854a                	mv	a0,s2
   17286:	e3ffb0ef          	jal	130c4 <_fflush_r>
   1728a:	d569                	beqz	a0,17254 <__sbprintf+0x5c>
   1728c:	54fd                	li	s1,-1
   1728e:	b7d9                	j	17254 <__sbprintf+0x5c>

0000000000017290 <__errno>:
   17290:	2201b503          	ld	a0,544(gp) # 1adc8 <_impure_ptr>
   17294:	8082                	ret

0000000000017296 <abort>:
   17296:	1141                	addi	sp,sp,-16
   17298:	4519                	li	a0,6
   1729a:	e406                	sd	ra,8(sp)
   1729c:	19c000ef          	jal	17438 <raise>
   172a0:	4505                	li	a0,1
   172a2:	3a0000ef          	jal	17642 <_exit>

00000000000172a6 <_init_signal_r>:
   172a6:	15053783          	ld	a5,336(a0)
   172aa:	c399                	beqz	a5,172b0 <_init_signal_r+0xa>
   172ac:	4501                	li	a0,0
   172ae:	8082                	ret
   172b0:	1141                	addi	sp,sp,-16
   172b2:	10000593          	li	a1,256
   172b6:	e022                	sd	s0,0(sp)
   172b8:	e406                	sd	ra,8(sp)
   172ba:	842a                	mv	s0,a0
   172bc:	9a3f90ef          	jal	10c5e <_malloc_r>
   172c0:	14a43823          	sd	a0,336(s0)
   172c4:	cd09                	beqz	a0,172de <_init_signal_r+0x38>
   172c6:	10050793          	addi	a5,a0,256
   172ca:	00053023          	sd	zero,0(a0)
   172ce:	0521                	addi	a0,a0,8
   172d0:	fef51de3          	bne	a0,a5,172ca <_init_signal_r+0x24>
   172d4:	4501                	li	a0,0
   172d6:	60a2                	ld	ra,8(sp)
   172d8:	6402                	ld	s0,0(sp)
   172da:	0141                	addi	sp,sp,16
   172dc:	8082                	ret
   172de:	557d                	li	a0,-1
   172e0:	bfdd                	j	172d6 <_init_signal_r+0x30>

00000000000172e2 <_signal_r>:
   172e2:	7179                	addi	sp,sp,-48
   172e4:	ec26                	sd	s1,24(sp)
   172e6:	f406                	sd	ra,40(sp)
   172e8:	47fd                	li	a5,31
   172ea:	84aa                	mv	s1,a0
   172ec:	02b7e063          	bltu	a5,a1,1730c <_signal_r+0x2a>
   172f0:	15053783          	ld	a5,336(a0)
   172f4:	f022                	sd	s0,32(sp)
   172f6:	842e                	mv	s0,a1
   172f8:	cf91                	beqz	a5,17314 <_signal_r+0x32>
   172fa:	040e                	slli	s0,s0,0x3
   172fc:	97a2                	add	a5,a5,s0
   172fe:	7402                	ld	s0,32(sp)
   17300:	6388                	ld	a0,0(a5)
   17302:	e390                	sd	a2,0(a5)
   17304:	70a2                	ld	ra,40(sp)
   17306:	64e2                	ld	s1,24(sp)
   17308:	6145                	addi	sp,sp,48
   1730a:	8082                	ret
   1730c:	47d9                	li	a5,22
   1730e:	c11c                	sw	a5,0(a0)
   17310:	557d                	li	a0,-1
   17312:	bfcd                	j	17304 <_signal_r+0x22>
   17314:	10000593          	li	a1,256
   17318:	e432                	sd	a2,8(sp)
   1731a:	945f90ef          	jal	10c5e <_malloc_r>
   1731e:	14a4b823          	sd	a0,336(s1)
   17322:	6622                	ld	a2,8(sp)
   17324:	87aa                	mv	a5,a0
   17326:	872a                	mv	a4,a0
   17328:	10050693          	addi	a3,a0,256
   1732c:	c519                	beqz	a0,1733a <_signal_r+0x58>
   1732e:	00073023          	sd	zero,0(a4)
   17332:	0721                	addi	a4,a4,8
   17334:	fed71de3          	bne	a4,a3,1732e <_signal_r+0x4c>
   17338:	b7c9                	j	172fa <_signal_r+0x18>
   1733a:	7402                	ld	s0,32(sp)
   1733c:	557d                	li	a0,-1
   1733e:	b7d9                	j	17304 <_signal_r+0x22>

0000000000017340 <_raise_r>:
   17340:	1101                	addi	sp,sp,-32
   17342:	e426                	sd	s1,8(sp)
   17344:	ec06                	sd	ra,24(sp)
   17346:	47fd                	li	a5,31
   17348:	84aa                	mv	s1,a0
   1734a:	04b7ef63          	bltu	a5,a1,173a8 <_raise_r+0x68>
   1734e:	15053783          	ld	a5,336(a0)
   17352:	e822                	sd	s0,16(sp)
   17354:	842e                	mv	s0,a1
   17356:	c795                	beqz	a5,17382 <_raise_r+0x42>
   17358:	00359713          	slli	a4,a1,0x3
   1735c:	97ba                	add	a5,a5,a4
   1735e:	6398                	ld	a4,0(a5)
   17360:	c30d                	beqz	a4,17382 <_raise_r+0x42>
   17362:	4685                	li	a3,1
   17364:	00d70963          	beq	a4,a3,17376 <_raise_r+0x36>
   17368:	56fd                	li	a3,-1
   1736a:	02d70763          	beq	a4,a3,17398 <_raise_r+0x58>
   1736e:	0007b023          	sd	zero,0(a5)
   17372:	852e                	mv	a0,a1
   17374:	9702                	jalr	a4
   17376:	6442                	ld	s0,16(sp)
   17378:	4501                	li	a0,0
   1737a:	60e2                	ld	ra,24(sp)
   1737c:	64a2                	ld	s1,8(sp)
   1737e:	6105                	addi	sp,sp,32
   17380:	8082                	ret
   17382:	8526                	mv	a0,s1
   17384:	290000ef          	jal	17614 <_getpid_r>
   17388:	8622                	mv	a2,s0
   1738a:	6442                	ld	s0,16(sp)
   1738c:	60e2                	ld	ra,24(sp)
   1738e:	85aa                	mv	a1,a0
   17390:	8526                	mv	a0,s1
   17392:	64a2                	ld	s1,8(sp)
   17394:	6105                	addi	sp,sp,32
   17396:	a491                	j	175da <_kill_r>
   17398:	6442                	ld	s0,16(sp)
   1739a:	60e2                	ld	ra,24(sp)
   1739c:	47d9                	li	a5,22
   1739e:	c11c                	sw	a5,0(a0)
   173a0:	64a2                	ld	s1,8(sp)
   173a2:	4505                	li	a0,1
   173a4:	6105                	addi	sp,sp,32
   173a6:	8082                	ret
   173a8:	47d9                	li	a5,22
   173aa:	c11c                	sw	a5,0(a0)
   173ac:	557d                	li	a0,-1
   173ae:	b7f1                	j	1737a <_raise_r+0x3a>

00000000000173b0 <__sigtramp_r>:
   173b0:	47fd                	li	a5,31
   173b2:	08b7e163          	bltu	a5,a1,17434 <__sigtramp_r+0x84>
   173b6:	15053783          	ld	a5,336(a0)
   173ba:	1101                	addi	sp,sp,-32
   173bc:	e822                	sd	s0,16(sp)
   173be:	e426                	sd	s1,8(sp)
   173c0:	ec06                	sd	ra,24(sp)
   173c2:	842e                	mv	s0,a1
   173c4:	84aa                	mv	s1,a0
   173c6:	c7a1                	beqz	a5,1740e <__sigtramp_r+0x5e>
   173c8:	00341713          	slli	a4,s0,0x3
   173cc:	97ba                	add	a5,a5,a4
   173ce:	6398                	ld	a4,0(a5)
   173d0:	c30d                	beqz	a4,173f2 <__sigtramp_r+0x42>
   173d2:	56fd                	li	a3,-1
   173d4:	02d70b63          	beq	a4,a3,1740a <__sigtramp_r+0x5a>
   173d8:	4685                	li	a3,1
   173da:	02d70263          	beq	a4,a3,173fe <__sigtramp_r+0x4e>
   173de:	8522                	mv	a0,s0
   173e0:	0007b023          	sd	zero,0(a5)
   173e4:	9702                	jalr	a4
   173e6:	4501                	li	a0,0
   173e8:	60e2                	ld	ra,24(sp)
   173ea:	6442                	ld	s0,16(sp)
   173ec:	64a2                	ld	s1,8(sp)
   173ee:	6105                	addi	sp,sp,32
   173f0:	8082                	ret
   173f2:	60e2                	ld	ra,24(sp)
   173f4:	6442                	ld	s0,16(sp)
   173f6:	64a2                	ld	s1,8(sp)
   173f8:	4505                	li	a0,1
   173fa:	6105                	addi	sp,sp,32
   173fc:	8082                	ret
   173fe:	60e2                	ld	ra,24(sp)
   17400:	6442                	ld	s0,16(sp)
   17402:	64a2                	ld	s1,8(sp)
   17404:	450d                	li	a0,3
   17406:	6105                	addi	sp,sp,32
   17408:	8082                	ret
   1740a:	4509                	li	a0,2
   1740c:	bff1                	j	173e8 <__sigtramp_r+0x38>
   1740e:	10000593          	li	a1,256
   17412:	84df90ef          	jal	10c5e <_malloc_r>
   17416:	14a4b823          	sd	a0,336(s1)
   1741a:	87aa                	mv	a5,a0
   1741c:	c911                	beqz	a0,17430 <__sigtramp_r+0x80>
   1741e:	872a                	mv	a4,a0
   17420:	10050693          	addi	a3,a0,256
   17424:	00073023          	sd	zero,0(a4)
   17428:	0721                	addi	a4,a4,8
   1742a:	fed71de3          	bne	a4,a3,17424 <__sigtramp_r+0x74>
   1742e:	bf69                	j	173c8 <__sigtramp_r+0x18>
   17430:	557d                	li	a0,-1
   17432:	bf5d                	j	173e8 <__sigtramp_r+0x38>
   17434:	557d                	li	a0,-1
   17436:	8082                	ret

0000000000017438 <raise>:
   17438:	1101                	addi	sp,sp,-32
   1743a:	e426                	sd	s1,8(sp)
   1743c:	ec06                	sd	ra,24(sp)
   1743e:	47fd                	li	a5,31
   17440:	2201b483          	ld	s1,544(gp) # 1adc8 <_impure_ptr>
   17444:	04a7ee63          	bltu	a5,a0,174a0 <raise+0x68>
   17448:	1504b783          	ld	a5,336(s1)
   1744c:	e822                	sd	s0,16(sp)
   1744e:	842a                	mv	s0,a0
   17450:	c78d                	beqz	a5,1747a <raise+0x42>
   17452:	00351713          	slli	a4,a0,0x3
   17456:	97ba                	add	a5,a5,a4
   17458:	6398                	ld	a4,0(a5)
   1745a:	c305                	beqz	a4,1747a <raise+0x42>
   1745c:	4685                	li	a3,1
   1745e:	00d70863          	beq	a4,a3,1746e <raise+0x36>
   17462:	56fd                	li	a3,-1
   17464:	02d70663          	beq	a4,a3,17490 <raise+0x58>
   17468:	0007b023          	sd	zero,0(a5)
   1746c:	9702                	jalr	a4
   1746e:	6442                	ld	s0,16(sp)
   17470:	4501                	li	a0,0
   17472:	60e2                	ld	ra,24(sp)
   17474:	64a2                	ld	s1,8(sp)
   17476:	6105                	addi	sp,sp,32
   17478:	8082                	ret
   1747a:	8526                	mv	a0,s1
   1747c:	198000ef          	jal	17614 <_getpid_r>
   17480:	8622                	mv	a2,s0
   17482:	6442                	ld	s0,16(sp)
   17484:	60e2                	ld	ra,24(sp)
   17486:	85aa                	mv	a1,a0
   17488:	8526                	mv	a0,s1
   1748a:	64a2                	ld	s1,8(sp)
   1748c:	6105                	addi	sp,sp,32
   1748e:	a2b1                	j	175da <_kill_r>
   17490:	6442                	ld	s0,16(sp)
   17492:	60e2                	ld	ra,24(sp)
   17494:	47d9                	li	a5,22
   17496:	c09c                	sw	a5,0(s1)
   17498:	4505                	li	a0,1
   1749a:	64a2                	ld	s1,8(sp)
   1749c:	6105                	addi	sp,sp,32
   1749e:	8082                	ret
   174a0:	47d9                	li	a5,22
   174a2:	c09c                	sw	a5,0(s1)
   174a4:	557d                	li	a0,-1
   174a6:	b7f1                	j	17472 <raise+0x3a>

00000000000174a8 <signal>:
   174a8:	1101                	addi	sp,sp,-32
   174aa:	e04a                	sd	s2,0(sp)
   174ac:	ec06                	sd	ra,24(sp)
   174ae:	47fd                	li	a5,31
   174b0:	2201b903          	ld	s2,544(gp) # 1adc8 <_impure_ptr>
   174b4:	02a7e463          	bltu	a5,a0,174dc <signal+0x34>
   174b8:	e822                	sd	s0,16(sp)
   174ba:	842a                	mv	s0,a0
   174bc:	15093503          	ld	a0,336(s2)
   174c0:	e426                	sd	s1,8(sp)
   174c2:	84ae                	mv	s1,a1
   174c4:	c10d                	beqz	a0,174e6 <signal+0x3e>
   174c6:	040e                	slli	s0,s0,0x3
   174c8:	008507b3          	add	a5,a0,s0
   174cc:	6388                	ld	a0,0(a5)
   174ce:	6442                	ld	s0,16(sp)
   174d0:	e384                	sd	s1,0(a5)
   174d2:	64a2                	ld	s1,8(sp)
   174d4:	60e2                	ld	ra,24(sp)
   174d6:	6902                	ld	s2,0(sp)
   174d8:	6105                	addi	sp,sp,32
   174da:	8082                	ret
   174dc:	47d9                	li	a5,22
   174de:	00f92023          	sw	a5,0(s2)
   174e2:	557d                	li	a0,-1
   174e4:	bfc5                	j	174d4 <signal+0x2c>
   174e6:	10000593          	li	a1,256
   174ea:	854a                	mv	a0,s2
   174ec:	f72f90ef          	jal	10c5e <_malloc_r>
   174f0:	14a93823          	sd	a0,336(s2)
   174f4:	87aa                	mv	a5,a0
   174f6:	10050713          	addi	a4,a0,256
   174fa:	c519                	beqz	a0,17508 <signal+0x60>
   174fc:	0007b023          	sd	zero,0(a5)
   17500:	07a1                	addi	a5,a5,8
   17502:	fef71de3          	bne	a4,a5,174fc <signal+0x54>
   17506:	b7c1                	j	174c6 <signal+0x1e>
   17508:	6442                	ld	s0,16(sp)
   1750a:	64a2                	ld	s1,8(sp)
   1750c:	557d                	li	a0,-1
   1750e:	b7d9                	j	174d4 <signal+0x2c>

0000000000017510 <_init_signal>:
   17510:	1141                	addi	sp,sp,-16
   17512:	e022                	sd	s0,0(sp)
   17514:	2201b403          	ld	s0,544(gp) # 1adc8 <_impure_ptr>
   17518:	e406                	sd	ra,8(sp)
   1751a:	15043783          	ld	a5,336(s0)
   1751e:	c791                	beqz	a5,1752a <_init_signal+0x1a>
   17520:	4501                	li	a0,0
   17522:	60a2                	ld	ra,8(sp)
   17524:	6402                	ld	s0,0(sp)
   17526:	0141                	addi	sp,sp,16
   17528:	8082                	ret
   1752a:	10000593          	li	a1,256
   1752e:	8522                	mv	a0,s0
   17530:	f2ef90ef          	jal	10c5e <_malloc_r>
   17534:	14a43823          	sd	a0,336(s0)
   17538:	c909                	beqz	a0,1754a <_init_signal+0x3a>
   1753a:	10050793          	addi	a5,a0,256
   1753e:	00053023          	sd	zero,0(a0)
   17542:	0521                	addi	a0,a0,8
   17544:	fef51de3          	bne	a0,a5,1753e <_init_signal+0x2e>
   17548:	bfe1                	j	17520 <_init_signal+0x10>
   1754a:	557d                	li	a0,-1
   1754c:	bfd9                	j	17522 <_init_signal+0x12>

000000000001754e <__sigtramp>:
   1754e:	1101                	addi	sp,sp,-32
   17550:	e426                	sd	s1,8(sp)
   17552:	ec06                	sd	ra,24(sp)
   17554:	47fd                	li	a5,31
   17556:	2201b483          	ld	s1,544(gp) # 1adc8 <_impure_ptr>
   1755a:	06a7ee63          	bltu	a5,a0,175d6 <__sigtramp+0x88>
   1755e:	1504b783          	ld	a5,336(s1)
   17562:	e822                	sd	s0,16(sp)
   17564:	842a                	mv	s0,a0
   17566:	c7a9                	beqz	a5,175b0 <__sigtramp+0x62>
   17568:	00341713          	slli	a4,s0,0x3
   1756c:	97ba                	add	a5,a5,a4
   1756e:	6398                	ld	a4,0(a5)
   17570:	c30d                	beqz	a4,17592 <__sigtramp+0x44>
   17572:	56fd                	li	a3,-1
   17574:	02d70b63          	beq	a4,a3,175aa <__sigtramp+0x5c>
   17578:	4685                	li	a3,1
   1757a:	02d70263          	beq	a4,a3,1759e <__sigtramp+0x50>
   1757e:	8522                	mv	a0,s0
   17580:	0007b023          	sd	zero,0(a5)
   17584:	9702                	jalr	a4
   17586:	6442                	ld	s0,16(sp)
   17588:	4501                	li	a0,0
   1758a:	60e2                	ld	ra,24(sp)
   1758c:	64a2                	ld	s1,8(sp)
   1758e:	6105                	addi	sp,sp,32
   17590:	8082                	ret
   17592:	6442                	ld	s0,16(sp)
   17594:	60e2                	ld	ra,24(sp)
   17596:	64a2                	ld	s1,8(sp)
   17598:	4505                	li	a0,1
   1759a:	6105                	addi	sp,sp,32
   1759c:	8082                	ret
   1759e:	6442                	ld	s0,16(sp)
   175a0:	60e2                	ld	ra,24(sp)
   175a2:	64a2                	ld	s1,8(sp)
   175a4:	450d                	li	a0,3
   175a6:	6105                	addi	sp,sp,32
   175a8:	8082                	ret
   175aa:	6442                	ld	s0,16(sp)
   175ac:	4509                	li	a0,2
   175ae:	bff1                	j	1758a <__sigtramp+0x3c>
   175b0:	10000593          	li	a1,256
   175b4:	8526                	mv	a0,s1
   175b6:	ea8f90ef          	jal	10c5e <_malloc_r>
   175ba:	14a4b823          	sd	a0,336(s1)
   175be:	87aa                	mv	a5,a0
   175c0:	c911                	beqz	a0,175d4 <__sigtramp+0x86>
   175c2:	872a                	mv	a4,a0
   175c4:	10050693          	addi	a3,a0,256
   175c8:	00073023          	sd	zero,0(a4)
   175cc:	0721                	addi	a4,a4,8
   175ce:	fee69de3          	bne	a3,a4,175c8 <__sigtramp+0x7a>
   175d2:	bf59                	j	17568 <__sigtramp+0x1a>
   175d4:	6442                	ld	s0,16(sp)
   175d6:	557d                	li	a0,-1
   175d8:	bf4d                	j	1758a <__sigtramp+0x3c>

00000000000175da <_kill_r>:
   175da:	1101                	addi	sp,sp,-32
   175dc:	872e                	mv	a4,a1
   175de:	e822                	sd	s0,16(sp)
   175e0:	e426                	sd	s1,8(sp)
   175e2:	842a                	mv	s0,a0
   175e4:	85b2                	mv	a1,a2
   175e6:	853a                	mv	a0,a4
   175e8:	ec06                	sd	ra,24(sp)
   175ea:	2401a023          	sw	zero,576(gp) # 1ade8 <errno>
   175ee:	0e0000ef          	jal	176ce <_kill>
   175f2:	57fd                	li	a5,-1
   175f4:	00f50763          	beq	a0,a5,17602 <_kill_r+0x28>
   175f8:	60e2                	ld	ra,24(sp)
   175fa:	6442                	ld	s0,16(sp)
   175fc:	64a2                	ld	s1,8(sp)
   175fe:	6105                	addi	sp,sp,32
   17600:	8082                	ret
   17602:	2401a783          	lw	a5,576(gp) # 1ade8 <errno>
   17606:	dbed                	beqz	a5,175f8 <_kill_r+0x1e>
   17608:	60e2                	ld	ra,24(sp)
   1760a:	c01c                	sw	a5,0(s0)
   1760c:	6442                	ld	s0,16(sp)
   1760e:	64a2                	ld	s1,8(sp)
   17610:	6105                	addi	sp,sp,32
   17612:	8082                	ret

0000000000017614 <_getpid_r>:
   17614:	a841                	j	176a4 <_getpid>

0000000000017616 <_close>:
   17616:	1141                	addi	sp,sp,-16
   17618:	e406                	sd	ra,8(sp)
   1761a:	e022                	sd	s0,0(sp)
   1761c:	03900893          	li	a7,57
   17620:	00000073          	ecall
   17624:	842a                	mv	s0,a0
   17626:	00054763          	bltz	a0,17634 <_close+0x1e>
   1762a:	2501                	sext.w	a0,a0
   1762c:	60a2                	ld	ra,8(sp)
   1762e:	6402                	ld	s0,0(sp)
   17630:	0141                	addi	sp,sp,16
   17632:	8082                	ret
   17634:	c5dff0ef          	jal	17290 <__errno>
   17638:	4080043b          	negw	s0,s0
   1763c:	c100                	sw	s0,0(a0)
   1763e:	557d                	li	a0,-1
   17640:	b7f5                	j	1762c <_close+0x16>

0000000000017642 <_exit>:
   17642:	05d00893          	li	a7,93
   17646:	00000073          	ecall
   1764a:	00054363          	bltz	a0,17650 <_exit+0xe>
   1764e:	a001                	j	1764e <_exit+0xc>
   17650:	1141                	addi	sp,sp,-16
   17652:	e022                	sd	s0,0(sp)
   17654:	842a                	mv	s0,a0
   17656:	e406                	sd	ra,8(sp)
   17658:	4080043b          	negw	s0,s0
   1765c:	c35ff0ef          	jal	17290 <__errno>
   17660:	c100                	sw	s0,0(a0)
   17662:	a001                	j	17662 <_exit+0x20>

0000000000017664 <_fstat>:
   17664:	7135                	addi	sp,sp,-160
   17666:	e526                	sd	s1,136(sp)
   17668:	ed06                	sd	ra,152(sp)
   1766a:	84ae                	mv	s1,a1
   1766c:	e922                	sd	s0,144(sp)
   1766e:	05000893          	li	a7,80
   17672:	858a                	mv	a1,sp
   17674:	00000073          	ecall
   17678:	842a                	mv	s0,a0
   1767a:	00054e63          	bltz	a0,17696 <_fstat+0x32>
   1767e:	0005041b          	sext.w	s0,a0
   17682:	8526                	mv	a0,s1
   17684:	858a                	mv	a1,sp
   17686:	134000ef          	jal	177ba <_conv_stat>
   1768a:	60ea                	ld	ra,152(sp)
   1768c:	8522                	mv	a0,s0
   1768e:	644a                	ld	s0,144(sp)
   17690:	64aa                	ld	s1,136(sp)
   17692:	610d                	addi	sp,sp,160
   17694:	8082                	ret
   17696:	4080043b          	negw	s0,s0
   1769a:	bf7ff0ef          	jal	17290 <__errno>
   1769e:	c100                	sw	s0,0(a0)
   176a0:	547d                	li	s0,-1
   176a2:	b7c5                	j	17682 <_fstat+0x1e>

00000000000176a4 <_getpid>:
   176a4:	4505                	li	a0,1
   176a6:	8082                	ret

00000000000176a8 <_isatty>:
   176a8:	7119                	addi	sp,sp,-128
   176aa:	002c                	addi	a1,sp,8
   176ac:	fc86                	sd	ra,120(sp)
   176ae:	fb7ff0ef          	jal	17664 <_fstat>
   176b2:	57fd                	li	a5,-1
   176b4:	00f50963          	beq	a0,a5,176c6 <_isatty+0x1e>
   176b8:	4532                	lw	a0,12(sp)
   176ba:	70e6                	ld	ra,120(sp)
   176bc:	40d5551b          	sraiw	a0,a0,0xd
   176c0:	8905                	andi	a0,a0,1
   176c2:	6109                	addi	sp,sp,128
   176c4:	8082                	ret
   176c6:	70e6                	ld	ra,120(sp)
   176c8:	4501                	li	a0,0
   176ca:	6109                	addi	sp,sp,128
   176cc:	8082                	ret

00000000000176ce <_kill>:
   176ce:	1141                	addi	sp,sp,-16
   176d0:	e406                	sd	ra,8(sp)
   176d2:	bbfff0ef          	jal	17290 <__errno>
   176d6:	60a2                	ld	ra,8(sp)
   176d8:	47d9                	li	a5,22
   176da:	c11c                	sw	a5,0(a0)
   176dc:	557d                	li	a0,-1
   176de:	0141                	addi	sp,sp,16
   176e0:	8082                	ret

00000000000176e2 <_lseek>:
   176e2:	1141                	addi	sp,sp,-16
   176e4:	e406                	sd	ra,8(sp)
   176e6:	e022                	sd	s0,0(sp)
   176e8:	03e00893          	li	a7,62
   176ec:	00000073          	ecall
   176f0:	842a                	mv	s0,a0
   176f2:	00054763          	bltz	a0,17700 <_lseek+0x1e>
   176f6:	60a2                	ld	ra,8(sp)
   176f8:	8522                	mv	a0,s0
   176fa:	6402                	ld	s0,0(sp)
   176fc:	0141                	addi	sp,sp,16
   176fe:	8082                	ret
   17700:	4080043b          	negw	s0,s0
   17704:	b8dff0ef          	jal	17290 <__errno>
   17708:	c100                	sw	s0,0(a0)
   1770a:	547d                	li	s0,-1
   1770c:	b7ed                	j	176f6 <_lseek+0x14>

000000000001770e <_read>:
   1770e:	1141                	addi	sp,sp,-16
   17710:	e406                	sd	ra,8(sp)
   17712:	e022                	sd	s0,0(sp)
   17714:	03f00893          	li	a7,63
   17718:	00000073          	ecall
   1771c:	842a                	mv	s0,a0
   1771e:	00054763          	bltz	a0,1772c <_read+0x1e>
   17722:	60a2                	ld	ra,8(sp)
   17724:	8522                	mv	a0,s0
   17726:	6402                	ld	s0,0(sp)
   17728:	0141                	addi	sp,sp,16
   1772a:	8082                	ret
   1772c:	4080043b          	negw	s0,s0
   17730:	b61ff0ef          	jal	17290 <__errno>
   17734:	c100                	sw	s0,0(a0)
   17736:	547d                	li	s0,-1
   17738:	b7ed                	j	17722 <_read+0x14>

000000000001773a <_sbrk>:
   1773a:	2701b703          	ld	a4,624(gp) # 1ae18 <heap_end.0>
   1773e:	1141                	addi	sp,sp,-16
   17740:	e406                	sd	ra,8(sp)
   17742:	87aa                	mv	a5,a0
   17744:	ef01                	bnez	a4,1775c <_sbrk+0x22>
   17746:	0d600893          	li	a7,214
   1774a:	4501                	li	a0,0
   1774c:	00000073          	ecall
   17750:	567d                	li	a2,-1
   17752:	872a                	mv	a4,a0
   17754:	02c50563          	beq	a0,a2,1777e <_sbrk+0x44>
   17758:	26a1b823          	sd	a0,624(gp) # 1ae18 <heap_end.0>
   1775c:	0d600893          	li	a7,214
   17760:	00e78533          	add	a0,a5,a4
   17764:	00000073          	ecall
   17768:	2701b703          	ld	a4,624(gp) # 1ae18 <heap_end.0>
   1776c:	97ba                	add	a5,a5,a4
   1776e:	00f51863          	bne	a0,a5,1777e <_sbrk+0x44>
   17772:	60a2                	ld	ra,8(sp)
   17774:	26a1b823          	sd	a0,624(gp) # 1ae18 <heap_end.0>
   17778:	853a                	mv	a0,a4
   1777a:	0141                	addi	sp,sp,16
   1777c:	8082                	ret
   1777e:	b13ff0ef          	jal	17290 <__errno>
   17782:	60a2                	ld	ra,8(sp)
   17784:	47b1                	li	a5,12
   17786:	c11c                	sw	a5,0(a0)
   17788:	557d                	li	a0,-1
   1778a:	0141                	addi	sp,sp,16
   1778c:	8082                	ret

000000000001778e <_write>:
   1778e:	1141                	addi	sp,sp,-16
   17790:	e406                	sd	ra,8(sp)
   17792:	e022                	sd	s0,0(sp)
   17794:	04000893          	li	a7,64
   17798:	00000073          	ecall
   1779c:	842a                	mv	s0,a0
   1779e:	00054763          	bltz	a0,177ac <_write+0x1e>
   177a2:	60a2                	ld	ra,8(sp)
   177a4:	8522                	mv	a0,s0
   177a6:	6402                	ld	s0,0(sp)
   177a8:	0141                	addi	sp,sp,16
   177aa:	8082                	ret
   177ac:	4080043b          	negw	s0,s0
   177b0:	ae1ff0ef          	jal	17290 <__errno>
   177b4:	c100                	sw	s0,0(a0)
   177b6:	547d                	li	s0,-1
   177b8:	b7ed                	j	177a2 <_write+0x14>

00000000000177ba <_conv_stat>:
   177ba:	0185d703          	lhu	a4,24(a1)
   177be:	0145d783          	lhu	a5,20(a1)
   177c2:	4dd0                	lw	a2,28(a1)
   177c4:	7194                	ld	a3,32(a1)
   177c6:	0005b303          	ld	t1,0(a1)
   177ca:	0085b883          	ld	a7,8(a1)
   177ce:	0105a803          	lw	a6,16(a1)
   177d2:	0107171b          	slliw	a4,a4,0x10
   177d6:	8fd9                	or	a5,a5,a4
   177d8:	00c51623          	sh	a2,12(a0)
   177dc:	00d51723          	sh	a3,14(a0)
   177e0:	00651023          	sh	t1,0(a0)
   177e4:	01151123          	sh	a7,2(a0)
   177e8:	01052223          	sw	a6,4(a0)
   177ec:	c51c                	sw	a5,8(a0)
   177ee:	7998                	ld	a4,48(a1)
   177f0:	65bc                	ld	a5,72(a1)
   177f2:	61b0                	ld	a2,64(a1)
   177f4:	5d94                	lw	a3,56(a1)
   177f6:	e918                	sd	a4,16(a0)
   177f8:	ed1c                	sd	a5,24(a0)
   177fa:	6db8                	ld	a4,88(a1)
   177fc:	75bc                	ld	a5,104(a1)
   177fe:	e930                	sd	a2,80(a0)
   17800:	e534                	sd	a3,72(a0)
   17802:	f518                	sd	a4,40(a0)
   17804:	fd1c                	sd	a5,56(a0)
   17806:	8082                	ret

0000000000017808 <__eqtf2>:
   17808:	882a                	mv	a6,a0
   1780a:	002027f3          	frrm	a5
   1780e:	6521                	lui	a0,0x8
   17810:	0305d713          	srli	a4,a1,0x30
   17814:	157d                	addi	a0,a0,-1 # 7fff <exit-0x80e9>
   17816:	5e7d                	li	t3,-1
   17818:	010e5893          	srli	a7,t3,0x10
   1781c:	0306d313          	srli	t1,a3,0x30
   17820:	8f69                	and	a4,a4,a0
   17822:	0115f7b3          	and	a5,a1,a7
   17826:	00a37333          	and	t1,t1,a0
   1782a:	0116f8b3          	and	a7,a3,a7
   1782e:	91fd                	srli	a1,a1,0x3f
   17830:	92fd                	srli	a3,a3,0x3f
   17832:	00a71863          	bne	a4,a0,17842 <__eqtf2+0x3a>
   17836:	0107e533          	or	a0,a5,a6
   1783a:	e905                	bnez	a0,1786a <__eqtf2+0x62>
   1783c:	04e31663          	bne	t1,a4,17888 <__eqtf2+0x80>
   17840:	a019                	j	17846 <__eqtf2+0x3e>
   17842:	04a31563          	bne	t1,a0,1788c <__eqtf2+0x84>
   17846:	00c8e533          	or	a0,a7,a2
   1784a:	c129                	beqz	a0,1788c <__eqtf2+0x84>
   1784c:	66a1                	lui	a3,0x8
   1784e:	16fd                	addi	a3,a3,-1 # 7fff <exit-0x80e9>
   17850:	02d71863          	bne	a4,a3,17880 <__eqtf2+0x78>
   17854:	0107e833          	or	a6,a5,a6
   17858:	02080063          	beqz	a6,17878 <__eqtf2+0x70>
   1785c:	577d                	li	a4,-1
   1785e:	8345                	srli	a4,a4,0x11
   17860:	00f76c63          	bltu	a4,a5,17878 <__eqtf2+0x70>
   17864:	00186073          	csrsi	fflags,16
   17868:	a005                	j	17888 <__eqtf2+0x80>
   1786a:	011e5e13          	srli	t3,t3,0x11
   1786e:	fefe7be3          	bgeu	t3,a5,17864 <__eqtf2+0x5c>
   17872:	4505                	li	a0,1
   17874:	02e31d63          	bne	t1,a4,178ae <__eqtf2+0xa6>
   17878:	00c8e633          	or	a2,a7,a2
   1787c:	4505                	li	a0,1
   1787e:	ca05                	beqz	a2,178ae <__eqtf2+0xa6>
   17880:	57fd                	li	a5,-1
   17882:	83c5                	srli	a5,a5,0x11
   17884:	ff17f0e3          	bgeu	a5,a7,17864 <__eqtf2+0x5c>
   17888:	4505                	li	a0,1
   1788a:	8082                	ret
   1788c:	4505                	li	a0,1
   1788e:	02671063          	bne	a4,t1,178ae <__eqtf2+0xa6>
   17892:	01179e63          	bne	a5,a7,178ae <__eqtf2+0xa6>
   17896:	00c81c63          	bne	a6,a2,178ae <__eqtf2+0xa6>
   1789a:	00d58863          	beq	a1,a3,178aa <__eqtf2+0xa2>
   1789e:	eb01                	bnez	a4,178ae <__eqtf2+0xa6>
   178a0:	0107e7b3          	or	a5,a5,a6
   178a4:	00f03533          	snez	a0,a5
   178a8:	8082                	ret
   178aa:	4501                	li	a0,0
   178ac:	8082                	ret
   178ae:	8082                	ret

00000000000178b0 <__getf2>:
   178b0:	88aa                	mv	a7,a0
   178b2:	002027f3          	frrm	a5
   178b6:	6321                	lui	t1,0x8
   178b8:	0305d813          	srli	a6,a1,0x30
   178bc:	137d                	addi	t1,t1,-1 # 7fff <exit-0x80e9>
   178be:	577d                	li	a4,-1
   178c0:	8341                	srli	a4,a4,0x10
   178c2:	0306d793          	srli	a5,a3,0x30
   178c6:	00687833          	and	a6,a6,t1
   178ca:	00e5fe33          	and	t3,a1,a4
   178ce:	0067f533          	and	a0,a5,t1
   178d2:	8f75                	and	a4,a4,a3
   178d4:	91fd                	srli	a1,a1,0x3f
   178d6:	92fd                	srli	a3,a3,0x3f
   178d8:	00681563          	bne	a6,t1,178e2 <__getf2+0x32>
   178dc:	011e67b3          	or	a5,t3,a7
   178e0:	ebb1                	bnez	a5,17934 <__getf2+0x84>
   178e2:	00651563          	bne	a0,t1,178ec <__getf2+0x3c>
   178e6:	00c767b3          	or	a5,a4,a2
   178ea:	e7a9                	bnez	a5,17934 <__getf2+0x84>
   178ec:	4781                	li	a5,0
   178ee:	00081663          	bnez	a6,178fa <__getf2+0x4a>
   178f2:	011e67b3          	or	a5,t3,a7
   178f6:	0017b793          	seqz	a5,a5
   178fa:	e129                	bnez	a0,1793c <__getf2+0x8c>
   178fc:	00c76333          	or	t1,a4,a2
   17900:	c799                	beqz	a5,1790e <__getf2+0x5e>
   17902:	00030a63          	beqz	t1,17916 <__getf2+0x66>
   17906:	4505                	li	a0,1
   17908:	e699                	bnez	a3,17916 <__getf2+0x66>
   1790a:	557d                	li	a0,-1
   1790c:	8082                	ret
   1790e:	02031863          	bnez	t1,1793e <__getf2+0x8e>
   17912:	557d                	li	a0,-1
   17914:	c99d                	beqz	a1,1794a <__getf2+0x9a>
   17916:	8082                	ret
   17918:	fea847e3          	blt	a6,a0,17906 <__getf2+0x56>
   1791c:	ffc76be3          	bltu	a4,t3,17912 <__getf2+0x62>
   17920:	00ee1763          	bne	t3,a4,1792e <__getf2+0x7e>
   17924:	ff1667e3          	bltu	a2,a7,17912 <__getf2+0x62>
   17928:	4501                	li	a0,0
   1792a:	fec8f6e3          	bgeu	a7,a2,17916 <__getf2+0x66>
   1792e:	4505                	li	a0,1
   17930:	f1fd                	bnez	a1,17916 <__getf2+0x66>
   17932:	bfe1                	j	1790a <__getf2+0x5a>
   17934:	00186073          	csrsi	fflags,16
   17938:	5579                	li	a0,-2
   1793a:	8082                	ret
   1793c:	f7e9                	bnez	a5,17906 <__getf2+0x56>
   1793e:	fcb69ae3          	bne	a3,a1,17912 <__getf2+0x62>
   17942:	fd055be3          	bge	a0,a6,17918 <__getf2+0x68>
   17946:	557d                	li	a0,-1
   17948:	f6f9                	bnez	a3,17916 <__getf2+0x66>
   1794a:	4505                	li	a0,1
   1794c:	8082                	ret

000000000001794e <__letf2>:
   1794e:	88aa                	mv	a7,a0
   17950:	002027f3          	frrm	a5
   17954:	6321                	lui	t1,0x8
   17956:	0305d813          	srli	a6,a1,0x30
   1795a:	137d                	addi	t1,t1,-1 # 7fff <exit-0x80e9>
   1795c:	577d                	li	a4,-1
   1795e:	8341                	srli	a4,a4,0x10
   17960:	0306d793          	srli	a5,a3,0x30
   17964:	00687833          	and	a6,a6,t1
   17968:	00e5fe33          	and	t3,a1,a4
   1796c:	0067f533          	and	a0,a5,t1
   17970:	8f75                	and	a4,a4,a3
   17972:	91fd                	srli	a1,a1,0x3f
   17974:	92fd                	srli	a3,a3,0x3f
   17976:	00681563          	bne	a6,t1,17980 <__letf2+0x32>
   1797a:	011e67b3          	or	a5,t3,a7
   1797e:	ebb1                	bnez	a5,179d2 <__letf2+0x84>
   17980:	00651563          	bne	a0,t1,1798a <__letf2+0x3c>
   17984:	00c767b3          	or	a5,a4,a2
   17988:	e7a9                	bnez	a5,179d2 <__letf2+0x84>
   1798a:	4781                	li	a5,0
   1798c:	00081663          	bnez	a6,17998 <__letf2+0x4a>
   17990:	011e67b3          	or	a5,t3,a7
   17994:	0017b793          	seqz	a5,a5
   17998:	e129                	bnez	a0,179da <__letf2+0x8c>
   1799a:	00c76333          	or	t1,a4,a2
   1799e:	c799                	beqz	a5,179ac <__letf2+0x5e>
   179a0:	00030a63          	beqz	t1,179b4 <__letf2+0x66>
   179a4:	4505                	li	a0,1
   179a6:	e699                	bnez	a3,179b4 <__letf2+0x66>
   179a8:	557d                	li	a0,-1
   179aa:	8082                	ret
   179ac:	02031863          	bnez	t1,179dc <__letf2+0x8e>
   179b0:	557d                	li	a0,-1
   179b2:	c99d                	beqz	a1,179e8 <__letf2+0x9a>
   179b4:	8082                	ret
   179b6:	fea847e3          	blt	a6,a0,179a4 <__letf2+0x56>
   179ba:	ffc76be3          	bltu	a4,t3,179b0 <__letf2+0x62>
   179be:	00ee1763          	bne	t3,a4,179cc <__letf2+0x7e>
   179c2:	ff1667e3          	bltu	a2,a7,179b0 <__letf2+0x62>
   179c6:	4501                	li	a0,0
   179c8:	fec8f6e3          	bgeu	a7,a2,179b4 <__letf2+0x66>
   179cc:	4505                	li	a0,1
   179ce:	f1fd                	bnez	a1,179b4 <__letf2+0x66>
   179d0:	bfe1                	j	179a8 <__letf2+0x5a>
   179d2:	00186073          	csrsi	fflags,16
   179d6:	4509                	li	a0,2
   179d8:	8082                	ret
   179da:	f7e9                	bnez	a5,179a4 <__letf2+0x56>
   179dc:	fcb69ae3          	bne	a3,a1,179b0 <__letf2+0x62>
   179e0:	fd055be3          	bge	a0,a6,179b6 <__letf2+0x68>
   179e4:	557d                	li	a0,-1
   179e6:	f6f9                	bnez	a3,179b4 <__letf2+0x66>
   179e8:	4505                	li	a0,1
   179ea:	8082                	ret

00000000000179ec <__multf3>:
   179ec:	711d                	addi	sp,sp,-96
   179ee:	e8a2                	sd	s0,80(sp)
   179f0:	f456                	sd	s5,40(sp)
   179f2:	e862                	sd	s8,16(sp)
   179f4:	ec86                	sd	ra,88(sp)
   179f6:	e4a6                	sd	s1,72(sp)
   179f8:	e0ca                	sd	s2,64(sp)
   179fa:	fc4e                	sd	s3,56(sp)
   179fc:	f852                	sd	s4,48(sp)
   179fe:	f05a                	sd	s6,32(sp)
   17a00:	ec5e                	sd	s7,24(sp)
   17a02:	e466                	sd	s9,8(sp)
   17a04:	842a                	mv	s0,a0
   17a06:	8c32                	mv	s8,a2
   17a08:	8ab6                	mv	s5,a3
   17a0a:	002029f3          	frrm	s3
   17a0e:	6721                	lui	a4,0x8
   17a10:	0305d793          	srli	a5,a1,0x30
   17a14:	177d                	addi	a4,a4,-1 # 7fff <exit-0x80e9>
   17a16:	01059493          	slli	s1,a1,0x10
   17a1a:	8ff9                	and	a5,a5,a4
   17a1c:	2981                	sext.w	s3,s3
   17a1e:	80c1                	srli	s1,s1,0x10
   17a20:	03f5db13          	srli	s6,a1,0x3f
   17a24:	c785                	beqz	a5,17a4c <__multf3+0x60>
   17a26:	00078a1b          	sext.w	s4,a5
   17a2a:	06e78f63          	beq	a5,a4,17aa8 <__multf3+0xbc>
   17a2e:	048e                	slli	s1,s1,0x3
   17a30:	03d55713          	srli	a4,a0,0x3d
   17a34:	8f45                	or	a4,a4,s1
   17a36:	7a71                	lui	s4,0xffffc
   17a38:	4485                	li	s1,1
   17a3a:	14ce                	slli	s1,s1,0x33
   17a3c:	0a05                	addi	s4,s4,1 # ffffffffffffc001 <__BSS_END__+0xfffffffffffe0c59>
   17a3e:	8cd9                	or	s1,s1,a4
   17a40:	00351b93          	slli	s7,a0,0x3
   17a44:	9a3e                	add	s4,s4,a5
   17a46:	4c81                	li	s9,0
   17a48:	4901                	li	s2,0
   17a4a:	a895                	j	17abe <__multf3+0xd2>
   17a4c:	00956bb3          	or	s7,a0,s1
   17a50:	280b8263          	beqz	s7,17cd4 <__multf3+0x2e8>
   17a54:	c89d                	beqz	s1,17a8a <__multf3+0x9e>
   17a56:	8526                	mv	a0,s1
   17a58:	77f000ef          	jal	189d6 <__clzdi2>
   17a5c:	2501                	sext.w	a0,a0
   17a5e:	ff150793          	addi	a5,a0,-15
   17a62:	03d00713          	li	a4,61
   17a66:	0037869b          	addiw	a3,a5,3
   17a6a:	40f707bb          	subw	a5,a4,a5
   17a6e:	00d494b3          	sll	s1,s1,a3
   17a72:	00f457b3          	srl	a5,s0,a5
   17a76:	8fc5                	or	a5,a5,s1
   17a78:	00d414b3          	sll	s1,s0,a3
   17a7c:	7a71                	lui	s4,0xffffc
   17a7e:	0a45                	addi	s4,s4,17 # ffffffffffffc011 <__BSS_END__+0xfffffffffffe0c69>
   17a80:	8ba6                	mv	s7,s1
   17a82:	40aa0a33          	sub	s4,s4,a0
   17a86:	84be                	mv	s1,a5
   17a88:	bf7d                	j	17a46 <__multf3+0x5a>
   17a8a:	74d000ef          	jal	189d6 <__clzdi2>
   17a8e:	0405051b          	addiw	a0,a0,64
   17a92:	ff150793          	addi	a5,a0,-15
   17a96:	03c00713          	li	a4,60
   17a9a:	fcf754e3          	bge	a4,a5,17a62 <__multf3+0x76>
   17a9e:	fc37879b          	addiw	a5,a5,-61
   17aa2:	00f417b3          	sll	a5,s0,a5
   17aa6:	bfd9                	j	17a7c <__multf3+0x90>
   17aa8:	00956bb3          	or	s7,a0,s1
   17aac:	220b8863          	beqz	s7,17cdc <__multf3+0x2f0>
   17ab0:	4905                	li	s2,1
   17ab2:	193e                	slli	s2,s2,0x2f
   17ab4:	0124b933          	sltu	s2,s1,s2
   17ab8:	0912                	slli	s2,s2,0x4
   17aba:	8baa                	mv	s7,a0
   17abc:	4c8d                	li	s9,3
   17abe:	6621                	lui	a2,0x8
   17ac0:	030ad713          	srli	a4,s5,0x30
   17ac4:	56fd                	li	a3,-1
   17ac6:	167d                	addi	a2,a2,-1 # 7fff <exit-0x80e9>
   17ac8:	0106d413          	srli	s0,a3,0x10
   17acc:	8f71                	and	a4,a4,a2
   17ace:	008af433          	and	s0,s5,s0
   17ad2:	8562                	mv	a0,s8
   17ad4:	03fada93          	srli	s5,s5,0x3f
   17ad8:	20070563          	beqz	a4,17ce2 <__multf3+0x2f6>
   17adc:	0007079b          	sext.w	a5,a4
   17ae0:	24c70e63          	beq	a4,a2,17d3c <__multf3+0x350>
   17ae4:	040e                	slli	s0,s0,0x3
   17ae6:	03dc5793          	srli	a5,s8,0x3d
   17aea:	8fc1                	or	a5,a5,s0
   17aec:	4405                	li	s0,1
   17aee:	144e                	slli	s0,s0,0x33
   17af0:	8c5d                	or	s0,s0,a5
   17af2:	77f1                	lui	a5,0xffffc
   17af4:	0785                	addi	a5,a5,1 # ffffffffffffc001 <__BSS_END__+0xfffffffffffe0c59>
   17af6:	003c1513          	slli	a0,s8,0x3
   17afa:	97ba                	add	a5,a5,a4
   17afc:	4701                	li	a4,0
   17afe:	014786b3          	add	a3,a5,s4
   17b02:	002c9793          	slli	a5,s9,0x2
   17b06:	8fd9                	or	a5,a5,a4
   17b08:	4629                	li	a2,10
   17b0a:	00168893          	addi	a7,a3,1
   17b0e:	2af64f63          	blt	a2,a5,17dcc <__multf3+0x3e0>
   17b12:	4589                	li	a1,2
   17b14:	015b4633          	xor	a2,s6,s5
   17b18:	24f5c463          	blt	a1,a5,17d60 <__multf3+0x374>
   17b1c:	17fd                	addi	a5,a5,-1
   17b1e:	4585                	li	a1,1
   17b20:	24f5ff63          	bgeu	a1,a5,17d7e <__multf3+0x392>
   17b24:	57fd                	li	a5,-1
   17b26:	9381                	srli	a5,a5,0x20
   17b28:	020bd713          	srli	a4,s7,0x20
   17b2c:	02055593          	srli	a1,a0,0x20
   17b30:	01748fb3          	add	t6,s1,s7
   17b34:	00850f33          	add	t5,a0,s0
   17b38:	00fbfbb3          	and	s7,s7,a5
   17b3c:	8fe9                	and	a5,a5,a0
   17b3e:	00af3eb3          	sltu	t4,t5,a0
   17b42:	03778533          	mul	a0,a5,s7
   17b46:	009fbe33          	sltu	t3,t6,s1
   17b4a:	02f707b3          	mul	a5,a4,a5
   17b4e:	02055813          	srli	a6,a0,0x20
   17b52:	02b70733          	mul	a4,a4,a1
   17b56:	037585b3          	mul	a1,a1,s7
   17b5a:	95be                	add	a1,a1,a5
   17b5c:	982e                	add	a6,a6,a1
   17b5e:	00f87563          	bgeu	a6,a5,17b68 <__multf3+0x17c>
   17b62:	4785                	li	a5,1
   17b64:	1782                	slli	a5,a5,0x20
   17b66:	973e                	add	a4,a4,a5
   17b68:	57fd                	li	a5,-1
   17b6a:	9381                	srli	a5,a5,0x20
   17b6c:	02085313          	srli	t1,a6,0x20
   17b70:	00f87833          	and	a6,a6,a5
   17b74:	8d7d                	and	a0,a0,a5
   17b76:	1802                	slli	a6,a6,0x20
   17b78:	020fd393          	srli	t2,t6,0x20
   17b7c:	933a                	add	t1,t1,a4
   17b7e:	982a                	add	a6,a6,a0
   17b80:	020f5713          	srli	a4,t5,0x20
   17b84:	00fff533          	and	a0,t6,a5
   17b88:	00ff77b3          	and	a5,t5,a5
   17b8c:	02a785b3          	mul	a1,a5,a0
   17b90:	02f387b3          	mul	a5,t2,a5
   17b94:	0205d293          	srli	t0,a1,0x20
   17b98:	02e383b3          	mul	t2,t2,a4
   17b9c:	02a70733          	mul	a4,a4,a0
   17ba0:	973e                	add	a4,a4,a5
   17ba2:	92ba                	add	t0,t0,a4
   17ba4:	00f2f563          	bgeu	t0,a5,17bae <__multf3+0x1c2>
   17ba8:	4785                	li	a5,1
   17baa:	1782                	slli	a5,a5,0x20
   17bac:	93be                	add	t2,t2,a5
   17bae:	57fd                	li	a5,-1
   17bb0:	9381                	srli	a5,a5,0x20
   17bb2:	0202d713          	srli	a4,t0,0x20
   17bb6:	00f2f2b3          	and	t0,t0,a5
   17bba:	8dfd                	and	a1,a1,a5
   17bbc:	1282                	slli	t0,t0,0x20
   17bbe:	02045513          	srli	a0,s0,0x20
   17bc2:	92ae                	add	t0,t0,a1
   17bc4:	0204d593          	srli	a1,s1,0x20
   17bc8:	8cfd                	and	s1,s1,a5
   17bca:	8fe1                	and	a5,a5,s0
   17bcc:	02f48a33          	mul	s4,s1,a5
   17bd0:	02a58433          	mul	s0,a1,a0
   17bd4:	02f587b3          	mul	a5,a1,a5
   17bd8:	02950533          	mul	a0,a0,s1
   17bdc:	00f505b3          	add	a1,a0,a5
   17be0:	020a5513          	srli	a0,s4,0x20
   17be4:	952e                	add	a0,a0,a1
   17be6:	00f57563          	bgeu	a0,a5,17bf0 <__multf3+0x204>
   17bea:	4785                	li	a5,1
   17bec:	1782                	slli	a5,a5,0x20
   17bee:	943e                	add	s0,s0,a5
   17bf0:	02055593          	srli	a1,a0,0x20
   17bf4:	95a2                	add	a1,a1,s0
   17bf6:	547d                	li	s0,-1
   17bf8:	9001                	srli	s0,s0,0x20
   17bfa:	008577b3          	and	a5,a0,s0
   17bfe:	1782                	slli	a5,a5,0x20
   17c00:	008a7a33          	and	s4,s4,s0
   17c04:	97d2                	add	a5,a5,s4
   17c06:	4501                	li	a0,0
   17c08:	000e8363          	beqz	t4,17c0e <__multf3+0x222>
   17c0c:	857e                	mv	a0,t6
   17c0e:	4f81                	li	t6,0
   17c10:	000e0363          	beqz	t3,17c16 <__multf3+0x22a>
   17c14:	8ffa                	mv	t6,t5
   17c16:	00628433          	add	s0,t0,t1
   17c1a:	00543f33          	sltu	t5,s0,t0
   17c1e:	977a                	add	a4,a4,t5
   17c20:	971e                	add	a4,a4,t2
   17c22:	01de7e33          	and	t3,t3,t4
   17c26:	01e73f33          	sltu	t5,a4,t5
   17c2a:	953a                	add	a0,a0,a4
   17c2c:	9f72                	add	t5,t5,t3
   17c2e:	00e53733          	sltu	a4,a0,a4
   17c32:	957e                	add	a0,a0,t6
   17c34:	977a                	add	a4,a4,t5
   17c36:	01f53fb3          	sltu	t6,a0,t6
   17c3a:	41040e33          	sub	t3,s0,a6
   17c3e:	01c43eb3          	sltu	t4,s0,t3
   17c42:	9fba                	add	t6,t6,a4
   17c44:	40650733          	sub	a4,a0,t1
   17c48:	00e53f33          	sltu	t5,a0,a4
   17c4c:	41d70733          	sub	a4,a4,t4
   17c50:	4e81                	li	t4,0
   17c52:	01c47663          	bgeu	s0,t3,17c5e <__multf3+0x272>
   17c56:	40a30333          	sub	t1,t1,a0
   17c5a:	00133e93          	seqz	t4,t1
   17c5e:	9fae                	add	t6,t6,a1
   17c60:	40fe0333          	sub	t1,t3,a5
   17c64:	40b705b3          	sub	a1,a4,a1
   17c68:	00b73533          	sltu	a0,a4,a1
   17c6c:	006e3733          	sltu	a4,t3,t1
   17c70:	01eeef33          	or	t5,t4,t5
   17c74:	40e78733          	sub	a4,a5,a4
   17c78:	4e81                	li	t4,0
   17c7a:	006e7463          	bgeu	t3,t1,17c82 <__multf3+0x296>
   17c7e:	0015be93          	seqz	t4,a1
   17c82:	95ba                	add	a1,a1,a4
   17c84:	00f5b733          	sltu	a4,a1,a5
   17c88:	977e                	add	a4,a4,t6
   17c8a:	00aeeeb3          	or	t4,t4,a0
   17c8e:	41e70733          	sub	a4,a4,t5
   17c92:	00d31513          	slli	a0,t1,0xd
   17c96:	41d70733          	sub	a4,a4,t4
   17c9a:	01056533          	or	a0,a0,a6
   17c9e:	0736                	slli	a4,a4,0xd
   17ca0:	00a03533          	snez	a0,a0
   17ca4:	03335313          	srli	t1,t1,0x33
   17ca8:	0335d413          	srli	s0,a1,0x33
   17cac:	00656533          	or	a0,a0,t1
   17cb0:	05b6                	slli	a1,a1,0xd
   17cb2:	00b71793          	slli	a5,a4,0xb
   17cb6:	8c59                	or	s0,s0,a4
   17cb8:	8d4d                	or	a0,a0,a1
   17cba:	0007db63          	bgez	a5,17cd0 <__multf3+0x2e4>
   17cbe:	00155793          	srli	a5,a0,0x1
   17cc2:	8905                	andi	a0,a0,1
   17cc4:	8fc9                	or	a5,a5,a0
   17cc6:	03f41513          	slli	a0,s0,0x3f
   17cca:	8d5d                	or	a0,a0,a5
   17ccc:	8005                	srli	s0,s0,0x1
   17cce:	86c6                	mv	a3,a7
   17cd0:	88b6                	mv	a7,a3
   17cd2:	a87d                	j	17d90 <__multf3+0x3a4>
   17cd4:	4481                	li	s1,0
   17cd6:	4a01                	li	s4,0
   17cd8:	4c85                	li	s9,1
   17cda:	b3bd                	j	17a48 <__multf3+0x5c>
   17cdc:	4481                	li	s1,0
   17cde:	4c89                	li	s9,2
   17ce0:	b3a5                	j	17a48 <__multf3+0x5c>
   17ce2:	008c67b3          	or	a5,s8,s0
   17ce6:	c7a5                	beqz	a5,17d4e <__multf3+0x362>
   17ce8:	c81d                	beqz	s0,17d1e <__multf3+0x332>
   17cea:	8522                	mv	a0,s0
   17cec:	4eb000ef          	jal	189d6 <__clzdi2>
   17cf0:	2501                	sext.w	a0,a0
   17cf2:	ff150793          	addi	a5,a0,-15
   17cf6:	03d00713          	li	a4,61
   17cfa:	0037869b          	addiw	a3,a5,3
   17cfe:	40f707bb          	subw	a5,a4,a5
   17d02:	00d41433          	sll	s0,s0,a3
   17d06:	00fc57b3          	srl	a5,s8,a5
   17d0a:	0087e733          	or	a4,a5,s0
   17d0e:	00dc1433          	sll	s0,s8,a3
   17d12:	77f1                	lui	a5,0xffffc
   17d14:	07c5                	addi	a5,a5,17 # ffffffffffffc011 <__BSS_END__+0xfffffffffffe0c69>
   17d16:	8f89                	sub	a5,a5,a0
   17d18:	8522                	mv	a0,s0
   17d1a:	843a                	mv	s0,a4
   17d1c:	b3c5                	j	17afc <__multf3+0x110>
   17d1e:	4b9000ef          	jal	189d6 <__clzdi2>
   17d22:	0405051b          	addiw	a0,a0,64
   17d26:	ff150793          	addi	a5,a0,-15
   17d2a:	03c00713          	li	a4,60
   17d2e:	fcf754e3          	bge	a4,a5,17cf6 <__multf3+0x30a>
   17d32:	fc37879b          	addiw	a5,a5,-61
   17d36:	00fc1733          	sll	a4,s8,a5
   17d3a:	bfe1                	j	17d12 <__multf3+0x326>
   17d3c:	008c6733          	or	a4,s8,s0
   17d40:	cf01                	beqz	a4,17d58 <__multf3+0x36c>
   17d42:	82c5                	srli	a3,a3,0x11
   17d44:	470d                	li	a4,3
   17d46:	da86ece3          	bltu	a3,s0,17afe <__multf3+0x112>
   17d4a:	4941                	li	s2,16
   17d4c:	bb4d                	j	17afe <__multf3+0x112>
   17d4e:	4401                	li	s0,0
   17d50:	4501                	li	a0,0
   17d52:	4781                	li	a5,0
   17d54:	4705                	li	a4,1
   17d56:	b365                	j	17afe <__multf3+0x112>
   17d58:	4401                	li	s0,0
   17d5a:	4501                	li	a0,0
   17d5c:	4709                	li	a4,2
   17d5e:	b345                	j	17afe <__multf3+0x112>
   17d60:	4585                	li	a1,1
   17d62:	00f597b3          	sll	a5,a1,a5
   17d66:	5307f593          	andi	a1,a5,1328
   17d6a:	e9a5                	bnez	a1,17dda <__multf3+0x3ee>
   17d6c:	2407f593          	andi	a1,a5,576
   17d70:	24059963          	bnez	a1,17fc2 <__multf3+0x5d6>
   17d74:	0887f793          	andi	a5,a5,136
   17d78:	da0786e3          	beqz	a5,17b24 <__multf3+0x138>
   17d7c:	8656                	mv	a2,s5
   17d7e:	4789                	li	a5,2
   17d80:	24f70963          	beq	a4,a5,17fd2 <__multf3+0x5e6>
   17d84:	478d                	li	a5,3
   17d86:	22f70f63          	beq	a4,a5,17fc4 <__multf3+0x5d8>
   17d8a:	4785                	li	a5,1
   17d8c:	24f70863          	beq	a4,a5,17fdc <__multf3+0x5f0>
   17d90:	6711                	lui	a4,0x4
   17d92:	177d                	addi	a4,a4,-1 # 3fff <exit-0xc0e9>
   17d94:	9746                	add	a4,a4,a7
   17d96:	0ce05f63          	blez	a4,17e74 <__multf3+0x488>
   17d9a:	00757793          	andi	a5,a0,7
   17d9e:	c7b9                	beqz	a5,17dec <__multf3+0x400>
   17da0:	4789                	li	a5,2
   17da2:	00196913          	ori	s2,s2,1
   17da6:	04f98263          	beq	s3,a5,17dea <__multf3+0x3fe>
   17daa:	478d                	li	a5,3
   17dac:	02f98b63          	beq	s3,a5,17de2 <__multf3+0x3f6>
   17db0:	02099e63          	bnez	s3,17dec <__multf3+0x400>
   17db4:	00f57793          	andi	a5,a0,15
   17db8:	4691                	li	a3,4
   17dba:	02d78963          	beq	a5,a3,17dec <__multf3+0x400>
   17dbe:	00450793          	addi	a5,a0,4
   17dc2:	00a7b6b3          	sltu	a3,a5,a0
   17dc6:	9436                	add	s0,s0,a3
   17dc8:	853e                	mv	a0,a5
   17dca:	a00d                	j	17dec <__multf3+0x400>
   17dcc:	46bd                	li	a3,15
   17dce:	1ed78b63          	beq	a5,a3,17fc4 <__multf3+0x5d8>
   17dd2:	46ad                	li	a3,11
   17dd4:	865a                	mv	a2,s6
   17dd6:	fad783e3          	beq	a5,a3,17d7c <__multf3+0x390>
   17dda:	8426                	mv	s0,s1
   17ddc:	855e                	mv	a0,s7
   17dde:	8766                	mv	a4,s9
   17de0:	bf79                	j	17d7e <__multf3+0x392>
   17de2:	e609                	bnez	a2,17dec <__multf3+0x400>
   17de4:	00850793          	addi	a5,a0,8
   17de8:	bfe9                	j	17dc2 <__multf3+0x3d6>
   17dea:	fe6d                	bnez	a2,17de4 <__multf3+0x3f8>
   17dec:	00b41793          	slli	a5,s0,0xb
   17df0:	0007d863          	bgez	a5,17e00 <__multf3+0x414>
   17df4:	57fd                	li	a5,-1
   17df6:	17d2                	slli	a5,a5,0x34
   17df8:	17fd                	addi	a5,a5,-1
   17dfa:	6711                	lui	a4,0x4
   17dfc:	8c7d                	and	s0,s0,a5
   17dfe:	9746                	add	a4,a4,a7
   17e00:	67a1                	lui	a5,0x8
   17e02:	17f9                	addi	a5,a5,-2 # 7ffe <exit-0x80ea>
   17e04:	66a1                	lui	a3,0x8
   17e06:	04e7c263          	blt	a5,a4,17e4a <__multf3+0x45e>
   17e0a:	00355793          	srli	a5,a0,0x3
   17e0e:	03d41513          	slli	a0,s0,0x3d
   17e12:	8d5d                	or	a0,a0,a5
   17e14:	00345793          	srli	a5,s0,0x3
   17e18:	00f6161b          	slliw	a2,a2,0xf
   17e1c:	01079593          	slli	a1,a5,0x10
   17e20:	8f51                	or	a4,a4,a2
   17e22:	1742                	slli	a4,a4,0x30
   17e24:	81c1                	srli	a1,a1,0x10
   17e26:	8dd9                	or	a1,a1,a4
   17e28:	00090463          	beqz	s2,17e30 <__multf3+0x444>
   17e2c:	00192073          	csrs	fflags,s2
   17e30:	60e6                	ld	ra,88(sp)
   17e32:	6446                	ld	s0,80(sp)
   17e34:	64a6                	ld	s1,72(sp)
   17e36:	6906                	ld	s2,64(sp)
   17e38:	79e2                	ld	s3,56(sp)
   17e3a:	7a42                	ld	s4,48(sp)
   17e3c:	7aa2                	ld	s5,40(sp)
   17e3e:	7b02                	ld	s6,32(sp)
   17e40:	6be2                	ld	s7,24(sp)
   17e42:	6c42                	ld	s8,16(sp)
   17e44:	6ca2                	ld	s9,8(sp)
   17e46:	6125                	addi	sp,sp,96
   17e48:	8082                	ret
   17e4a:	4709                	li	a4,2
   17e4c:	02e98263          	beq	s3,a4,17e70 <__multf3+0x484>
   17e50:	470d                	li	a4,3
   17e52:	00e98863          	beq	s3,a4,17e62 <__multf3+0x476>
   17e56:	00099763          	bnez	s3,17e64 <__multf3+0x478>
   17e5a:	4501                	li	a0,0
   17e5c:	fff68713          	addi	a4,a3,-1 # 7fff <exit-0x80e9>
   17e60:	a021                	j	17e68 <__multf3+0x47c>
   17e62:	de65                	beqz	a2,17e5a <__multf3+0x46e>
   17e64:	557d                	li	a0,-1
   17e66:	873e                	mv	a4,a5
   17e68:	00596913          	ori	s2,s2,5
   17e6c:	87aa                	mv	a5,a0
   17e6e:	b76d                	j	17e18 <__multf3+0x42c>
   17e70:	f66d                	bnez	a2,17e5a <__multf3+0x46e>
   17e72:	bfcd                	j	17e64 <__multf3+0x478>
   17e74:	4685                	li	a3,1
   17e76:	e721                	bnez	a4,17ebe <__multf3+0x4d2>
   17e78:	00757693          	andi	a3,a0,7
   17e7c:	87a2                	mv	a5,s0
   17e7e:	ca9d                	beqz	a3,17eb4 <__multf3+0x4c8>
   17e80:	4689                	li	a3,2
   17e82:	00196913          	ori	s2,s2,1
   17e86:	02d98663          	beq	s3,a3,17eb2 <__multf3+0x4c6>
   17e8a:	468d                	li	a3,3
   17e8c:	00d98f63          	beq	s3,a3,17eaa <__multf3+0x4be>
   17e90:	02099263          	bnez	s3,17eb4 <__multf3+0x4c8>
   17e94:	00f57693          	andi	a3,a0,15
   17e98:	4591                	li	a1,4
   17e9a:	00b68d63          	beq	a3,a1,17eb4 <__multf3+0x4c8>
   17e9e:	ffc53793          	sltiu	a5,a0,-4
   17ea2:	0017c793          	xori	a5,a5,1
   17ea6:	97a2                	add	a5,a5,s0
   17ea8:	a031                	j	17eb4 <__multf3+0x4c8>
   17eaa:	e609                	bnez	a2,17eb4 <__multf3+0x4c8>
   17eac:	ff853793          	sltiu	a5,a0,-8
   17eb0:	bfcd                	j	17ea2 <__multf3+0x4b6>
   17eb2:	fe6d                	bnez	a2,17eac <__multf3+0x4c0>
   17eb4:	0347d693          	srli	a3,a5,0x34
   17eb8:	0016c693          	xori	a3,a3,1
   17ebc:	8a85                	andi	a3,a3,1
   17ebe:	4805                	li	a6,1
   17ec0:	40e80833          	sub	a6,a6,a4
   17ec4:	07400793          	li	a5,116
   17ec8:	0d07c263          	blt	a5,a6,17f8c <__multf3+0x5a0>
   17ecc:	03f00713          	li	a4,63
   17ed0:	0008079b          	sext.w	a5,a6
   17ed4:	05074b63          	blt	a4,a6,17f2a <__multf3+0x53e>
   17ed8:	04000593          	li	a1,64
   17edc:	9d9d                	subw	a1,a1,a5
   17ede:	00b41733          	sll	a4,s0,a1
   17ee2:	00f55833          	srl	a6,a0,a5
   17ee6:	00b515b3          	sll	a1,a0,a1
   17eea:	01076733          	or	a4,a4,a6
   17eee:	00b035b3          	snez	a1,a1
   17ef2:	8f4d                	or	a4,a4,a1
   17ef4:	00f457b3          	srl	a5,s0,a5
   17ef8:	00777593          	andi	a1,a4,7
   17efc:	c1a5                	beqz	a1,17f5c <__multf3+0x570>
   17efe:	4589                	li	a1,2
   17f00:	00196913          	ori	s2,s2,1
   17f04:	04b98b63          	beq	s3,a1,17f5a <__multf3+0x56e>
   17f08:	458d                	li	a1,3
   17f0a:	04b98463          	beq	s3,a1,17f52 <__multf3+0x566>
   17f0e:	04099763          	bnez	s3,17f5c <__multf3+0x570>
   17f12:	00f77593          	andi	a1,a4,15
   17f16:	4511                	li	a0,4
   17f18:	04a58263          	beq	a1,a0,17f5c <__multf3+0x570>
   17f1c:	00470593          	addi	a1,a4,4 # 4004 <exit-0xc0e4>
   17f20:	00e5b533          	sltu	a0,a1,a4
   17f24:	97aa                	add	a5,a5,a0
   17f26:	872e                	mv	a4,a1
   17f28:	a815                	j	17f5c <__multf3+0x570>
   17f2a:	fc07871b          	addiw	a4,a5,-64
   17f2e:	04000893          	li	a7,64
   17f32:	00e45733          	srl	a4,s0,a4
   17f36:	4581                	li	a1,0
   17f38:	01180763          	beq	a6,a7,17f46 <__multf3+0x55a>
   17f3c:	08000593          	li	a1,128
   17f40:	9d9d                	subw	a1,a1,a5
   17f42:	00b415b3          	sll	a1,s0,a1
   17f46:	8dc9                	or	a1,a1,a0
   17f48:	00b035b3          	snez	a1,a1
   17f4c:	8f4d                	or	a4,a4,a1
   17f4e:	4781                	li	a5,0
   17f50:	b765                	j	17ef8 <__multf3+0x50c>
   17f52:	e609                	bnez	a2,17f5c <__multf3+0x570>
   17f54:	00870593          	addi	a1,a4,8
   17f58:	b7e1                	j	17f20 <__multf3+0x534>
   17f5a:	fe6d                	bnez	a2,17f54 <__multf3+0x568>
   17f5c:	00c79593          	slli	a1,a5,0xc
   17f60:	0005df63          	bgez	a1,17f7e <__multf3+0x592>
   17f64:	00196913          	ori	s2,s2,1
   17f68:	4781                	li	a5,0
   17f6a:	4501                	li	a0,0
   17f6c:	4705                	li	a4,1
   17f6e:	ea0685e3          	beqz	a3,17e18 <__multf3+0x42c>
   17f72:	00197693          	andi	a3,s2,1
   17f76:	0686                	slli	a3,a3,0x1
   17f78:	0126e933          	or	s2,a3,s2
   17f7c:	bd71                	j	17e18 <__multf3+0x42c>
   17f7e:	830d                	srli	a4,a4,0x3
   17f80:	03d79513          	slli	a0,a5,0x3d
   17f84:	8d59                	or	a0,a0,a4
   17f86:	838d                	srli	a5,a5,0x3
   17f88:	4701                	li	a4,0
   17f8a:	b7d5                	j	17f6e <__multf3+0x582>
   17f8c:	8d41                	or	a0,a0,s0
   17f8e:	cd11                	beqz	a0,17faa <__multf3+0x5be>
   17f90:	4789                	li	a5,2
   17f92:	00196913          	ori	s2,s2,1
   17f96:	02f98363          	beq	s3,a5,17fbc <__multf3+0x5d0>
   17f9a:	478d                	li	a5,3
   17f9c:	00f98c63          	beq	s3,a5,17fb4 <__multf3+0x5c8>
   17fa0:	4505                	li	a0,1
   17fa2:	00099363          	bnez	s3,17fa8 <__multf3+0x5bc>
   17fa6:	4515                	li	a0,5
   17fa8:	810d                	srli	a0,a0,0x3
   17faa:	00296913          	ori	s2,s2,2
   17fae:	4781                	li	a5,0
   17fb0:	4701                	li	a4,0
   17fb2:	b59d                	j	17e18 <__multf3+0x42c>
   17fb4:	4525                	li	a0,9
   17fb6:	da6d                	beqz	a2,17fa8 <__multf3+0x5bc>
   17fb8:	4505                	li	a0,1
   17fba:	b7fd                	j	17fa8 <__multf3+0x5bc>
   17fbc:	4525                	li	a0,9
   17fbe:	f66d                	bnez	a2,17fa8 <__multf3+0x5bc>
   17fc0:	bfe5                	j	17fb8 <__multf3+0x5cc>
   17fc2:	4941                	li	s2,16
   17fc4:	4785                	li	a5,1
   17fc6:	6721                	lui	a4,0x8
   17fc8:	17be                	slli	a5,a5,0x2f
   17fca:	4501                	li	a0,0
   17fcc:	177d                	addi	a4,a4,-1 # 7fff <exit-0x80e9>
   17fce:	4601                	li	a2,0
   17fd0:	b5a1                	j	17e18 <__multf3+0x42c>
   17fd2:	6721                	lui	a4,0x8
   17fd4:	4781                	li	a5,0
   17fd6:	4501                	li	a0,0
   17fd8:	177d                	addi	a4,a4,-1 # 7fff <exit-0x80e9>
   17fda:	bd3d                	j	17e18 <__multf3+0x42c>
   17fdc:	4781                	li	a5,0
   17fde:	4501                	li	a0,0
   17fe0:	bfc1                	j	17fb0 <__multf3+0x5c4>

0000000000017fe2 <__subtf3>:
   17fe2:	7179                	addi	sp,sp,-48
   17fe4:	f406                	sd	ra,40(sp)
   17fe6:	f022                	sd	s0,32(sp)
   17fe8:	ec26                	sd	s1,24(sp)
   17fea:	e84a                	sd	s2,16(sp)
   17fec:	e44e                	sd	s3,8(sp)
   17fee:	e052                	sd	s4,0(sp)
   17ff0:	002024f3          	frrm	s1
   17ff4:	577d                	li	a4,-1
   17ff6:	8341                	srli	a4,a4,0x10
   17ff8:	0305d813          	srli	a6,a1,0x30
   17ffc:	03f5d913          	srli	s2,a1,0x3f
   18000:	8df9                	and	a1,a1,a4
   18002:	058e                	slli	a1,a1,0x3
   18004:	03d55893          	srli	a7,a0,0x3d
   18008:	67a1                	lui	a5,0x8
   1800a:	17fd                	addi	a5,a5,-1 # 7fff <exit-0x80e9>
   1800c:	0306d313          	srli	t1,a3,0x30
   18010:	00b8e8b3          	or	a7,a7,a1
   18014:	03f6d593          	srli	a1,a3,0x3f
   18018:	8ef9                	and	a3,a3,a4
   1801a:	00f87833          	and	a6,a6,a5
   1801e:	03d65713          	srli	a4,a2,0x3d
   18022:	068e                	slli	a3,a3,0x3
   18024:	00f37333          	and	t1,t1,a5
   18028:	2481                	sext.w	s1,s1
   1802a:	89c2                	mv	s3,a6
   1802c:	050e                	slli	a0,a0,0x3
   1802e:	8f55                	or	a4,a4,a3
   18030:	060e                	slli	a2,a2,0x3
   18032:	00f31563          	bne	t1,a5,1803c <__subtf3+0x5a>
   18036:	00c767b3          	or	a5,a4,a2
   1803a:	e399                	bnez	a5,18040 <__subtf3+0x5e>
   1803c:	0015c593          	xori	a1,a1,1
   18040:	406806bb          	subw	a3,a6,t1
   18044:	6e21                	lui	t3,0x8
   18046:	0006879b          	sext.w	a5,a3
   1804a:	1e7d                	addi	t3,t3,-1 # 7fff <exit-0x80e9>
   1804c:	2b259763          	bne	a1,s2,182fa <__subtf3+0x318>
   18050:	0ef05863          	blez	a5,18140 <__subtf3+0x15e>
   18054:	06031963          	bnez	t1,180c6 <__subtf3+0xe4>
   18058:	00c767b3          	or	a5,a4,a2
   1805c:	e791                	bnez	a5,18068 <__subtf3+0x86>
   1805e:	05c80763          	beq	a6,t3,180ac <__subtf3+0xca>
   18062:	8746                	mv	a4,a7
   18064:	862a                	mv	a2,a0
   18066:	abf9                	j	18644 <__subtf3+0x662>
   18068:	fff6879b          	addiw	a5,a3,-1
   1806c:	ef95                	bnez	a5,180a8 <__subtf3+0xc6>
   1806e:	962a                	add	a2,a2,a0
   18070:	9746                	add	a4,a4,a7
   18072:	00a63533          	sltu	a0,a2,a0
   18076:	972a                	add	a4,a4,a0
   18078:	00c71693          	slli	a3,a4,0xc
   1807c:	4781                	li	a5,0
   1807e:	0e06d463          	bgez	a3,18166 <__subtf3+0x184>
   18082:	66a1                	lui	a3,0x8
   18084:	0985                	addi	s3,s3,1
   18086:	16fd                	addi	a3,a3,-1 # 7fff <exit-0x80e9>
   18088:	24d98563          	beq	s3,a3,182d2 <__subtf3+0x2f0>
   1808c:	56fd                	li	a3,-1
   1808e:	16ce                	slli	a3,a3,0x33
   18090:	16fd                	addi	a3,a3,-1
   18092:	8ef9                	and	a3,a3,a4
   18094:	00165713          	srli	a4,a2,0x1
   18098:	8a05                	andi	a2,a2,1
   1809a:	8f51                	or	a4,a4,a2
   1809c:	03f69613          	slli	a2,a3,0x3f
   180a0:	8e59                	or	a2,a2,a4
   180a2:	0016d713          	srli	a4,a3,0x1
   180a6:	a0c1                	j	18166 <__subtf3+0x184>
   180a8:	03c81463          	bne	a6,t3,180d0 <__subtf3+0xee>
   180ac:	00a8e633          	or	a2,a7,a0
   180b0:	6c060c63          	beqz	a2,18788 <__subtf3+0x7a6>
   180b4:	0328d793          	srli	a5,a7,0x32
   180b8:	0017c793          	xori	a5,a5,1
   180bc:	8b85                	andi	a5,a5,1
   180be:	0792                	slli	a5,a5,0x4
   180c0:	8746                	mv	a4,a7
   180c2:	862a                	mv	a2,a0
   180c4:	a04d                	j	18166 <__subtf3+0x184>
   180c6:	ffc803e3          	beq	a6,t3,180ac <__subtf3+0xca>
   180ca:	4685                	li	a3,1
   180cc:	16ce                	slli	a3,a3,0x33
   180ce:	8f55                	or	a4,a4,a3
   180d0:	07400693          	li	a3,116
   180d4:	06f6c163          	blt	a3,a5,18136 <__subtf3+0x154>
   180d8:	03f00693          	li	a3,63
   180dc:	02f6c963          	blt	a3,a5,1810e <__subtf3+0x12c>
   180e0:	04000593          	li	a1,64
   180e4:	9d9d                	subw	a1,a1,a5
   180e6:	00b716b3          	sll	a3,a4,a1
   180ea:	00f65833          	srl	a6,a2,a5
   180ee:	00b615b3          	sll	a1,a2,a1
   180f2:	0106e6b3          	or	a3,a3,a6
   180f6:	00b035b3          	snez	a1,a1
   180fa:	8ecd                	or	a3,a3,a1
   180fc:	00f75733          	srl	a4,a4,a5
   18100:	9536                	add	a0,a0,a3
   18102:	9746                	add	a4,a4,a7
   18104:	00d536b3          	sltu	a3,a0,a3
   18108:	862a                	mv	a2,a0
   1810a:	9736                	add	a4,a4,a3
   1810c:	b7b5                	j	18078 <__subtf3+0x96>
   1810e:	fc07869b          	addiw	a3,a5,-64
   18112:	04000813          	li	a6,64
   18116:	00d756b3          	srl	a3,a4,a3
   1811a:	4581                	li	a1,0
   1811c:	01078763          	beq	a5,a6,1812a <__subtf3+0x148>
   18120:	08000593          	li	a1,128
   18124:	9d9d                	subw	a1,a1,a5
   18126:	00b715b3          	sll	a1,a4,a1
   1812a:	8dd1                	or	a1,a1,a2
   1812c:	00b035b3          	snez	a1,a1
   18130:	8ecd                	or	a3,a3,a1
   18132:	4701                	li	a4,0
   18134:	b7f1                	j	18100 <__subtf3+0x11e>
   18136:	00c766b3          	or	a3,a4,a2
   1813a:	00d036b3          	snez	a3,a3
   1813e:	bfd5                	j	18132 <__subtf3+0x150>
   18140:	c7e9                	beqz	a5,1820a <__subtf3+0x228>
   18142:	08081263          	bnez	a6,181c6 <__subtf3+0x1e4>
   18146:	00a8e7b3          	or	a5,a7,a0
   1814a:	e395                	bnez	a5,1816e <__subtf3+0x18c>
   1814c:	63c31c63          	bne	t1,t3,18784 <__subtf3+0x7a2>
   18150:	00c767b3          	or	a5,a4,a2
   18154:	62078663          	beqz	a5,18780 <__subtf3+0x79e>
   18158:	03275793          	srli	a5,a4,0x32
   1815c:	0017c793          	xori	a5,a5,1
   18160:	8b85                	andi	a5,a5,1
   18162:	0792                	slli	a5,a5,0x4
   18164:	899a                	mv	s3,t1
   18166:	88ba                	mv	a7,a4
   18168:	8532                	mv	a0,a2
   1816a:	4701                	li	a4,0
   1816c:	ab31                	j	18688 <__subtf3+0x6a6>
   1816e:	fff6c793          	not	a5,a3
   18172:	2781                	sext.w	a5,a5
   18174:	eb81                	bnez	a5,18184 <__subtf3+0x1a2>
   18176:	962a                	add	a2,a2,a0
   18178:	9746                	add	a4,a4,a7
   1817a:	00a63533          	sltu	a0,a2,a0
   1817e:	972a                	add	a4,a4,a0
   18180:	899a                	mv	s3,t1
   18182:	bddd                	j	18078 <__subtf3+0x96>
   18184:	fdc306e3          	beq	t1,t3,18150 <__subtf3+0x16e>
   18188:	07400693          	li	a3,116
   1818c:	06f6ca63          	blt	a3,a5,18200 <__subtf3+0x21e>
   18190:	03f00693          	li	a3,63
   18194:	04f6c263          	blt	a3,a5,181d8 <__subtf3+0x1f6>
   18198:	04000593          	li	a1,64
   1819c:	9d9d                	subw	a1,a1,a5
   1819e:	00b896b3          	sll	a3,a7,a1
   181a2:	00f55833          	srl	a6,a0,a5
   181a6:	00b515b3          	sll	a1,a0,a1
   181aa:	0106e6b3          	or	a3,a3,a6
   181ae:	00b035b3          	snez	a1,a1
   181b2:	8ecd                	or	a3,a3,a1
   181b4:	00f8d7b3          	srl	a5,a7,a5
   181b8:	9636                	add	a2,a2,a3
   181ba:	97ba                	add	a5,a5,a4
   181bc:	00d636b3          	sltu	a3,a2,a3
   181c0:	00d78733          	add	a4,a5,a3
   181c4:	bf75                	j	18180 <__subtf3+0x19e>
   181c6:	f9c305e3          	beq	t1,t3,18150 <__subtf3+0x16e>
   181ca:	40d007bb          	negw	a5,a3
   181ce:	4685                	li	a3,1
   181d0:	16ce                	slli	a3,a3,0x33
   181d2:	00d8e8b3          	or	a7,a7,a3
   181d6:	bf4d                	j	18188 <__subtf3+0x1a6>
   181d8:	fc07869b          	addiw	a3,a5,-64
   181dc:	04000813          	li	a6,64
   181e0:	00d8d6b3          	srl	a3,a7,a3
   181e4:	4581                	li	a1,0
   181e6:	01078763          	beq	a5,a6,181f4 <__subtf3+0x212>
   181ea:	08000593          	li	a1,128
   181ee:	9d9d                	subw	a1,a1,a5
   181f0:	00b895b3          	sll	a1,a7,a1
   181f4:	8dc9                	or	a1,a1,a0
   181f6:	00b035b3          	snez	a1,a1
   181fa:	8ecd                	or	a3,a3,a1
   181fc:	4781                	li	a5,0
   181fe:	bf6d                	j	181b8 <__subtf3+0x1d6>
   18200:	00a8e6b3          	or	a3,a7,a0
   18204:	00d036b3          	snez	a3,a3
   18208:	bfd5                	j	181fc <__subtf3+0x21a>
   1820a:	00180693          	addi	a3,a6,1
   1820e:	03169e93          	slli	t4,a3,0x31
   18212:	65a1                	lui	a1,0x8
   18214:	032ede93          	srli	t4,t4,0x32
   18218:	15f9                	addi	a1,a1,-2 # 7ffe <exit-0x80ea>
   1821a:	060e9d63          	bnez	t4,18294 <__subtf3+0x2b2>
   1821e:	00a8e6b3          	or	a3,a7,a0
   18222:	02081963          	bnez	a6,18254 <__subtf3+0x272>
   18226:	56068863          	beqz	a3,18796 <__subtf3+0x7b4>
   1822a:	00c766b3          	or	a3,a4,a2
   1822e:	56068863          	beqz	a3,1879e <__subtf3+0x7bc>
   18232:	962a                	add	a2,a2,a0
   18234:	9746                	add	a4,a4,a7
   18236:	00a63533          	sltu	a0,a2,a0
   1823a:	00a708b3          	add	a7,a4,a0
   1823e:	00c89713          	slli	a4,a7,0xc
   18242:	26075b63          	bgez	a4,184b8 <__subtf3+0x4d6>
   18246:	577d                	li	a4,-1
   18248:	174e                	slli	a4,a4,0x33
   1824a:	177d                	addi	a4,a4,-1
   1824c:	00e8f733          	and	a4,a7,a4
   18250:	4985                	li	s3,1
   18252:	bf11                	j	18166 <__subtf3+0x184>
   18254:	03c81563          	bne	a6,t3,1827e <__subtf3+0x29c>
   18258:	54068b63          	beqz	a3,187ae <__subtf3+0x7cc>
   1825c:	0328d793          	srli	a5,a7,0x32
   18260:	0017c793          	xori	a5,a5,1
   18264:	8b85                	andi	a5,a5,1
   18266:	0792                	slli	a5,a5,0x4
   18268:	01031e63          	bne	t1,a6,18284 <__subtf3+0x2a2>
   1826c:	00c765b3          	or	a1,a4,a2
   18270:	c989                	beqz	a1,18282 <__subtf3+0x2a0>
   18272:	00d71593          	slli	a1,a4,0xd
   18276:	0005c663          	bltz	a1,18282 <__subtf3+0x2a0>
   1827a:	47c1                	li	a5,16
   1827c:	a019                	j	18282 <__subtf3+0x2a0>
   1827e:	ffc307e3          	beq	t1,t3,1826c <__subtf3+0x28a>
   18282:	c691                	beqz	a3,1828e <__subtf3+0x2ac>
   18284:	8f51                	or	a4,a4,a2
   18286:	2c071e63          	bnez	a4,18562 <__subtf3+0x580>
   1828a:	8746                	mv	a4,a7
   1828c:	862a                	mv	a2,a0
   1828e:	69a1                	lui	s3,0x8
   18290:	19fd                	addi	s3,s3,-1 # 7fff <exit-0x80e9>
   18292:	bdd1                	j	18166 <__subtf3+0x184>
   18294:	01c68e63          	beq	a3,t3,182b0 <__subtf3+0x2ce>
   18298:	962a                	add	a2,a2,a0
   1829a:	00a63533          	sltu	a0,a2,a0
   1829e:	9746                	add	a4,a4,a7
   182a0:	972a                	add	a4,a4,a0
   182a2:	03f71593          	slli	a1,a4,0x3f
   182a6:	8205                	srli	a2,a2,0x1
   182a8:	8e4d                	or	a2,a2,a1
   182aa:	8305                	srli	a4,a4,0x1
   182ac:	89b6                	mv	s3,a3
   182ae:	bd65                	j	18166 <__subtf3+0x184>
   182b0:	cc99                	beqz	s1,182ce <__subtf3+0x2ec>
   182b2:	478d                	li	a5,3
   182b4:	00f49863          	bne	s1,a5,182c4 <__subtf3+0x2e2>
   182b8:	00090b63          	beqz	s2,182ce <__subtf3+0x2ec>
   182bc:	577d                	li	a4,-1
   182be:	567d                	li	a2,-1
   182c0:	89ae                	mv	s3,a1
   182c2:	a815                	j	182f6 <__subtf3+0x314>
   182c4:	4789                	li	a5,2
   182c6:	fef49be3          	bne	s1,a5,182bc <__subtf3+0x2da>
   182ca:	fe0909e3          	beqz	s2,182bc <__subtf3+0x2da>
   182ce:	89b6                	mv	s3,a3
   182d0:	a00d                	j	182f2 <__subtf3+0x310>
   182d2:	c085                	beqz	s1,182f2 <__subtf3+0x310>
   182d4:	478d                	li	a5,3
   182d6:	00f49963          	bne	s1,a5,182e8 <__subtf3+0x306>
   182da:	00090c63          	beqz	s2,182f2 <__subtf3+0x310>
   182de:	69a1                	lui	s3,0x8
   182e0:	577d                	li	a4,-1
   182e2:	567d                	li	a2,-1
   182e4:	19f9                	addi	s3,s3,-2 # 7ffe <exit-0x80ea>
   182e6:	a801                	j	182f6 <__subtf3+0x314>
   182e8:	4789                	li	a5,2
   182ea:	fef49ae3          	bne	s1,a5,182de <__subtf3+0x2fc>
   182ee:	fe0908e3          	beqz	s2,182de <__subtf3+0x2fc>
   182f2:	4701                	li	a4,0
   182f4:	4601                	li	a2,0
   182f6:	4795                	li	a5,5
   182f8:	b5bd                	j	18166 <__subtf3+0x184>
   182fa:	0af05863          	blez	a5,183aa <__subtf3+0x3c8>
   182fe:	06031763          	bnez	t1,1836c <__subtf3+0x38a>
   18302:	00c767b3          	or	a5,a4,a2
   18306:	d4078ce3          	beqz	a5,1805e <__subtf3+0x7c>
   1830a:	fff6879b          	addiw	a5,a3,-1
   1830e:	e38d                	bnez	a5,18330 <__subtf3+0x34e>
   18310:	40c50633          	sub	a2,a0,a2
   18314:	40e88733          	sub	a4,a7,a4
   18318:	00c53533          	sltu	a0,a0,a2
   1831c:	8f09                	sub	a4,a4,a0
   1831e:	00c71793          	slli	a5,a4,0xc
   18322:	3207d163          	bgez	a5,18644 <__subtf3+0x662>
   18326:	00d71413          	slli	s0,a4,0xd
   1832a:	8035                	srli	s0,s0,0xd
   1832c:	8a32                	mv	s4,a2
   1832e:	a49d                	j	18594 <__subtf3+0x5b2>
   18330:	d7c80ee3          	beq	a6,t3,180ac <__subtf3+0xca>
   18334:	07400693          	li	a3,116
   18338:	06f6c463          	blt	a3,a5,183a0 <__subtf3+0x3be>
   1833c:	03f00693          	li	a3,63
   18340:	02f6cc63          	blt	a3,a5,18378 <__subtf3+0x396>
   18344:	04000593          	li	a1,64
   18348:	9d9d                	subw	a1,a1,a5
   1834a:	00b716b3          	sll	a3,a4,a1
   1834e:	00f65833          	srl	a6,a2,a5
   18352:	00b615b3          	sll	a1,a2,a1
   18356:	0106e6b3          	or	a3,a3,a6
   1835a:	00b035b3          	snez	a1,a1
   1835e:	8ecd                	or	a3,a3,a1
   18360:	00f75733          	srl	a4,a4,a5
   18364:	40d506b3          	sub	a3,a0,a3
   18368:	8636                	mv	a2,a3
   1836a:	b76d                	j	18314 <__subtf3+0x332>
   1836c:	d5c800e3          	beq	a6,t3,180ac <__subtf3+0xca>
   18370:	4685                	li	a3,1
   18372:	16ce                	slli	a3,a3,0x33
   18374:	8f55                	or	a4,a4,a3
   18376:	bf7d                	j	18334 <__subtf3+0x352>
   18378:	fc07869b          	addiw	a3,a5,-64
   1837c:	04000813          	li	a6,64
   18380:	00d756b3          	srl	a3,a4,a3
   18384:	4581                	li	a1,0
   18386:	01078763          	beq	a5,a6,18394 <__subtf3+0x3b2>
   1838a:	08000593          	li	a1,128
   1838e:	9d9d                	subw	a1,a1,a5
   18390:	00b715b3          	sll	a1,a4,a1
   18394:	8dd1                	or	a1,a1,a2
   18396:	00b035b3          	snez	a1,a1
   1839a:	8ecd                	or	a3,a3,a1
   1839c:	4701                	li	a4,0
   1839e:	b7d9                	j	18364 <__subtf3+0x382>
   183a0:	00c766b3          	or	a3,a4,a2
   183a4:	00d036b3          	snez	a3,a3
   183a8:	bfd5                	j	1839c <__subtf3+0x3ba>
   183aa:	cff9                	beqz	a5,18488 <__subtf3+0x4a6>
   183ac:	08081963          	bnez	a6,1843e <__subtf3+0x45c>
   183b0:	00a8e7b3          	or	a5,a7,a0
   183b4:	e385                	bnez	a5,183d4 <__subtf3+0x3f2>
   183b6:	3dc31d63          	bne	t1,t3,18790 <__subtf3+0x7ae>
   183ba:	00c767b3          	or	a5,a4,a2
   183be:	3c078763          	beqz	a5,1878c <__subtf3+0x7aa>
   183c2:	03275793          	srli	a5,a4,0x32
   183c6:	0017c793          	xori	a5,a5,1
   183ca:	8b85                	andi	a5,a5,1
   183cc:	0792                	slli	a5,a5,0x4
   183ce:	899a                	mv	s3,t1
   183d0:	892e                	mv	s2,a1
   183d2:	bb51                	j	18166 <__subtf3+0x184>
   183d4:	fff6c793          	not	a5,a3
   183d8:	2781                	sext.w	a5,a5
   183da:	ef81                	bnez	a5,183f2 <__subtf3+0x410>
   183dc:	40a60533          	sub	a0,a2,a0
   183e0:	00a637b3          	sltu	a5,a2,a0
   183e4:	41170733          	sub	a4,a4,a7
   183e8:	862a                	mv	a2,a0
   183ea:	8f1d                	sub	a4,a4,a5
   183ec:	899a                	mv	s3,t1
   183ee:	892e                	mv	s2,a1
   183f0:	b73d                	j	1831e <__subtf3+0x33c>
   183f2:	fdc304e3          	beq	t1,t3,183ba <__subtf3+0x3d8>
   183f6:	07400693          	li	a3,116
   183fa:	08f6c263          	blt	a3,a5,1847e <__subtf3+0x49c>
   183fe:	03f00693          	li	a3,63
   18402:	04f6c763          	blt	a3,a5,18450 <__subtf3+0x46e>
   18406:	04000813          	li	a6,64
   1840a:	40f8083b          	subw	a6,a6,a5
   1840e:	010896b3          	sll	a3,a7,a6
   18412:	00f55e33          	srl	t3,a0,a5
   18416:	01051833          	sll	a6,a0,a6
   1841a:	01c6e6b3          	or	a3,a3,t3
   1841e:	01003833          	snez	a6,a6
   18422:	0106e6b3          	or	a3,a3,a6
   18426:	00f8d7b3          	srl	a5,a7,a5
   1842a:	40d606b3          	sub	a3,a2,a3
   1842e:	00d63533          	sltu	a0,a2,a3
   18432:	40f707b3          	sub	a5,a4,a5
   18436:	8636                	mv	a2,a3
   18438:	40a78733          	sub	a4,a5,a0
   1843c:	bf45                	j	183ec <__subtf3+0x40a>
   1843e:	f7c30ee3          	beq	t1,t3,183ba <__subtf3+0x3d8>
   18442:	40d007bb          	negw	a5,a3
   18446:	4685                	li	a3,1
   18448:	16ce                	slli	a3,a3,0x33
   1844a:	00d8e8b3          	or	a7,a7,a3
   1844e:	b765                	j	183f6 <__subtf3+0x414>
   18450:	fc07869b          	addiw	a3,a5,-64
   18454:	04000e13          	li	t3,64
   18458:	00d8d6b3          	srl	a3,a7,a3
   1845c:	4801                	li	a6,0
   1845e:	01c78863          	beq	a5,t3,1846e <__subtf3+0x48c>
   18462:	08000813          	li	a6,128
   18466:	40f8083b          	subw	a6,a6,a5
   1846a:	01089833          	sll	a6,a7,a6
   1846e:	00a86833          	or	a6,a6,a0
   18472:	01003833          	snez	a6,a6
   18476:	0106e6b3          	or	a3,a3,a6
   1847a:	4781                	li	a5,0
   1847c:	b77d                	j	1842a <__subtf3+0x448>
   1847e:	00a8e6b3          	or	a3,a7,a0
   18482:	00d036b3          	snez	a3,a3
   18486:	bfd5                	j	1847a <__subtf3+0x498>
   18488:	00180693          	addi	a3,a6,1
   1848c:	03169e93          	slli	t4,a3,0x31
   18490:	032ede93          	srli	t4,t4,0x32
   18494:	0c0e9c63          	bnez	t4,1856c <__subtf3+0x58a>
   18498:	00c766b3          	or	a3,a4,a2
   1849c:	00a8eeb3          	or	t4,a7,a0
   184a0:	06081763          	bnez	a6,1850e <__subtf3+0x52c>
   184a4:	020e9263          	bnez	t4,184c8 <__subtf3+0x4e6>
   184a8:	2e069963          	bnez	a3,1879a <__subtf3+0x7b8>
   184ac:	ffe48913          	addi	s2,s1,-2
   184b0:	00193913          	seqz	s2,s2
   184b4:	4881                	li	a7,0
   184b6:	4601                	li	a2,0
   184b8:	00c8e533          	or	a0,a7,a2
   184bc:	18051663          	bnez	a0,18648 <__subtf3+0x666>
   184c0:	4881                	li	a7,0
   184c2:	4981                	li	s3,0
   184c4:	4781                	li	a5,0
   184c6:	a40d                	j	186e8 <__subtf3+0x706>
   184c8:	2c068b63          	beqz	a3,1879e <__subtf3+0x7bc>
   184cc:	40c506b3          	sub	a3,a0,a2
   184d0:	00d53833          	sltu	a6,a0,a3
   184d4:	40e887b3          	sub	a5,a7,a4
   184d8:	410787b3          	sub	a5,a5,a6
   184dc:	00c79813          	slli	a6,a5,0xc
   184e0:	00085d63          	bgez	a6,184fa <__subtf3+0x518>
   184e4:	40a60533          	sub	a0,a2,a0
   184e8:	00a637b3          	sltu	a5,a2,a0
   184ec:	41170733          	sub	a4,a4,a7
   184f0:	862a                	mv	a2,a0
   184f2:	40f708b3          	sub	a7,a4,a5
   184f6:	892e                	mv	s2,a1
   184f8:	b7c1                	j	184b8 <__subtf3+0x4d6>
   184fa:	00f6e633          	or	a2,a3,a5
   184fe:	2a061263          	bnez	a2,187a2 <__subtf3+0x7c0>
   18502:	ffe48913          	addi	s2,s1,-2
   18506:	00193913          	seqz	s2,s2
   1850a:	4881                	li	a7,0
   1850c:	b775                	j	184b8 <__subtf3+0x4d6>
   1850e:	03c81963          	bne	a6,t3,18540 <__subtf3+0x55e>
   18512:	280e8b63          	beqz	t4,187a8 <__subtf3+0x7c6>
   18516:	0328d793          	srli	a5,a7,0x32
   1851a:	0017c793          	xori	a5,a5,1
   1851e:	8b85                	andi	a5,a5,1
   18520:	0792                	slli	a5,a5,0x4
   18522:	03031e63          	bne	t1,a6,1855e <__subtf3+0x57c>
   18526:	ce99                	beqz	a3,18544 <__subtf3+0x562>
   18528:	4805                	li	a6,1
   1852a:	00d71313          	slli	t1,a4,0xd
   1852e:	184a                	slli	a6,a6,0x32
   18530:	00034a63          	bltz	t1,18544 <__subtf3+0x562>
   18534:	892e                	mv	s2,a1
   18536:	020e8063          	beqz	t4,18556 <__subtf3+0x574>
   1853a:	4901                	li	s2,0
   1853c:	8742                	mv	a4,a6
   1853e:	a819                	j	18554 <__subtf3+0x572>
   18540:	ffc303e3          	beq	t1,t3,18526 <__subtf3+0x544>
   18544:	000e9d63          	bnez	t4,1855e <__subtf3+0x57c>
   18548:	892e                	mv	s2,a1
   1854a:	d40692e3          	bnez	a3,1828e <__subtf3+0x2ac>
   1854e:	4705                	li	a4,1
   18550:	4901                	li	s2,0
   18552:	174a                	slli	a4,a4,0x32
   18554:	4601                	li	a2,0
   18556:	69a1                	lui	s3,0x8
   18558:	19fd                	addi	s3,s3,-1 # 7fff <exit-0x80e9>
   1855a:	47c1                	li	a5,16
   1855c:	b129                	j	18166 <__subtf3+0x184>
   1855e:	d20686e3          	beqz	a3,1828a <__subtf3+0x2a8>
   18562:	4705                	li	a4,1
   18564:	4901                	li	s2,0
   18566:	174a                	slli	a4,a4,0x32
   18568:	4601                	li	a2,0
   1856a:	b315                	j	1828e <__subtf3+0x2ac>
   1856c:	40c507b3          	sub	a5,a0,a2
   18570:	00f536b3          	sltu	a3,a0,a5
   18574:	40e88433          	sub	s0,a7,a4
   18578:	8c15                	sub	s0,s0,a3
   1857a:	00c41693          	slli	a3,s0,0xc
   1857e:	8a3e                	mv	s4,a5
   18580:	0606d563          	bgez	a3,185ea <__subtf3+0x608>
   18584:	40a60a33          	sub	s4,a2,a0
   18588:	41170433          	sub	s0,a4,a7
   1858c:	01463633          	sltu	a2,a2,s4
   18590:	8c11                	sub	s0,s0,a2
   18592:	892e                	mv	s2,a1
   18594:	cc39                	beqz	s0,185f2 <__subtf3+0x610>
   18596:	8522                	mv	a0,s0
   18598:	43e000ef          	jal	189d6 <__clzdi2>
   1859c:	ff45061b          	addiw	a2,a0,-12
   185a0:	04000713          	li	a4,64
   185a4:	9f11                	subw	a4,a4,a2
   185a6:	00c41433          	sll	s0,s0,a2
   185aa:	00ea5733          	srl	a4,s4,a4
   185ae:	8f41                	or	a4,a4,s0
   185b0:	00ca1433          	sll	s0,s4,a2
   185b4:	09364163          	blt	a2,s3,18636 <__subtf3+0x654>
   185b8:	4136063b          	subw	a2,a2,s3
   185bc:	0016089b          	addiw	a7,a2,1
   185c0:	03f00793          	li	a5,63
   185c4:	0517c563          	blt	a5,a7,1860e <__subtf3+0x62c>
   185c8:	04000793          	li	a5,64
   185cc:	411787bb          	subw	a5,a5,a7
   185d0:	00f71633          	sll	a2,a4,a5
   185d4:	011456b3          	srl	a3,s0,a7
   185d8:	00f417b3          	sll	a5,s0,a5
   185dc:	8e55                	or	a2,a2,a3
   185de:	00f037b3          	snez	a5,a5
   185e2:	8e5d                	or	a2,a2,a5
   185e4:	011758b3          	srl	a7,a4,a7
   185e8:	bdc1                	j	184b8 <__subtf3+0x4d6>
   185ea:	0087e633          	or	a2,a5,s0
   185ee:	f25d                	bnez	a2,18594 <__subtf3+0x5b2>
   185f0:	bf09                	j	18502 <__subtf3+0x520>
   185f2:	8552                	mv	a0,s4
   185f4:	3e2000ef          	jal	189d6 <__clzdi2>
   185f8:	0345061b          	addiw	a2,a0,52
   185fc:	03f00793          	li	a5,63
   18600:	fac7d0e3          	bge	a5,a2,185a0 <__subtf3+0x5be>
   18604:	ff45071b          	addiw	a4,a0,-12
   18608:	00ea1733          	sll	a4,s4,a4
   1860c:	b765                	j	185b4 <__subtf3+0x5d2>
   1860e:	fc16061b          	addiw	a2,a2,-63
   18612:	04000593          	li	a1,64
   18616:	00c75633          	srl	a2,a4,a2
   1861a:	4781                	li	a5,0
   1861c:	00b88863          	beq	a7,a1,1862c <__subtf3+0x64a>
   18620:	08000793          	li	a5,128
   18624:	411787bb          	subw	a5,a5,a7
   18628:	00f717b3          	sll	a5,a4,a5
   1862c:	8fc1                	or	a5,a5,s0
   1862e:	00f037b3          	snez	a5,a5
   18632:	8e5d                	or	a2,a2,a5
   18634:	bdd9                	j	1850a <__subtf3+0x528>
   18636:	57fd                	li	a5,-1
   18638:	17ce                	slli	a5,a5,0x33
   1863a:	17fd                	addi	a5,a5,-1
   1863c:	40c989b3          	sub	s3,s3,a2
   18640:	8f7d                	and	a4,a4,a5
   18642:	8622                	mv	a2,s0
   18644:	4781                	li	a5,0
   18646:	b605                	j	18166 <__subtf3+0x184>
   18648:	00161693          	slli	a3,a2,0x1
   1864c:	03f65793          	srli	a5,a2,0x3f
   18650:	00189713          	slli	a4,a7,0x1
   18654:	0076f593          	andi	a1,a3,7
   18658:	973e                	add	a4,a4,a5
   1865a:	4781                	li	a5,0
   1865c:	c185                	beqz	a1,1867c <__subtf3+0x69a>
   1865e:	4789                	li	a5,2
   18660:	06f48463          	beq	s1,a5,186c8 <__subtf3+0x6e6>
   18664:	478d                	li	a5,3
   18666:	04f48863          	beq	s1,a5,186b6 <__subtf3+0x6d4>
   1866a:	4785                	li	a5,1
   1866c:	e881                	bnez	s1,1867c <__subtf3+0x69a>
   1866e:	00f6f593          	andi	a1,a3,15
   18672:	4511                	li	a0,4
   18674:	ffc6b693          	sltiu	a3,a3,-4
   18678:	04a59463          	bne	a1,a0,186c0 <__subtf3+0x6de>
   1867c:	9351                	srli	a4,a4,0x34
   1867e:	00174713          	xori	a4,a4,1
   18682:	8b05                	andi	a4,a4,1
   18684:	8532                	mv	a0,a2
   18686:	4981                	li	s3,0
   18688:	00767693          	andi	a3,a2,7
   1868c:	caa9                	beqz	a3,186de <__subtf3+0x6fc>
   1868e:	4689                	li	a3,2
   18690:	0017e793          	ori	a5,a5,1
   18694:	04d48363          	beq	s1,a3,186da <__subtf3+0x6f8>
   18698:	468d                	li	a3,3
   1869a:	02d48b63          	beq	s1,a3,186d0 <__subtf3+0x6ee>
   1869e:	e0a1                	bnez	s1,186de <__subtf3+0x6fc>
   186a0:	00f67693          	andi	a3,a2,15
   186a4:	4591                	li	a1,4
   186a6:	02b68c63          	beq	a3,a1,186de <__subtf3+0x6fc>
   186aa:	00460513          	addi	a0,a2,4
   186ae:	00c53633          	sltu	a2,a0,a2
   186b2:	98b2                	add	a7,a7,a2
   186b4:	a02d                	j	186de <__subtf3+0x6fc>
   186b6:	4785                	li	a5,1
   186b8:	fc0912e3          	bnez	s2,1867c <__subtf3+0x69a>
   186bc:	ff86b693          	sltiu	a3,a3,-8
   186c0:	0016c693          	xori	a3,a3,1
   186c4:	9736                	add	a4,a4,a3
   186c6:	bf5d                	j	1867c <__subtf3+0x69a>
   186c8:	4785                	li	a5,1
   186ca:	fa0909e3          	beqz	s2,1867c <__subtf3+0x69a>
   186ce:	b7fd                	j	186bc <__subtf3+0x6da>
   186d0:	00091763          	bnez	s2,186de <__subtf3+0x6fc>
   186d4:	00860513          	addi	a0,a2,8
   186d8:	bfd9                	j	186ae <__subtf3+0x6cc>
   186da:	fe091de3          	bnez	s2,186d4 <__subtf3+0x6f2>
   186de:	c709                	beqz	a4,186e8 <__subtf3+0x706>
   186e0:	0017f713          	andi	a4,a5,1
   186e4:	0706                	slli	a4,a4,0x1
   186e6:	8fd9                	or	a5,a5,a4
   186e8:	00c89713          	slli	a4,a7,0xc
   186ec:	00075c63          	bgez	a4,18704 <__subtf3+0x722>
   186f0:	6721                	lui	a4,0x8
   186f2:	0985                	addi	s3,s3,1
   186f4:	177d                	addi	a4,a4,-1 # 7fff <exit-0x80e9>
   186f6:	06e98163          	beq	s3,a4,18758 <__subtf3+0x776>
   186fa:	577d                	li	a4,-1
   186fc:	174e                	slli	a4,a4,0x33
   186fe:	177d                	addi	a4,a4,-1
   18700:	00e8f8b3          	and	a7,a7,a4
   18704:	03d89713          	slli	a4,a7,0x3d
   18708:	810d                	srli	a0,a0,0x3
   1870a:	8d59                	or	a0,a0,a4
   1870c:	6721                	lui	a4,0x8
   1870e:	177d                	addi	a4,a4,-1 # 7fff <exit-0x80e9>
   18710:	0038d893          	srli	a7,a7,0x3
   18714:	00e99a63          	bne	s3,a4,18728 <__subtf3+0x746>
   18718:	01156533          	or	a0,a0,a7
   1871c:	4881                	li	a7,0
   1871e:	c509                	beqz	a0,18728 <__subtf3+0x746>
   18720:	4885                	li	a7,1
   18722:	18be                	slli	a7,a7,0x2f
   18724:	4501                	li	a0,0
   18726:	4901                	li	s2,0
   18728:	19c6                	slli	s3,s3,0x31
   1872a:	00f9191b          	slliw	s2,s2,0xf
   1872e:	0319d993          	srli	s3,s3,0x31
   18732:	01089593          	slli	a1,a7,0x10
   18736:	0129e9b3          	or	s3,s3,s2
   1873a:	19c2                	slli	s3,s3,0x30
   1873c:	81c1                	srli	a1,a1,0x10
   1873e:	0135e5b3          	or	a1,a1,s3
   18742:	c399                	beqz	a5,18748 <__subtf3+0x766>
   18744:	0017a073          	csrs	fflags,a5
   18748:	70a2                	ld	ra,40(sp)
   1874a:	7402                	ld	s0,32(sp)
   1874c:	64e2                	ld	s1,24(sp)
   1874e:	6942                	ld	s2,16(sp)
   18750:	69a2                	ld	s3,8(sp)
   18752:	6a02                	ld	s4,0(sp)
   18754:	6145                	addi	sp,sp,48
   18756:	8082                	ret
   18758:	4501                	li	a0,0
   1875a:	cc99                	beqz	s1,18778 <__subtf3+0x796>
   1875c:	470d                	li	a4,3
   1875e:	00e49863          	bne	s1,a4,1876e <__subtf3+0x78c>
   18762:	00090b63          	beqz	s2,18778 <__subtf3+0x796>
   18766:	69a1                	lui	s3,0x8
   18768:	557d                	li	a0,-1
   1876a:	19f9                	addi	s3,s3,-2 # 7ffe <exit-0x80ea>
   1876c:	a031                	j	18778 <__subtf3+0x796>
   1876e:	4709                	li	a4,2
   18770:	fee49be3          	bne	s1,a4,18766 <__subtf3+0x784>
   18774:	fe0909e3          	beqz	s2,18766 <__subtf3+0x784>
   18778:	0057e793          	ori	a5,a5,5
   1877c:	88aa                	mv	a7,a0
   1877e:	b759                	j	18704 <__subtf3+0x722>
   18780:	4701                	li	a4,0
   18782:	4601                	li	a2,0
   18784:	899a                	mv	s3,t1
   18786:	bd7d                	j	18644 <__subtf3+0x662>
   18788:	4701                	li	a4,0
   1878a:	bd6d                	j	18644 <__subtf3+0x662>
   1878c:	4701                	li	a4,0
   1878e:	4601                	li	a2,0
   18790:	899a                	mv	s3,t1
   18792:	892e                	mv	s2,a1
   18794:	bd45                	j	18644 <__subtf3+0x662>
   18796:	88ba                	mv	a7,a4
   18798:	b305                	j	184b8 <__subtf3+0x4d6>
   1879a:	88ba                	mv	a7,a4
   1879c:	bba9                	j	184f6 <__subtf3+0x514>
   1879e:	862a                	mv	a2,a0
   187a0:	bb21                	j	184b8 <__subtf3+0x4d6>
   187a2:	88be                	mv	a7,a5
   187a4:	8636                	mv	a2,a3
   187a6:	bb09                	j	184b8 <__subtf3+0x4d6>
   187a8:	db0310e3          	bne	t1,a6,18548 <__subtf3+0x566>
   187ac:	bbad                	j	18526 <__subtf3+0x544>
   187ae:	9b031ce3          	bne	t1,a6,18166 <__subtf3+0x184>
   187b2:	bc6d                	j	1826c <__subtf3+0x28a>

00000000000187b4 <__unordtf2>:
   187b4:	872a                	mv	a4,a0
   187b6:	002027f3          	frrm	a5
   187ba:	557d                	li	a0,-1
   187bc:	01055793          	srli	a5,a0,0x10
   187c0:	6821                	lui	a6,0x8
   187c2:	00f5f8b3          	and	a7,a1,a5
   187c6:	187d                	addi	a6,a6,-1 # 7fff <exit-0x80e9>
   187c8:	91c1                	srli	a1,a1,0x30
   187ca:	8ff5                	and	a5,a5,a3
   187cc:	0105f5b3          	and	a1,a1,a6
   187d0:	92c1                	srli	a3,a3,0x30
   187d2:	0106f6b3          	and	a3,a3,a6
   187d6:	01059663          	bne	a1,a6,187e2 <__unordtf2+0x2e>
   187da:	01176333          	or	t1,a4,a7
   187de:	02031363          	bnez	t1,18804 <__unordtf2+0x50>
   187e2:	4501                	li	a0,0
   187e4:	05069263          	bne	a3,a6,18828 <__unordtf2+0x74>
   187e8:	00f66833          	or	a6,a2,a5
   187ec:	02080e63          	beqz	a6,18828 <__unordtf2+0x74>
   187f0:	02d59363          	bne	a1,a3,18816 <__unordtf2+0x62>
   187f4:	01176733          	or	a4,a4,a7
   187f8:	cf01                	beqz	a4,18810 <__unordtf2+0x5c>
   187fa:	577d                	li	a4,-1
   187fc:	8345                	srli	a4,a4,0x11
   187fe:	03177163          	bgeu	a4,a7,18820 <__unordtf2+0x6c>
   18802:	a039                	j	18810 <__unordtf2+0x5c>
   18804:	8145                	srli	a0,a0,0x11
   18806:	01157d63          	bgeu	a0,a7,18820 <__unordtf2+0x6c>
   1880a:	4505                	li	a0,1
   1880c:	00b69e63          	bne	a3,a1,18828 <__unordtf2+0x74>
   18810:	8e5d                	or	a2,a2,a5
   18812:	4505                	li	a0,1
   18814:	ca11                	beqz	a2,18828 <__unordtf2+0x74>
   18816:	577d                	li	a4,-1
   18818:	8345                	srli	a4,a4,0x11
   1881a:	4505                	li	a0,1
   1881c:	00f76663          	bltu	a4,a5,18828 <__unordtf2+0x74>
   18820:	00186073          	csrsi	fflags,16
   18824:	4505                	li	a0,1
   18826:	8082                	ret
   18828:	8082                	ret

000000000001882a <__fixtfsi>:
   1882a:	002027f3          	frrm	a5
   1882e:	6711                	lui	a4,0x4
   18830:	00159693          	slli	a3,a1,0x1
   18834:	01059793          	slli	a5,a1,0x10
   18838:	92c5                	srli	a3,a3,0x31
   1883a:	1779                	addi	a4,a4,-2 # 3ffe <exit-0xc0ea>
   1883c:	83c1                	srli	a5,a5,0x10
   1883e:	91fd                	srli	a1,a1,0x3f
   18840:	00d74763          	blt	a4,a3,1884e <__fixtfsi+0x24>
   18844:	eeb1                	bnez	a3,188a0 <__fixtfsi+0x76>
   18846:	8fc9                	or	a5,a5,a0
   18848:	4501                	li	a0,0
   1884a:	eba9                	bnez	a5,1889c <__fixtfsi+0x72>
   1884c:	8082                	ret
   1884e:	6711                	lui	a4,0x4
   18850:	0775                	addi	a4,a4,29 # 401d <exit-0xc0cb>
   18852:	02d75063          	bge	a4,a3,18872 <__fixtfsi+0x48>
   18856:	c5b9                	beqz	a1,188a4 <__fixtfsi+0x7a>
   18858:	6711                	lui	a4,0x4
   1885a:	0779                	addi	a4,a4,30 # 401e <exit-0xc0ca>
   1885c:	04e69c63          	bne	a3,a4,188b4 <__fixtfsi+0x8a>
   18860:	0117d713          	srli	a4,a5,0x11
   18864:	eb21                	bnez	a4,188b4 <__fixtfsi+0x8a>
   18866:	17be                	slli	a5,a5,0x2f
   18868:	8d5d                	or	a0,a0,a5
   1886a:	e921                	bnez	a0,188ba <__fixtfsi+0x90>
   1886c:	80000537          	lui	a0,0x80000
   18870:	8082                	ret
   18872:	4705                	li	a4,1
   18874:	1742                	slli	a4,a4,0x30
   18876:	8fd9                	or	a5,a5,a4
   18878:	6611                	lui	a2,0x4
   1887a:	7771                	lui	a4,0xffffc
   1887c:	2745                	addiw	a4,a4,17 # ffffffffffffc011 <__BSS_END__+0xfffffffffffe0c69>
   1887e:	02f6061b          	addiw	a2,a2,47 # 402f <exit-0xc0b9>
   18882:	9f35                	addw	a4,a4,a3
   18884:	9e15                	subw	a2,a2,a3
   18886:	00e79733          	sll	a4,a5,a4
   1888a:	00c7d7b3          	srl	a5,a5,a2
   1888e:	8f49                	or	a4,a4,a0
   18890:	0007851b          	sext.w	a0,a5
   18894:	c199                	beqz	a1,1889a <__fixtfsi+0x70>
   18896:	40a0053b          	negw	a0,a0
   1889a:	cf01                	beqz	a4,188b2 <__fixtfsi+0x88>
   1889c:	4785                	li	a5,1
   1889e:	a801                	j	188ae <__fixtfsi+0x84>
   188a0:	4501                	li	a0,0
   188a2:	bfed                	j	1889c <__fixtfsi+0x72>
   188a4:	80000537          	lui	a0,0x80000
   188a8:	fff54513          	not	a0,a0
   188ac:	47c1                	li	a5,16
   188ae:	0017a073          	csrs	fflags,a5
   188b2:	8082                	ret
   188b4:	80000537          	lui	a0,0x80000
   188b8:	bfd5                	j	188ac <__fixtfsi+0x82>
   188ba:	80000537          	lui	a0,0x80000
   188be:	bff9                	j	1889c <__fixtfsi+0x72>

00000000000188c0 <__floatsitf>:
   188c0:	1101                	addi	sp,sp,-32
   188c2:	ec06                	sd	ra,24(sp)
   188c4:	e822                	sd	s0,16(sp)
   188c6:	e426                	sd	s1,8(sp)
   188c8:	c139                	beqz	a0,1890e <__floatsitf+0x4e>
   188ca:	0005079b          	sext.w	a5,a0
   188ce:	03f55493          	srli	s1,a0,0x3f
   188d2:	00055463          	bgez	a0,188da <__floatsitf+0x1a>
   188d6:	40f007bb          	negw	a5,a5
   188da:	02079413          	slli	s0,a5,0x20
   188de:	9001                	srli	s0,s0,0x20
   188e0:	8522                	mv	a0,s0
   188e2:	0f4000ef          	jal	189d6 <__clzdi2>
   188e6:	6591                	lui	a1,0x4
   188e8:	03e5859b          	addiw	a1,a1,62 # 403e <exit-0xc0aa>
   188ec:	9d89                	subw	a1,a1,a0
   188ee:	3545                	addiw	a0,a0,-15 # 7ffffff1 <__BSS_END__+0x7ffe4c49>
   188f0:	00a417b3          	sll	a5,s0,a0
   188f4:	60e2                	ld	ra,24(sp)
   188f6:	6442                	ld	s0,16(sp)
   188f8:	00f4949b          	slliw	s1,s1,0xf
   188fc:	8dc5                	or	a1,a1,s1
   188fe:	07c2                	slli	a5,a5,0x10
   18900:	15c2                	slli	a1,a1,0x30
   18902:	83c1                	srli	a5,a5,0x10
   18904:	64a2                	ld	s1,8(sp)
   18906:	4501                	li	a0,0
   18908:	8ddd                	or	a1,a1,a5
   1890a:	6105                	addi	sp,sp,32
   1890c:	8082                	ret
   1890e:	4781                	li	a5,0
   18910:	4581                	li	a1,0
   18912:	4481                	li	s1,0
   18914:	b7c5                	j	188f4 <__floatsitf+0x34>

0000000000018916 <__extenddftf2>:
   18916:	1101                	addi	sp,sp,-32
   18918:	e20507d3          	fmv.x.d	a5,fa0
   1891c:	ec06                	sd	ra,24(sp)
   1891e:	e822                	sd	s0,16(sp)
   18920:	e426                	sd	s1,8(sp)
   18922:	00202773          	frrm	a4
   18926:	0347d513          	srli	a0,a5,0x34
   1892a:	7ff57513          	andi	a0,a0,2047
   1892e:	00c79413          	slli	s0,a5,0xc
   18932:	03f7d493          	srli	s1,a5,0x3f
   18936:	00150793          	addi	a5,a0,1
   1893a:	7fe7f793          	andi	a5,a5,2046
   1893e:	8031                	srli	s0,s0,0xc
   18940:	cb91                	beqz	a5,18954 <__extenddftf2+0x3e>
   18942:	6791                	lui	a5,0x4
   18944:	c0078793          	addi	a5,a5,-1024 # 3c00 <exit-0xc4e8>
   18948:	00445593          	srli	a1,s0,0x4
   1894c:	953e                	add	a0,a0,a5
   1894e:	1472                	slli	s0,s0,0x3c
   18950:	4781                	li	a5,0
   18952:	a8b1                	j	189ae <__extenddftf2+0x98>
   18954:	ed1d                	bnez	a0,18992 <__extenddftf2+0x7c>
   18956:	4581                	li	a1,0
   18958:	dc65                	beqz	s0,18950 <__extenddftf2+0x3a>
   1895a:	8522                	mv	a0,s0
   1895c:	07a000ef          	jal	189d6 <__clzdi2>
   18960:	0005071b          	sext.w	a4,a0
   18964:	47b9                	li	a5,14
   18966:	02e7c063          	blt	a5,a4,18986 <__extenddftf2+0x70>
   1896a:	45bd                	li	a1,15
   1896c:	9d89                	subw	a1,a1,a0
   1896e:	0315079b          	addiw	a5,a0,49
   18972:	00b455b3          	srl	a1,s0,a1
   18976:	00f41433          	sll	s0,s0,a5
   1897a:	6791                	lui	a5,0x4
   1897c:	c0c7879b          	addiw	a5,a5,-1012 # 3c0c <exit-0xc4dc>
   18980:	40a7853b          	subw	a0,a5,a0
   18984:	b7f1                	j	18950 <__extenddftf2+0x3a>
   18986:	ff15059b          	addiw	a1,a0,-15
   1898a:	00b415b3          	sll	a1,s0,a1
   1898e:	4401                	li	s0,0
   18990:	b7ed                	j	1897a <__extenddftf2+0x64>
   18992:	cc15                	beqz	s0,189ce <__extenddftf2+0xb8>
   18994:	4785                	li	a5,1
   18996:	17ce                	slli	a5,a5,0x33
   18998:	4705                	li	a4,1
   1899a:	00f437b3          	sltu	a5,s0,a5
   1899e:	00445593          	srli	a1,s0,0x4
   189a2:	173e                	slli	a4,a4,0x2f
   189a4:	6521                	lui	a0,0x8
   189a6:	0792                	slli	a5,a5,0x4
   189a8:	1472                	slli	s0,s0,0x3c
   189aa:	8dd9                	or	a1,a1,a4
   189ac:	157d                	addi	a0,a0,-1 # 7fff <exit-0x80e9>
   189ae:	00f4949b          	slliw	s1,s1,0xf
   189b2:	05c2                	slli	a1,a1,0x10
   189b4:	8d45                	or	a0,a0,s1
   189b6:	1542                	slli	a0,a0,0x30
   189b8:	81c1                	srli	a1,a1,0x10
   189ba:	8dc9                	or	a1,a1,a0
   189bc:	c399                	beqz	a5,189c2 <__extenddftf2+0xac>
   189be:	00186073          	csrsi	fflags,16
   189c2:	60e2                	ld	ra,24(sp)
   189c4:	8522                	mv	a0,s0
   189c6:	6442                	ld	s0,16(sp)
   189c8:	64a2                	ld	s1,8(sp)
   189ca:	6105                	addi	sp,sp,32
   189cc:	8082                	ret
   189ce:	6521                	lui	a0,0x8
   189d0:	4581                	li	a1,0
   189d2:	157d                	addi	a0,a0,-1 # 7fff <exit-0x80e9>
   189d4:	bfb5                	j	18950 <__extenddftf2+0x3a>

00000000000189d6 <__clzdi2>:
   189d6:	03855793          	srli	a5,a0,0x38
   189da:	eb85                	bnez	a5,18a0a <__clzdi2+0x34>
   189dc:	03800793          	li	a5,56
   189e0:	17e1                	addi	a5,a5,-8
   189e2:	c791                	beqz	a5,189ee <__clzdi2+0x18>
   189e4:	00f55733          	srl	a4,a0,a5
   189e8:	0ff77713          	zext.b	a4,a4
   189ec:	db75                	beqz	a4,189e0 <__clzdi2+0xa>
   189ee:	6765                	lui	a4,0x19
   189f0:	04000693          	li	a3,64
   189f4:	8e9d                	sub	a3,a3,a5
   189f6:	00f55533          	srl	a0,a0,a5
   189fa:	10870793          	addi	a5,a4,264 # 19108 <__clz_tab>
   189fe:	97aa                	add	a5,a5,a0
   18a00:	0007c503          	lbu	a0,0(a5)
   18a04:	40a6853b          	subw	a0,a3,a0
   18a08:	8082                	ret
   18a0a:	03800793          	li	a5,56
   18a0e:	b7c5                	j	189ee <__clzdi2+0x18>
