
pjpegenc_baseline.elf:     file format elf64-littleriscv


Disassembly of section .text:

00000000000100e8 <__cxa_bad_cast>:
   100e8:	1141                	addi	sp,sp,-16
   100ea:	4521                	li	a0,8
   100ec:	e406                	sd	ra,8(sp)
   100ee:	4b30a0ef          	jal	1ada0 <__cxa_allocate_exception>
   100f2:	000307b7          	lui	a5,0x30
   100f6:	aa878793          	addi	a5,a5,-1368 # 2faa8 <_ZTVSt8bad_cast+0x10>
   100fa:	6659                	lui	a2,0x16
   100fc:	000305b7          	lui	a1,0x30
   10100:	e11c                	sd	a5,0(a0)
   10102:	7e060613          	addi	a2,a2,2016 # 167e0 <_ZNSt8bad_castD1Ev>
   10106:	a8058593          	addi	a1,a1,-1408 # 2fa80 <_ZTISt8bad_cast>
   1010a:	6d6040ef          	jal	147e0 <__cxa_throw>

000000000001010e <__cxa_bad_typeid>:
   1010e:	1141                	addi	sp,sp,-16
   10110:	4521                	li	a0,8
   10112:	e406                	sd	ra,8(sp)
   10114:	48d0a0ef          	jal	1ada0 <__cxa_allocate_exception>
   10118:	000307b7          	lui	a5,0x30
   1011c:	af878793          	addi	a5,a5,-1288 # 2faf8 <_ZTVSt10bad_typeid+0x10>
   10120:	665d                	lui	a2,0x17
   10122:	000305b7          	lui	a1,0x30
   10126:	e11c                	sd	a5,0(a0)
   10128:	81260613          	addi	a2,a2,-2030 # 16812 <_ZNSt10bad_typeidD1Ev>
   1012c:	ad058593          	addi	a1,a1,-1328 # 2fad0 <_ZTISt10bad_typeid>
   10130:	6b0040ef          	jal	147e0 <__cxa_throw>

0000000000010134 <__cxa_throw_bad_array_new_length>:
   10134:	1141                	addi	sp,sp,-16
   10136:	4521                	li	a0,8
   10138:	e406                	sd	ra,8(sp)
   1013a:	4670a0ef          	jal	1ada0 <__cxa_allocate_exception>
   1013e:	000307b7          	lui	a5,0x30
   10142:	a5878793          	addi	a5,a5,-1448 # 2fa58 <_ZTVSt20bad_array_new_length+0x10>
   10146:	6659                	lui	a2,0x16
   10148:	000305b7          	lui	a1,0x30
   1014c:	e11c                	sd	a5,0(a0)
   1014e:	7ae60613          	addi	a2,a2,1966 # 167ae <_ZNSt20bad_array_new_lengthD1Ev>
   10152:	a3058593          	addi	a1,a1,-1488 # 2fa30 <_ZTISt20bad_array_new_length>
   10156:	68a040ef          	jal	147e0 <__cxa_throw>

000000000001015a <_ZSt21__throw_bad_exceptionv>:
   1015a:	1141                	addi	sp,sp,-16
   1015c:	4521                	li	a0,8
   1015e:	e406                	sd	ra,8(sp)
   10160:	4410a0ef          	jal	1ada0 <__cxa_allocate_exception>
   10164:	000317b7          	lui	a5,0x31
   10168:	d2878793          	addi	a5,a5,-728 # 30d28 <_ZTVSt13bad_exception+0x10>
   1016c:	666d                	lui	a2,0x1b
   1016e:	000315b7          	lui	a1,0x31
   10172:	e11c                	sd	a5,0(a0)
   10174:	ff260613          	addi	a2,a2,-14 # 1aff2 <_ZNSt13bad_exceptionD1Ev>
   10178:	c7058593          	addi	a1,a1,-912 # 30c70 <_ZTISt13bad_exception>
   1017c:	664040ef          	jal	147e0 <__cxa_throw>

0000000000010180 <_ZSt17__throw_bad_allocv>:
   10180:	1141                	addi	sp,sp,-16
   10182:	4521                	li	a0,8
   10184:	e406                	sd	ra,8(sp)
   10186:	41b0a0ef          	jal	1ada0 <__cxa_allocate_exception>
   1018a:	000307b7          	lui	a5,0x30
   1018e:	9f878793          	addi	a5,a5,-1544 # 2f9f8 <_ZTVSt9bad_alloc+0x10>
   10192:	6659                	lui	a2,0x16
   10194:	000305b7          	lui	a1,0x30
   10198:	e11c                	sd	a5,0(a0)
   1019a:	77c60613          	addi	a2,a2,1916 # 1677c <_ZNSt9bad_allocD1Ev>
   1019e:	9d058593          	addi	a1,a1,-1584 # 2f9d0 <_ZTISt9bad_alloc>
   101a2:	63e040ef          	jal	147e0 <__cxa_throw>

00000000000101a6 <_ZSt28__throw_bad_array_new_lengthv>:
   101a6:	1141                	addi	sp,sp,-16
   101a8:	4521                	li	a0,8
   101aa:	e406                	sd	ra,8(sp)
   101ac:	3f50a0ef          	jal	1ada0 <__cxa_allocate_exception>
   101b0:	000307b7          	lui	a5,0x30
   101b4:	a5878793          	addi	a5,a5,-1448 # 2fa58 <_ZTVSt20bad_array_new_length+0x10>
   101b8:	6659                	lui	a2,0x16
   101ba:	000305b7          	lui	a1,0x30
   101be:	e11c                	sd	a5,0(a0)
   101c0:	7ae60613          	addi	a2,a2,1966 # 167ae <_ZNSt20bad_array_new_lengthD1Ev>
   101c4:	a3058593          	addi	a1,a1,-1488 # 2fa30 <_ZTISt20bad_array_new_length>
   101c8:	618040ef          	jal	147e0 <__cxa_throw>

00000000000101cc <_ZSt16__throw_bad_castv>:
   101cc:	1141                	addi	sp,sp,-16
   101ce:	4521                	li	a0,8
   101d0:	e406                	sd	ra,8(sp)
   101d2:	3cf0a0ef          	jal	1ada0 <__cxa_allocate_exception>
   101d6:	000307b7          	lui	a5,0x30
   101da:	aa878793          	addi	a5,a5,-1368 # 2faa8 <_ZTVSt8bad_cast+0x10>
   101de:	6659                	lui	a2,0x16
   101e0:	000305b7          	lui	a1,0x30
   101e4:	e11c                	sd	a5,0(a0)
   101e6:	7e060613          	addi	a2,a2,2016 # 167e0 <_ZNSt8bad_castD1Ev>
   101ea:	a8058593          	addi	a1,a1,-1408 # 2fa80 <_ZTISt8bad_cast>
   101ee:	5f2040ef          	jal	147e0 <__cxa_throw>

00000000000101f2 <_ZSt18__throw_bad_typeidv>:
   101f2:	1141                	addi	sp,sp,-16
   101f4:	4521                	li	a0,8
   101f6:	e406                	sd	ra,8(sp)
   101f8:	3a90a0ef          	jal	1ada0 <__cxa_allocate_exception>
   101fc:	000307b7          	lui	a5,0x30
   10200:	af878793          	addi	a5,a5,-1288 # 2faf8 <_ZTVSt10bad_typeid+0x10>
   10204:	665d                	lui	a2,0x17
   10206:	000305b7          	lui	a1,0x30
   1020a:	e11c                	sd	a5,0(a0)
   1020c:	81260613          	addi	a2,a2,-2030 # 16812 <_ZNSt10bad_typeidD1Ev>
   10210:	ad058593          	addi	a1,a1,-1328 # 2fad0 <_ZTISt10bad_typeid>
   10214:	5cc040ef          	jal	147e0 <__cxa_throw>

0000000000010218 <_ZSt19__throw_logic_errorPKc>:
   10218:	7179                	addi	sp,sp,-48
   1021a:	e42a                	sd	a0,8(sp)
   1021c:	4541                	li	a0,16
   1021e:	f022                	sd	s0,32(sp)
   10220:	f406                	sd	ra,40(sp)
   10222:	ec26                	sd	s1,24(sp)
   10224:	37d0a0ef          	jal	1ada0 <__cxa_allocate_exception>
   10228:	65a2                	ld	a1,8(sp)
   1022a:	842a                	mv	s0,a0
   1022c:	2340b0ef          	jal	1b460 <_ZNSt11logic_errorC1EPKc>
   10230:	666d                	lui	a2,0x1b
   10232:	000315b7          	lui	a1,0x31
   10236:	07060613          	addi	a2,a2,112 # 1b070 <_ZNSt11logic_errorD1Ev>
   1023a:	da058593          	addi	a1,a1,-608 # 30da0 <_ZTISt11logic_error>
   1023e:	8522                	mv	a0,s0
   10240:	5a0040ef          	jal	147e0 <__cxa_throw>
   10244:	84aa                	mv	s1,a0
   10246:	8522                	mv	a0,s0
   10248:	3930a0ef          	jal	1adda <__cxa_free_exception>
   1024c:	8526                	mv	a0,s1
   1024e:	6c1100ef          	jal	2110e <_Unwind_Resume>

0000000000010252 <_ZSt20__throw_domain_errorPKc>:
   10252:	7179                	addi	sp,sp,-48
   10254:	e42a                	sd	a0,8(sp)
   10256:	4541                	li	a0,16
   10258:	f022                	sd	s0,32(sp)
   1025a:	f406                	sd	ra,40(sp)
   1025c:	ec26                	sd	s1,24(sp)
   1025e:	3430a0ef          	jal	1ada0 <__cxa_allocate_exception>
   10262:	65a2                	ld	a1,8(sp)
   10264:	842a                	mv	s0,a0
   10266:	2300b0ef          	jal	1b496 <_ZNSt12domain_errorC1EPKc>
   1026a:	666d                	lui	a2,0x1b
   1026c:	000315b7          	lui	a1,0x31
   10270:	09460613          	addi	a2,a2,148 # 1b094 <_ZNSt12domain_errorD1Ev>
   10274:	dd058593          	addi	a1,a1,-560 # 30dd0 <_ZTISt12domain_error>
   10278:	8522                	mv	a0,s0
   1027a:	566040ef          	jal	147e0 <__cxa_throw>
   1027e:	84aa                	mv	s1,a0
   10280:	8522                	mv	a0,s0
   10282:	3590a0ef          	jal	1adda <__cxa_free_exception>
   10286:	8526                	mv	a0,s1
   10288:	687100ef          	jal	2110e <_Unwind_Resume>

000000000001028c <_ZSt24__throw_invalid_argumentPKc>:
   1028c:	7179                	addi	sp,sp,-48
   1028e:	e42a                	sd	a0,8(sp)
   10290:	4541                	li	a0,16
   10292:	f022                	sd	s0,32(sp)
   10294:	f406                	sd	ra,40(sp)
   10296:	ec26                	sd	s1,24(sp)
   10298:	3090a0ef          	jal	1ada0 <__cxa_allocate_exception>
   1029c:	65a2                	ld	a1,8(sp)
   1029e:	842a                	mv	s0,a0
   102a0:	2140b0ef          	jal	1b4b4 <_ZNSt16invalid_argumentC1EPKc>
   102a4:	666d                	lui	a2,0x1b
   102a6:	000315b7          	lui	a1,0x31
   102aa:	0a260613          	addi	a2,a2,162 # 1b0a2 <_ZNSt16invalid_argumentD1Ev>
   102ae:	e0058593          	addi	a1,a1,-512 # 30e00 <_ZTISt16invalid_argument>
   102b2:	8522                	mv	a0,s0
   102b4:	52c040ef          	jal	147e0 <__cxa_throw>
   102b8:	84aa                	mv	s1,a0
   102ba:	8522                	mv	a0,s0
   102bc:	31f0a0ef          	jal	1adda <__cxa_free_exception>
   102c0:	8526                	mv	a0,s1
   102c2:	64d100ef          	jal	2110e <_Unwind_Resume>

00000000000102c6 <_ZSt20__throw_length_errorPKc>:
   102c6:	7179                	addi	sp,sp,-48
   102c8:	e42a                	sd	a0,8(sp)
   102ca:	4541                	li	a0,16
   102cc:	f022                	sd	s0,32(sp)
   102ce:	f406                	sd	ra,40(sp)
   102d0:	ec26                	sd	s1,24(sp)
   102d2:	2cf0a0ef          	jal	1ada0 <__cxa_allocate_exception>
   102d6:	65a2                	ld	a1,8(sp)
   102d8:	842a                	mv	s0,a0
   102da:	1f80b0ef          	jal	1b4d2 <_ZNSt12length_errorC1EPKc>
   102de:	666d                	lui	a2,0x1b
   102e0:	000315b7          	lui	a1,0x31
   102e4:	0b060613          	addi	a2,a2,176 # 1b0b0 <_ZNSt12length_errorD1Ev>
   102e8:	e3058593          	addi	a1,a1,-464 # 30e30 <_ZTISt12length_error>
   102ec:	8522                	mv	a0,s0
   102ee:	4f2040ef          	jal	147e0 <__cxa_throw>
   102f2:	84aa                	mv	s1,a0
   102f4:	8522                	mv	a0,s0
   102f6:	2e50a0ef          	jal	1adda <__cxa_free_exception>
   102fa:	8526                	mv	a0,s1
   102fc:	613100ef          	jal	2110e <_Unwind_Resume>

0000000000010300 <_ZSt20__throw_out_of_rangePKc>:
   10300:	7179                	addi	sp,sp,-48
   10302:	e42a                	sd	a0,8(sp)
   10304:	4541                	li	a0,16
   10306:	f022                	sd	s0,32(sp)
   10308:	f406                	sd	ra,40(sp)
   1030a:	ec26                	sd	s1,24(sp)
   1030c:	2950a0ef          	jal	1ada0 <__cxa_allocate_exception>
   10310:	65a2                	ld	a1,8(sp)
   10312:	842a                	mv	s0,a0
   10314:	1dc0b0ef          	jal	1b4f0 <_ZNSt12out_of_rangeC1EPKc>
   10318:	666d                	lui	a2,0x1b
   1031a:	000315b7          	lui	a1,0x31
   1031e:	0be60613          	addi	a2,a2,190 # 1b0be <_ZNSt12out_of_rangeD1Ev>
   10322:	e6058593          	addi	a1,a1,-416 # 30e60 <_ZTISt12out_of_range>
   10326:	8522                	mv	a0,s0
   10328:	4b8040ef          	jal	147e0 <__cxa_throw>
   1032c:	84aa                	mv	s1,a0
   1032e:	8522                	mv	a0,s0
   10330:	2ab0a0ef          	jal	1adda <__cxa_free_exception>
   10334:	8526                	mv	a0,s1
   10336:	5d9100ef          	jal	2110e <_Unwind_Resume>

000000000001033a <_ZSt21__throw_runtime_errorPKc>:
   1033a:	7179                	addi	sp,sp,-48
   1033c:	e42a                	sd	a0,8(sp)
   1033e:	4541                	li	a0,16
   10340:	f022                	sd	s0,32(sp)
   10342:	f406                	sd	ra,40(sp)
   10344:	ec26                	sd	s1,24(sp)
   10346:	25b0a0ef          	jal	1ada0 <__cxa_allocate_exception>
   1034a:	65a2                	ld	a1,8(sp)
   1034c:	842a                	mv	s0,a0
   1034e:	1c00b0ef          	jal	1b50e <_ZNSt13runtime_errorC1EPKc>
   10352:	666d                	lui	a2,0x1b
   10354:	000315b7          	lui	a1,0x31
   10358:	0cc60613          	addi	a2,a2,204 # 1b0cc <_ZNSt13runtime_errorD1Ev>
   1035c:	e9058593          	addi	a1,a1,-368 # 30e90 <_ZTISt13runtime_error>
   10360:	8522                	mv	a0,s0
   10362:	47e040ef          	jal	147e0 <__cxa_throw>
   10366:	84aa                	mv	s1,a0
   10368:	8522                	mv	a0,s0
   1036a:	2710a0ef          	jal	1adda <__cxa_free_exception>
   1036e:	8526                	mv	a0,s1
   10370:	59f100ef          	jal	2110e <_Unwind_Resume>

0000000000010374 <_ZSt19__throw_range_errorPKc>:
   10374:	7179                	addi	sp,sp,-48
   10376:	e42a                	sd	a0,8(sp)
   10378:	4541                	li	a0,16
   1037a:	f022                	sd	s0,32(sp)
   1037c:	f406                	sd	ra,40(sp)
   1037e:	ec26                	sd	s1,24(sp)
   10380:	2210a0ef          	jal	1ada0 <__cxa_allocate_exception>
   10384:	65a2                	ld	a1,8(sp)
   10386:	842a                	mv	s0,a0
   10388:	1bc0b0ef          	jal	1b544 <_ZNSt11range_errorC1EPKc>
   1038c:	666d                	lui	a2,0x1b
   1038e:	000315b7          	lui	a1,0x31
   10392:	0f060613          	addi	a2,a2,240 # 1b0f0 <_ZNSt11range_errorD1Ev>
   10396:	eb858593          	addi	a1,a1,-328 # 30eb8 <_ZTISt11range_error>
   1039a:	8522                	mv	a0,s0
   1039c:	444040ef          	jal	147e0 <__cxa_throw>
   103a0:	84aa                	mv	s1,a0
   103a2:	8522                	mv	a0,s0
   103a4:	2370a0ef          	jal	1adda <__cxa_free_exception>
   103a8:	8526                	mv	a0,s1
   103aa:	565100ef          	jal	2110e <_Unwind_Resume>

00000000000103ae <_ZSt22__throw_overflow_errorPKc>:
   103ae:	7179                	addi	sp,sp,-48
   103b0:	e42a                	sd	a0,8(sp)
   103b2:	4541                	li	a0,16
   103b4:	f022                	sd	s0,32(sp)
   103b6:	f406                	sd	ra,40(sp)
   103b8:	ec26                	sd	s1,24(sp)
   103ba:	1e70a0ef          	jal	1ada0 <__cxa_allocate_exception>
   103be:	65a2                	ld	a1,8(sp)
   103c0:	842a                	mv	s0,a0
   103c2:	1a00b0ef          	jal	1b562 <_ZNSt14overflow_errorC1EPKc>
   103c6:	666d                	lui	a2,0x1b
   103c8:	000315b7          	lui	a1,0x31
   103cc:	0fe60613          	addi	a2,a2,254 # 1b0fe <_ZNSt14overflow_errorD1Ev>
   103d0:	ee858593          	addi	a1,a1,-280 # 30ee8 <_ZTISt14overflow_error>
   103d4:	8522                	mv	a0,s0
   103d6:	40a040ef          	jal	147e0 <__cxa_throw>
   103da:	84aa                	mv	s1,a0
   103dc:	8522                	mv	a0,s0
   103de:	1fd0a0ef          	jal	1adda <__cxa_free_exception>
   103e2:	8526                	mv	a0,s1
   103e4:	52b100ef          	jal	2110e <_Unwind_Resume>

00000000000103e8 <_ZSt23__throw_underflow_errorPKc>:
   103e8:	7179                	addi	sp,sp,-48
   103ea:	e42a                	sd	a0,8(sp)
   103ec:	4541                	li	a0,16
   103ee:	f022                	sd	s0,32(sp)
   103f0:	f406                	sd	ra,40(sp)
   103f2:	ec26                	sd	s1,24(sp)
   103f4:	1ad0a0ef          	jal	1ada0 <__cxa_allocate_exception>
   103f8:	65a2                	ld	a1,8(sp)
   103fa:	842a                	mv	s0,a0
   103fc:	1840b0ef          	jal	1b580 <_ZNSt15underflow_errorC1EPKc>
   10400:	666d                	lui	a2,0x1b
   10402:	000315b7          	lui	a1,0x31
   10406:	10c60613          	addi	a2,a2,268 # 1b10c <_ZNSt15underflow_errorD1Ev>
   1040a:	f1858593          	addi	a1,a1,-232 # 30f18 <_ZTISt15underflow_error>
   1040e:	8522                	mv	a0,s0
   10410:	3d0040ef          	jal	147e0 <__cxa_throw>
   10414:	84aa                	mv	s1,a0
   10416:	8522                	mv	a0,s0
   10418:	1c30a0ef          	jal	1adda <__cxa_free_exception>
   1041c:	8526                	mv	a0,s1
   1041e:	4f1100ef          	jal	2110e <_Unwind_Resume>

0000000000010422 <_ZNSt7__cxx1112basic_stringIcSt11char_traitsIcESaIcEE15_M_replace_coldEPcmPKcmm>:
   10422:	7179                	addi	sp,sp,-48
   10424:	f022                	sd	s0,32(sp)
   10426:	ec26                	sd	s1,24(sp)
   10428:	e84a                	sd	s2,16(sp)
   1042a:	e44e                	sd	s3,8(sp)
   1042c:	e052                	sd	s4,0(sp)
   1042e:	f406                	sd	ra,40(sp)
   10430:	892e                	mv	s2,a1
   10432:	89b2                	mv	s3,a2
   10434:	8436                	mv	s0,a3
   10436:	84ba                	mv	s1,a4
   10438:	8a3e                	mv	s4,a5
   1043a:	cb01                	beqz	a4,1044a <_ZNSt7__cxx1112basic_stringIcSt11char_traitsIcESaIcEE15_M_replace_coldEPcmPKcmm+0x28>
   1043c:	0ae66063          	bltu	a2,a4,104dc <_ZNSt7__cxx1112basic_stringIcSt11char_traitsIcESaIcEE15_M_replace_coldEPcmPKcmm+0xba>
   10440:	863a                	mv	a2,a4
   10442:	85b6                	mv	a1,a3
   10444:	854a                	mv	a0,s2
   10446:	29d040ef          	jal	14ee2 <_ZNSt7__cxx1112basic_stringIcSt11char_traitsIcESaIcEE7_S_moveEPcPKcm>
   1044a:	000a1a63          	bnez	s4,1045e <_ZNSt7__cxx1112basic_stringIcSt11char_traitsIcESaIcEE15_M_replace_coldEPcmPKcmm+0x3c>
   1044e:	70a2                	ld	ra,40(sp)
   10450:	7402                	ld	s0,32(sp)
   10452:	64e2                	ld	s1,24(sp)
   10454:	6942                	ld	s2,16(sp)
   10456:	69a2                	ld	s3,8(sp)
   10458:	6a02                	ld	s4,0(sp)
   1045a:	6145                	addi	sp,sp,48
   1045c:	8082                	ret
   1045e:	ff3488e3          	beq	s1,s3,1044e <_ZNSt7__cxx1112basic_stringIcSt11char_traitsIcESaIcEE15_M_replace_coldEPcmPKcmm+0x2c>
   10462:	8652                	mv	a2,s4
   10464:	013905b3          	add	a1,s2,s3
   10468:	00990533          	add	a0,s2,s1
   1046c:	277040ef          	jal	14ee2 <_ZNSt7__cxx1112basic_stringIcSt11char_traitsIcESaIcEE7_S_moveEPcPKcm>
   10470:	fc99ffe3          	bgeu	s3,s1,1044e <_ZNSt7__cxx1112basic_stringIcSt11char_traitsIcESaIcEE15_M_replace_coldEPcmPKcmm+0x2c>
   10474:	013907b3          	add	a5,s2,s3
   10478:	00940733          	add	a4,s0,s1
   1047c:	00e7ee63          	bltu	a5,a4,10498 <_ZNSt7__cxx1112basic_stringIcSt11char_traitsIcESaIcEE15_M_replace_coldEPcmPKcmm+0x76>
   10480:	85a2                	mv	a1,s0
   10482:	7402                	ld	s0,32(sp)
   10484:	70a2                	ld	ra,40(sp)
   10486:	69a2                	ld	s3,8(sp)
   10488:	6a02                	ld	s4,0(sp)
   1048a:	8626                	mv	a2,s1
   1048c:	854a                	mv	a0,s2
   1048e:	64e2                	ld	s1,24(sp)
   10490:	6942                	ld	s2,16(sp)
   10492:	6145                	addi	sp,sp,48
   10494:	24f0406f          	j	14ee2 <_ZNSt7__cxx1112basic_stringIcSt11char_traitsIcESaIcEE7_S_moveEPcPKcm>
   10498:	02f46463          	bltu	s0,a5,104c0 <_ZNSt7__cxx1112basic_stringIcSt11char_traitsIcESaIcEE15_M_replace_coldEPcmPKcmm+0x9e>
   1049c:	41240433          	sub	s0,s0,s2
   104a0:	41340433          	sub	s0,s0,s3
   104a4:	9426                	add	s0,s0,s1
   104a6:	8626                	mv	a2,s1
   104a8:	008905b3          	add	a1,s2,s0
   104ac:	854a                	mv	a0,s2
   104ae:	7402                	ld	s0,32(sp)
   104b0:	70a2                	ld	ra,40(sp)
   104b2:	64e2                	ld	s1,24(sp)
   104b4:	6942                	ld	s2,16(sp)
   104b6:	69a2                	ld	s3,8(sp)
   104b8:	6a02                	ld	s4,0(sp)
   104ba:	6145                	addi	sp,sp,48
   104bc:	2130406f          	j	14ece <_ZNSt7__cxx1112basic_stringIcSt11char_traitsIcESaIcEE7_S_copyEPcPKcm>
   104c0:	408789b3          	sub	s3,a5,s0
   104c4:	864e                	mv	a2,s3
   104c6:	85a2                	mv	a1,s0
   104c8:	854a                	mv	a0,s2
   104ca:	219040ef          	jal	14ee2 <_ZNSt7__cxx1112basic_stringIcSt11char_traitsIcESaIcEE7_S_moveEPcPKcm>
   104ce:	41348633          	sub	a2,s1,s3
   104d2:	009905b3          	add	a1,s2,s1
   104d6:	01390533          	add	a0,s2,s3
   104da:	bfd1                	j	104ae <_ZNSt7__cxx1112basic_stringIcSt11char_traitsIcESaIcEE15_M_replace_coldEPcmPKcmm+0x8c>
   104dc:	f3d9                	bnez	a5,10462 <_ZNSt7__cxx1112basic_stringIcSt11char_traitsIcESaIcEE15_M_replace_coldEPcmPKcmm+0x40>
   104de:	bf59                	j	10474 <_ZNSt7__cxx1112basic_stringIcSt11char_traitsIcESaIcEE15_M_replace_coldEPcmPKcmm+0x52>

00000000000104e0 <_ZN9__gnu_cxx9__freeresEv>:
   104e0:	1141                	addi	sp,sp,-16
   104e2:	e022                	sd	s0,0(sp)
   104e4:	1d818413          	addi	s0,gp,472 # 3a0e8 <_ZN12_GLOBAL__N_114emergency_poolE>
   104e8:	6808                	ld	a0,16(s0)
   104ea:	e406                	sd	ra,8(sp)
   104ec:	c509                	beqz	a0,104f6 <_ZN9__gnu_cxx9__freeresEv+0x16>
   104ee:	19a120ef          	jal	22688 <free>
   104f2:	00043823          	sd	zero,16(s0)
   104f6:	60a2                	ld	ra,8(sp)
   104f8:	6402                	ld	s0,0(sp)
   104fa:	0141                	addi	sp,sp,16
   104fc:	8082                	ret

00000000000104fe <exit>:
   104fe:	1141                	addi	sp,sp,-16
   10500:	4581                	li	a1,0
   10502:	e022                	sd	s0,0(sp)
   10504:	e406                	sd	ra,8(sp)
   10506:	842a                	mv	s0,a0
   10508:	27c150ef          	jal	25784 <__call_exitprocs>
   1050c:	1701b783          	ld	a5,368(gp) # 3a080 <__stdio_exit_handler>
   10510:	c391                	beqz	a5,10514 <exit+0x16>
   10512:	9782                	jalr	a5
   10514:	8522                	mv	a0,s0
   10516:	5321c0ef          	jal	2ca48 <_exit>

000000000001051a <_GLOBAL__sub_I__ZN9__gnu_cxx9__freeresEv>:
   1051a:	7175                	addi	sp,sp,-144
   1051c:	fca6                	sd	s1,120(sp)
   1051e:	0002f537          	lui	a0,0x2f
   10522:	1d818793          	addi	a5,gp,472 # 3a0e8 <_ZN12_GLOBAL__N_114emergency_poolE>
   10526:	e122                	sd	s0,128(sp)
   10528:	f0d2                	sd	s4,96(sp)
   1052a:	ecd6                	sd	s5,88(sp)
   1052c:	e506                	sd	ra,136(sp)
   1052e:	f8ca                	sd	s2,112(sp)
   10530:	f4ce                	sd	s3,104(sp)
   10532:	28050513          	addi	a0,a0,640 # 2f280 <__clzdi2+0x144c>
   10536:	0007b423          	sd	zero,8(a5)
   1053a:	0007b823          	sd	zero,16(a5)
   1053e:	0007bc23          	sd	zero,24(a5)
   10542:	060120ef          	jal	225a2 <getenv>
   10546:	47bd                	li	a5,15
   10548:	e83e                	sd	a5,16(sp)
   1054a:	0002f7b7          	lui	a5,0x2f
   1054e:	29878793          	addi	a5,a5,664 # 2f298 <__clzdi2+0x1464>
   10552:	ec3e                	sd	a5,24(sp)
   10554:	47a1                	li	a5,8
   10556:	f03e                	sd	a5,32(sp)
   10558:	0002f7b7          	lui	a5,0x2f
   1055c:	2a878793          	addi	a5,a5,680 # 2f2a8 <__clzdi2+0x1474>
   10560:	f43e                	sd	a5,40(sp)
   10562:	47a5                	li	a5,9
   10564:	fc3e                	sd	a5,56(sp)
   10566:	0002f7b7          	lui	a5,0x2f
   1056a:	2b878793          	addi	a5,a5,696 # 2f2b8 <__clzdi2+0x1484>
   1056e:	e0be                	sd	a5,64(sp)
   10570:	4791                	li	a5,4
   10572:	842a                	mv	s0,a0
   10574:	d802                	sw	zero,48(sp)
   10576:	c4be                	sw	a5,72(sp)
   10578:	1d818493          	addi	s1,gp,472 # 3a0e8 <_ZN12_GLOBAL__N_114emergency_poolE>
   1057c:	03a00a13          	li	s4,58
   10580:	02e00a93          	li	s5,46
   10584:	e039                	bnez	s0,105ca <_GLOBAL__sub_I__ZN9__gnu_cxx9__freeresEv+0xb0>
   10586:	4726                	lw	a4,72(sp)
   10588:	04000693          	li	a3,64
   1058c:	0007079b          	sext.w	a5,a4
   10590:	00e6d463          	bge	a3,a4,10598 <_GLOBAL__sub_I__ZN9__gnu_cxx9__freeresEv+0x7e>
   10594:	04000793          	li	a5,64
   10598:	5442                	lw	s0,48(sp)
   1059a:	e011                	bnez	s0,1059e <_GLOBAL__sub_I__ZN9__gnu_cxx9__freeresEv+0x84>
   1059c:	4419                	li	s0,6
   1059e:	0479                	addi	s0,s0,30
   105a0:	02f40433          	mul	s0,s0,a5
   105a4:	040e                	slli	s0,s0,0x3
   105a6:	ec80                	sd	s0,24(s1)
   105a8:	c801                	beqz	s0,105b8 <_GLOBAL__sub_I__ZN9__gnu_cxx9__freeresEv+0x9e>
   105aa:	8522                	mv	a0,s0
   105ac:	0d4120ef          	jal	22680 <malloc>
   105b0:	e888                	sd	a0,16(s1)
   105b2:	e54d                	bnez	a0,1065c <_GLOBAL__sub_I__ZN9__gnu_cxx9__freeresEv+0x142>
   105b4:	0004bc23          	sd	zero,24(s1)
   105b8:	60aa                	ld	ra,136(sp)
   105ba:	640a                	ld	s0,128(sp)
   105bc:	74e6                	ld	s1,120(sp)
   105be:	7946                	ld	s2,112(sp)
   105c0:	79a6                	ld	s3,104(sp)
   105c2:	7a06                	ld	s4,96(sp)
   105c4:	6ae6                	ld	s5,88(sp)
   105c6:	6149                	addi	sp,sp,144
   105c8:	8082                	ret
   105ca:	00044783          	lbu	a5,0(s0)
   105ce:	01479363          	bne	a5,s4,105d4 <_GLOBAL__sub_I__ZN9__gnu_cxx9__freeresEv+0xba>
   105d2:	0405                	addi	s0,s0,1
   105d4:	473d                	li	a4,15
   105d6:	86a2                	mv	a3,s0
   105d8:	463d                	li	a2,15
   105da:	4581                	li	a1,0
   105dc:	0808                	addi	a0,sp,16
   105de:	06b0a0ef          	jal	1ae48 <_ZNKSt17basic_string_viewIcSt11char_traitsIcEE7compareEmmPKcm>
   105e2:	ed15                	bnez	a0,1061e <_GLOBAL__sub_I__ZN9__gnu_cxx9__freeresEv+0x104>
   105e4:	00f44783          	lbu	a5,15(s0)
   105e8:	03579b63          	bne	a5,s5,1061e <_GLOBAL__sub_I__ZN9__gnu_cxx9__freeresEv+0x104>
   105ec:	0441                	addi	s0,s0,16
   105ee:	02010913          	addi	s2,sp,32
   105f2:	00093983          	ld	s3,0(s2)
   105f6:	86a2                	mv	a3,s0
   105f8:	4581                	li	a1,0
   105fa:	874e                	mv	a4,s3
   105fc:	864e                	mv	a2,s3
   105fe:	854a                	mv	a0,s2
   10600:	0490a0ef          	jal	1ae48 <_ZNKSt17basic_string_viewIcSt11char_traitsIcEE7compareEmmPKcm>
   10604:	e909                	bnez	a0,10616 <_GLOBAL__sub_I__ZN9__gnu_cxx9__freeresEv+0xfc>
   10606:	013407b3          	add	a5,s0,s3
   1060a:	0007c703          	lbu	a4,0(a5)
   1060e:	03d00793          	li	a5,61
   10612:	00f70d63          	beq	a4,a5,1062c <_GLOBAL__sub_I__ZN9__gnu_cxx9__freeresEv+0x112>
   10616:	0961                	addi	s2,s2,24
   10618:	089c                	addi	a5,sp,80
   1061a:	fcf91ce3          	bne	s2,a5,105f2 <_GLOBAL__sub_I__ZN9__gnu_cxx9__freeresEv+0xd8>
   1061e:	8522                	mv	a0,s0
   10620:	03a00593          	li	a1,58
   10624:	47c140ef          	jal	24aa0 <strchr>
   10628:	842a                	mv	s0,a0
   1062a:	bfa9                	j	10584 <_GLOBAL__sub_I__ZN9__gnu_cxx9__freeresEv+0x6a>
   1062c:	00198513          	addi	a0,s3,1
   10630:	9522                	add	a0,a0,s0
   10632:	4601                	li	a2,0
   10634:	002c                	addi	a1,sp,8
   10636:	401120ef          	jal	23236 <strtoul>
   1063a:	6422                	ld	s0,8(sp)
   1063c:	03a00713          	li	a4,58
   10640:	00044783          	lbu	a5,0(s0)
   10644:	00e78363          	beq	a5,a4,1064a <_GLOBAL__sub_I__ZN9__gnu_cxx9__freeresEv+0x130>
   10648:	fbf9                	bnez	a5,1061e <_GLOBAL__sub_I__ZN9__gnu_cxx9__freeresEv+0x104>
   1064a:	800007b7          	lui	a5,0x80000
   1064e:	fff7c793          	not	a5,a5
   10652:	fca7e6e3          	bltu	a5,a0,1061e <_GLOBAL__sub_I__ZN9__gnu_cxx9__freeresEv+0x104>
   10656:	00a92823          	sw	a0,16(s2)
   1065a:	b7d1                	j	1061e <_GLOBAL__sub_I__ZN9__gnu_cxx9__freeresEv+0x104>
   1065c:	e488                	sd	a0,8(s1)
   1065e:	e100                	sd	s0,0(a0)
   10660:	00053423          	sd	zero,8(a0)
   10664:	bf91                	j	105b8 <_GLOBAL__sub_I__ZN9__gnu_cxx9__freeresEv+0x9e>

0000000000010666 <register_fini>:
   10666:	00000793          	li	a5,0
   1066a:	c799                	beqz	a5,10678 <register_fini+0x12>
   1066c:	00029537          	lui	a0,0x29
   10670:	6c050513          	addi	a0,a0,1728 # 296c0 <__libc_fini_array>
   10674:	1e21506f          	j	25856 <atexit>
   10678:	8082                	ret

000000000001067a <_start>:
   1067a:	0002a197          	auipc	gp,0x2a
   1067e:	89618193          	addi	gp,gp,-1898 # 39f10 <__global_pointer$>
   10682:	10818513          	addi	a0,gp,264 # 3a018 <useCustomInstructionsForYUV>
   10686:	0002a617          	auipc	a2,0x2a
   1068a:	08a60613          	addi	a2,a2,138 # 3a710 <__BSS_END__>
   1068e:	8e09                	sub	a2,a2,a0
   10690:	4581                	li	a1,0
   10692:	4c9140ef          	jal	2535a <memset>
   10696:	00015517          	auipc	a0,0x15
   1069a:	1c050513          	addi	a0,a0,448 # 25856 <atexit>
   1069e:	c519                	beqz	a0,106ac <_start+0x32>
   106a0:	00019517          	auipc	a0,0x19
   106a4:	02050513          	addi	a0,a0,32 # 296c0 <__libc_fini_array>
   106a8:	1ae150ef          	jal	25856 <atexit>
   106ac:	35d140ef          	jal	25208 <__libc_init_array>
   106b0:	4502                	lw	a0,0(sp)
   106b2:	002c                	addi	a1,sp,8
   106b4:	4601                	li	a2,0
   106b6:	242000ef          	jal	108f8 <main>
   106ba:	b591                	j	104fe <exit>

00000000000106bc <__do_global_dtors_aux>:
   106bc:	1141                	addi	sp,sp,-16
   106be:	e022                	sd	s0,0(sp)
   106c0:	1a01c783          	lbu	a5,416(gp) # 3a0b0 <completed.1>
   106c4:	e406                	sd	ra,8(sp)
   106c6:	ef99                	bnez	a5,106e4 <__do_global_dtors_aux+0x28>
   106c8:	000227b7          	lui	a5,0x22
   106cc:	4a678793          	addi	a5,a5,1190 # 224a6 <__deregister_frame_info>
   106d0:	c799                	beqz	a5,106de <__do_global_dtors_aux+0x22>
   106d2:	00032537          	lui	a0,0x32
   106d6:	00050513          	mv	a0,a0
   106da:	5cd110ef          	jal	224a6 <__deregister_frame_info>
   106de:	4785                	li	a5,1
   106e0:	1af18023          	sb	a5,416(gp) # 3a0b0 <completed.1>
   106e4:	60a2                	ld	ra,8(sp)
   106e6:	6402                	ld	s0,0(sp)
   106e8:	0141                	addi	sp,sp,16
   106ea:	8082                	ret

00000000000106ec <frame_dummy>:
   106ec:	000227b7          	lui	a5,0x22
   106f0:	3cc78793          	addi	a5,a5,972 # 223cc <__register_frame_info>
   106f4:	cb89                	beqz	a5,10706 <frame_dummy+0x1a>
   106f6:	00032537          	lui	a0,0x32
   106fa:	1a818593          	addi	a1,gp,424 # 3a0b8 <object.0>
   106fe:	00050513          	mv	a0,a0
   10702:	4cb1106f          	j	223cc <__register_frame_info>
   10706:	8082                	ret

0000000000010708 <_Z5usagev>:
   10708:	1141                	addi	sp,sp,-16
   1070a:	e406                	sd	ra,8(sp)
   1070c:	0002e537          	lui	a0,0x2e
   10710:	e7050513          	addi	a0,a0,-400 # 2de70 <__clzdi2+0x3c>
   10714:	2d7130ef          	jal	241ea <puts>
   10718:	0002e537          	lui	a0,0x2e
   1071c:	e9050513          	addi	a0,a0,-368 # 2de90 <__clzdi2+0x5c>
   10720:	2cb130ef          	jal	241ea <puts>
   10724:	0002e537          	lui	a0,0x2e
   10728:	eb050513          	addi	a0,a0,-336 # 2deb0 <__clzdi2+0x7c>
   1072c:	2bf130ef          	jal	241ea <puts>
   10730:	0002e537          	lui	a0,0x2e
   10734:	ec050513          	addi	a0,a0,-320 # 2dec0 <__clzdi2+0x8c>
   10738:	2b3130ef          	jal	241ea <puts>
   1073c:	0002e537          	lui	a0,0x2e
   10740:	ee050513          	addi	a0,a0,-288 # 2dee0 <__clzdi2+0xac>
   10744:	2a7130ef          	jal	241ea <puts>
   10748:	0002e537          	lui	a0,0x2e
   1074c:	f0050513          	addi	a0,a0,-256 # 2df00 <__clzdi2+0xcc>
   10750:	29b130ef          	jal	241ea <puts>
   10754:	0002e537          	lui	a0,0x2e
   10758:	f2850513          	addi	a0,a0,-216 # 2df28 <__clzdi2+0xf4>
   1075c:	28f130ef          	jal	241ea <puts>
   10760:	0002e537          	lui	a0,0x2e
   10764:	f5850513          	addi	a0,a0,-168 # 2df58 <__clzdi2+0x124>
   10768:	283130ef          	jal	241ea <puts>
   1076c:	0002e537          	lui	a0,0x2e
   10770:	f7050513          	addi	a0,a0,-144 # 2df70 <__clzdi2+0x13c>
   10774:	277130ef          	jal	241ea <puts>
   10778:	0002e537          	lui	a0,0x2e
   1077c:	f8850513          	addi	a0,a0,-120 # 2df88 <__clzdi2+0x154>
   10780:	26b130ef          	jal	241ea <puts>
   10784:	0002e537          	lui	a0,0x2e
   10788:	fa050513          	addi	a0,a0,-96 # 2dfa0 <__clzdi2+0x16c>
   1078c:	25f130ef          	jal	241ea <puts>
   10790:	4529                	li	a0,10
   10792:	1c3130ef          	jal	24154 <putchar>
   10796:	60a2                	ld	ra,8(sp)
   10798:	0141                	addi	sp,sp,16
   1079a:	8082                	ret

000000000001079c <_Z14parseArgumentsiPPc>:
   1079c:	7159                	addi	sp,sp,-112
   1079e:	f486                	sd	ra,104(sp)
   107a0:	10a05c63          	blez	a0,108b8 <_Z14parseArgumentsiPPc+0x11c>
   107a4:	f0a2                	sd	s0,96(sp)
   107a6:	eca6                	sd	s1,88(sp)
   107a8:	e8ca                	sd	s2,80(sp)
   107aa:	e4ce                	sd	s3,72(sp)
   107ac:	e0d2                	sd	s4,64(sp)
   107ae:	fc56                	sd	s5,56(sp)
   107b0:	f85a                	sd	s6,48(sp)
   107b2:	f45e                	sd	s7,40(sp)
   107b4:	f062                	sd	s8,32(sp)
   107b6:	ec66                	sd	s9,24(sp)
   107b8:	e86a                	sd	s10,16(sp)
   107ba:	e46e                	sd	s11,8(sp)
   107bc:	8a2a                	mv	s4,a0
   107be:	89ae                	mv	s3,a1
   107c0:	4401                	li	s0,0
   107c2:	0002eab7          	lui	s5,0x2e
   107c6:	0002ec37          	lui	s8,0x2e
   107ca:	0002ed37          	lui	s10,0x2e
   107ce:	0002edb7          	lui	s11,0x2e
   107d2:	a839                	j	107f0 <_Z14parseArgumentsiPPc+0x54>
   107d4:	fe0c0593          	addi	a1,s8,-32 # 2dfe0 <__clzdi2+0x1ac>
   107d8:	854a                	mv	a0,s2
   107da:	6c1140ef          	jal	2569a <strcmp>
   107de:	ed0d                	bnez	a0,10818 <_Z14parseArgumentsiPPc+0x7c>
   107e0:	2405                	addiw	s0,s0,1
   107e2:	94ce                	add	s1,s1,s3
   107e4:	649c                	ld	a5,8(s1)
   107e6:	12f1b023          	sd	a5,288(gp) # 3a030 <outputFile>
   107ea:	2405                	addiw	s0,s0,1
   107ec:	0b445a63          	bge	s0,s4,108a0 <_Z14parseArgumentsiPPc+0x104>
   107f0:	00341493          	slli	s1,s0,0x3
   107f4:	009987b3          	add	a5,s3,s1
   107f8:	0007b903          	ld	s2,0(a5)
   107fc:	fd8a8593          	addi	a1,s5,-40 # 2dfd8 <__clzdi2+0x1a4>
   10800:	854a                	mv	a0,s2
   10802:	699140ef          	jal	2569a <strcmp>
   10806:	f579                	bnez	a0,107d4 <_Z14parseArgumentsiPPc+0x38>
   10808:	1001ac23          	sw	zero,280(gp) # 3a028 <staticInputImage>
   1080c:	2405                	addiw	s0,s0,1
   1080e:	94ce                	add	s1,s1,s3
   10810:	649c                	ld	a5,8(s1)
   10812:	12f1b423          	sd	a5,296(gp) # 3a038 <inputFile>
   10816:	bfd1                	j	107ea <_Z14parseArgumentsiPPc+0x4e>
   10818:	fe8d0593          	addi	a1,s10,-24 # 2dfe8 <__clzdi2+0x1b4>
   1081c:	854a                	mv	a0,s2
   1081e:	67d140ef          	jal	2569a <strcmp>
   10822:	e509                	bnez	a0,1082c <_Z14parseArgumentsiPPc+0x90>
   10824:	4705                	li	a4,1
   10826:	10e1ae23          	sw	a4,284(gp) # 3a02c <verbose>
   1082a:	b7c1                	j	107ea <_Z14parseArgumentsiPPc+0x4e>
   1082c:	ff0d8593          	addi	a1,s11,-16 # 2dff0 <__clzdi2+0x1bc>
   10830:	854a                	mv	a0,s2
   10832:	669140ef          	jal	2569a <strcmp>
   10836:	e509                	bnez	a0,10840 <_Z14parseArgumentsiPPc+0xa4>
   10838:	4705                	li	a4,1
   1083a:	10e1ac23          	sw	a4,280(gp) # 3a028 <staticInputImage>
   1083e:	b775                	j	107ea <_Z14parseArgumentsiPPc+0x4e>
   10840:	0002e5b7          	lui	a1,0x2e
   10844:	ff858593          	addi	a1,a1,-8 # 2dff8 <__clzdi2+0x1c4>
   10848:	854a                	mv	a0,s2
   1084a:	651140ef          	jal	2569a <strcmp>
   1084e:	e509                	bnez	a0,10858 <_Z14parseArgumentsiPPc+0xbc>
   10850:	4705                	li	a4,1
   10852:	10e1aa23          	sw	a4,276(gp) # 3a024 <staticOutputStream>
   10856:	bf51                	j	107ea <_Z14parseArgumentsiPPc+0x4e>
   10858:	0002e5b7          	lui	a1,0x2e
   1085c:	00058593          	mv	a1,a1
   10860:	854a                	mv	a0,s2
   10862:	639140ef          	jal	2569a <strcmp>
   10866:	e509                	bnez	a0,10870 <_Z14parseArgumentsiPPc+0xd4>
   10868:	4705                	li	a4,1
   1086a:	10e1a823          	sw	a4,272(gp) # 3a020 <reportTime>
   1086e:	bfb5                	j	107ea <_Z14parseArgumentsiPPc+0x4e>
   10870:	0002e5b7          	lui	a1,0x2e
   10874:	00858593          	addi	a1,a1,8 # 2e008 <__clzdi2+0x1d4>
   10878:	854a                	mv	a0,s2
   1087a:	621140ef          	jal	2569a <strcmp>
   1087e:	e509                	bnez	a0,10888 <_Z14parseArgumentsiPPc+0xec>
   10880:	4705                	li	a4,1
   10882:	10e1a623          	sw	a4,268(gp) # 3a01c <testPower>
   10886:	b795                	j	107ea <_Z14parseArgumentsiPPc+0x4e>
   10888:	0002e5b7          	lui	a1,0x2e
   1088c:	01058593          	addi	a1,a1,16 # 2e010 <__clzdi2+0x1dc>
   10890:	854a                	mv	a0,s2
   10892:	609140ef          	jal	2569a <strcmp>
   10896:	f931                	bnez	a0,107ea <_Z14parseArgumentsiPPc+0x4e>
   10898:	4705                	li	a4,1
   1089a:	10e1a423          	sw	a4,264(gp) # 3a018 <useCustomInstructionsForYUV>
   1089e:	b7b1                	j	107ea <_Z14parseArgumentsiPPc+0x4e>
   108a0:	7406                	ld	s0,96(sp)
   108a2:	64e6                	ld	s1,88(sp)
   108a4:	6946                	ld	s2,80(sp)
   108a6:	69a6                	ld	s3,72(sp)
   108a8:	6a06                	ld	s4,64(sp)
   108aa:	7ae2                	ld	s5,56(sp)
   108ac:	7b42                	ld	s6,48(sp)
   108ae:	7ba2                	ld	s7,40(sp)
   108b0:	7c02                	ld	s8,32(sp)
   108b2:	6ce2                	ld	s9,24(sp)
   108b4:	6d42                	ld	s10,16(sp)
   108b6:	6da2                	ld	s11,8(sp)
   108b8:	1281b783          	ld	a5,296(gp) # 3a038 <inputFile>
   108bc:	cb81                	beqz	a5,108cc <_Z14parseArgumentsiPPc+0x130>
   108be:	1201b783          	ld	a5,288(gp) # 3a030 <outputFile>
   108c2:	4501                	li	a0,0
   108c4:	cf99                	beqz	a5,108e2 <_Z14parseArgumentsiPPc+0x146>
   108c6:	70a6                	ld	ra,104(sp)
   108c8:	6165                	addi	sp,sp,112
   108ca:	8082                	ret
   108cc:	1181a783          	lw	a5,280(gp) # 3a028 <staticInputImage>
   108d0:	f7fd                	bnez	a5,108be <_Z14parseArgumentsiPPc+0x122>
   108d2:	0002e537          	lui	a0,0x2e
   108d6:	01850513          	addi	a0,a0,24 # 2e018 <__clzdi2+0x1e4>
   108da:	111130ef          	jal	241ea <puts>
   108de:	4505                	li	a0,1
   108e0:	b7dd                	j	108c6 <_Z14parseArgumentsiPPc+0x12a>
   108e2:	1141a783          	lw	a5,276(gp) # 3a024 <staticOutputStream>
   108e6:	f3e5                	bnez	a5,108c6 <_Z14parseArgumentsiPPc+0x12a>
   108e8:	0002e537          	lui	a0,0x2e
   108ec:	03050513          	addi	a0,a0,48 # 2e030 <__clzdi2+0x1fc>
   108f0:	0fb130ef          	jal	241ea <puts>
   108f4:	4505                	li	a0,1
   108f6:	bfc1                	j	108c6 <_Z14parseArgumentsiPPc+0x12a>

00000000000108f8 <main>:
   108f8:	a5010113          	addi	sp,sp,-1456
   108fc:	5a113423          	sd	ra,1448(sp)
   10900:	5a813023          	sd	s0,1440(sp)
   10904:	58913c23          	sd	s1,1432(sp)
   10908:	59213823          	sd	s2,1424(sp)
   1090c:	59313423          	sd	s3,1416(sp)
   10910:	59413023          	sd	s4,1408(sp)
   10914:	56813c27          	fsd	fs0,1400(sp)
   10918:	72fd                	lui	t0,0xfffff
   1091a:	9116                	add	sp,sp,t0
   1091c:	842a                	mv	s0,a0
   1091e:	84ae                	mv	s1,a1
   10920:	0002e537          	lui	a0,0x2e
   10924:	04850513          	addi	a0,a0,72 # 2e048 <__clzdi2+0x214>
   10928:	0c3130ef          	jal	241ea <puts>
   1092c:	85a6                	mv	a1,s1
   1092e:	8522                	mv	a0,s0
   10930:	e6dff0ef          	jal	1079c <_Z14parseArgumentsiPPc>
   10934:	e149                	bnez	a0,109b6 <main+0xbe>
   10936:	1181a783          	lw	a5,280(gp) # 3a028 <staticInputImage>
   1093a:	c3d9                	beqz	a5,109c0 <main+0xc8>
   1093c:	4541                	li	a0,16
   1093e:	731030ef          	jal	1486e <_Znwm>
   10942:	892a                	mv	s2,a0
   10944:	0002f7b7          	lui	a5,0x2f
   10948:	7d878793          	addi	a5,a5,2008 # 2f7d8 <_ZTV13EmbeddedImage+0x10>
   1094c:	e11c                	sd	a5,0(a0)
   1094e:	02000793          	li	a5,32
   10952:	c51c                	sw	a5,8(a0)
   10954:	c55c                	sw	a5,12(a0)
   10956:	0002f7b7          	lui	a5,0x2f
   1095a:	7d87b783          	ld	a5,2008(a5) # 2f7d8 <_ZTV13EmbeddedImage+0x10>
   1095e:	9782                	jalr	a5
   10960:	842a                	mv	s0,a0
   10962:	00093783          	ld	a5,0(s2)
   10966:	679c                	ld	a5,8(a5)
   10968:	854a                	mv	a0,s2
   1096a:	9782                	jalr	a5
   1096c:	862a                	mv	a2,a0
   1096e:	85a2                	mv	a1,s0
   10970:	0002e537          	lui	a0,0x2e
   10974:	07850513          	addi	a0,a0,120 # 2e078 <__clzdi2+0x244>
   10978:	6e6130ef          	jal	2405e <printf>
   1097c:	74fd                	lui	s1,0xfffff
   1097e:	ab848493          	addi	s1,s1,-1352 # ffffffffffffeab8 <__BSS_END__+0xfffffffffffc43a8>
   10982:	6785                	lui	a5,0x1
   10984:	56078713          	addi	a4,a5,1376 # 1560 <__cxa_bad_cast-0xeb88>
   10988:	9726                	add	a4,a4,s1
   1098a:	0814                	addi	a3,sp,16
   1098c:	00d704b3          	add	s1,a4,a3
   10990:	79fd                	lui	s3,0xfffff
   10992:	aa898993          	addi	s3,s3,-1368 # ffffffffffffeaa8 <__BSS_END__+0xfffffffffffc4398>
   10996:	56078713          	addi	a4,a5,1376
   1099a:	974e                	add	a4,a4,s3
   1099c:	00d709b3          	add	s3,a4,a3
   109a0:	7a7d                	lui	s4,0xfffff
   109a2:	ab0a0a13          	addi	s4,s4,-1360 # ffffffffffffeab0 <__BSS_END__+0xfffffffffffc43a0>
   109a6:	56078793          	addi	a5,a5,1376
   109aa:	97d2                	add	a5,a5,s4
   109ac:	00d78a33          	add	s4,a5,a3
   109b0:	e281b407          	fld	fs0,-472(gp) # 39d38 <__SDATA_BEGIN__>
   109b4:	a231                	j	10ac0 <main+0x1c8>
   109b6:	d53ff0ef          	jal	10708 <_Z5usagev>
   109ba:	557d                	li	a0,-1
   109bc:	b43ff0ef          	jal	104fe <exit>
   109c0:	0a000513          	li	a0,160
   109c4:	6ab030ef          	jal	1486e <_Znwm>
   109c8:	892a                	mv	s2,a0
   109ca:	296000ef          	jal	10c60 <_ZN7CBitmapC1Ev>
   109ce:	1281b583          	ld	a1,296(gp) # 3a038 <inputFile>
   109d2:	854a                	mv	a0,s2
   109d4:	2f4000ef          	jal	10cc8 <_ZN7CBitmap4loadEPc>
   109d8:	c911                	beqz	a0,109ec <main+0xf4>
   109da:	1281b583          	ld	a1,296(gp) # 3a038 <inputFile>
   109de:	0002e537          	lui	a0,0x2e
   109e2:	0a050513          	addi	a0,a0,160 # 2e0a0 <__clzdi2+0x26c>
   109e6:	678130ef          	jal	2405e <printf>
   109ea:	bf49                	j	1097c <main+0x84>
   109ec:	1281b583          	ld	a1,296(gp) # 3a038 <inputFile>
   109f0:	0002e537          	lui	a0,0x2e
   109f4:	0b050513          	addi	a0,a0,176 # 2e0b0 <__clzdi2+0x27c>
   109f8:	666130ef          	jal	2405e <printf>
   109fc:	4505                	li	a0,1
   109fe:	b01ff0ef          	jal	104fe <exit>
   10a02:	4541                	li	a0,16
   10a04:	66b030ef          	jal	1486e <_Znwm>
   10a08:	842a                	mv	s0,a0
   10a0a:	1201b583          	ld	a1,288(gp) # 3a030 <outputFile>
   10a0e:	1c8000ef          	jal	10bd6 <_ZN16FileOutputStreamC1EPc>
   10a12:	1201b583          	ld	a1,288(gp) # 3a030 <outputFile>
   10a16:	0002e537          	lui	a0,0x2e
   10a1a:	0c850513          	addi	a0,a0,200 # 2e0c8 <__clzdi2+0x294>
   10a1e:	640130ef          	jal	2405e <printf>
   10a22:	86a2                	mv	a3,s0
   10a24:	05000613          	li	a2,80
   10a28:	85ca                	mv	a1,s2
   10a2a:	8526                	mv	a0,s1
   10a2c:	1f5000ef          	jal	11420 <_ZN11JpegEncoderC1EP5ImageiP12OutputStream>
   10a30:	1101a783          	lw	a5,272(gp) # 3a020 <reportTime>
   10a34:	c781                	beqz	a5,10a3c <main+0x144>
   10a36:	854e                	mv	a0,s3
   10a38:	360030ef          	jal	13d98 <_Z11perfCounterPy>
   10a3c:	8526                	mv	a0,s1
   10a3e:	1a4010ef          	jal	11be2 <_ZN11JpegEncoder8CompressEv>
   10a42:	1101a783          	lw	a5,272(gp) # 3a020 <reportTime>
   10a46:	c781                	beqz	a5,10a4e <main+0x156>
   10a48:	8552                	mv	a0,s4
   10a4a:	34e030ef          	jal	13d98 <_Z11perfCounterPy>
   10a4e:	0002e537          	lui	a0,0x2e
   10a52:	0e850513          	addi	a0,a0,232 # 2e0e8 <__clzdi2+0x2b4>
   10a56:	794130ef          	jal	241ea <puts>
   10a5a:	1101a783          	lw	a5,272(gp) # 3a020 <reportTime>
   10a5e:	e791                	bnez	a5,10a6a <main+0x172>
   10a60:	601c                	ld	a5,0(s0)
   10a62:	6f9c                	ld	a5,24(a5)
   10a64:	8522                	mv	a0,s0
   10a66:	9782                	jalr	a5
   10a68:	a825                	j	10aa0 <main+0x1a8>
   10a6a:	77fd                	lui	a5,0xfffff
   10a6c:	6705                	lui	a4,0x1
   10a6e:	56070713          	addi	a4,a4,1376 # 1560 <__cxa_bad_cast-0xeb88>
   10a72:	973e                	add	a4,a4,a5
   10a74:	081c                	addi	a5,sp,16
   10a76:	97ba                	add	a5,a5,a4
   10a78:	e43e                	sd	a5,8(sp)
   10a7a:	ab07b583          	ld	a1,-1360(a5) # ffffffffffffeab0 <__BSS_END__+0xfffffffffffc43a0>
   10a7e:	aa87b503          	ld	a0,-1368(a5)
   10a82:	37e030ef          	jal	13e00 <_Z18secondsBetweenLapsyy>
   10a86:	1aa477d3          	fdiv.d	fa5,fs0,fa0
   10a8a:	e2078653          	fmv.x.d	a2,fa5
   10a8e:	e20505d3          	fmv.x.d	a1,fa0
   10a92:	0002e537          	lui	a0,0x2e
   10a96:	0f050513          	addi	a0,a0,240 # 2e0f0 <__clzdi2+0x2bc>
   10a9a:	5c4130ef          	jal	2405e <printf>
   10a9e:	b7c9                	j	10a60 <main+0x168>
   10aa0:	0002e537          	lui	a0,0x2e
   10aa4:	12050513          	addi	a0,a0,288 # 2e120 <__clzdi2+0x2ec>
   10aa8:	742130ef          	jal	241ea <puts>
   10aac:	45a1                	li	a1,8
   10aae:	8522                	mv	a0,s0
   10ab0:	580030ef          	jal	14030 <_ZdlPvm>
   10ab4:	10c1a783          	lw	a5,268(gp) # 3a01c <testPower>
   10ab8:	cbbd                	beqz	a5,10b2e <main+0x236>
   10aba:	8526                	mv	a0,s1
   10abc:	0ff000ef          	jal	113ba <_ZN11JpegEncoderD1Ev>
   10ac0:	1141a783          	lw	a5,276(gp) # 3a024 <staticOutputStream>
   10ac4:	f2078fe3          	beqz	a5,10a02 <main+0x10a>
   10ac8:	4561                	li	a0,24
   10aca:	5a5030ef          	jal	1486e <_Znwm>
   10ace:	842a                	mv	s0,a0
   10ad0:	65ad                	lui	a1,0xb
   10ad2:	3b058593          	addi	a1,a1,944 # b3b0 <__cxa_bad_cast-0x4d38>
   10ad6:	294030ef          	jal	13d6a <_ZN21ByteArrayOutputStreamC1Ei>
   10ada:	b7a1                	j	10a22 <main+0x12a>
   10adc:	842a                	mv	s0,a0
   10ade:	0a000593          	li	a1,160
   10ae2:	854a                	mv	a0,s2
   10ae4:	54c030ef          	jal	14030 <_ZdlPvm>
   10ae8:	8522                	mv	a0,s0
   10aea:	624100ef          	jal	2110e <_Unwind_Resume>
   10aee:	84aa                	mv	s1,a0
   10af0:	45e1                	li	a1,24
   10af2:	8522                	mv	a0,s0
   10af4:	53c030ef          	jal	14030 <_ZdlPvm>
   10af8:	8526                	mv	a0,s1
   10afa:	614100ef          	jal	2110e <_Unwind_Resume>
   10afe:	84aa                	mv	s1,a0
   10b00:	45c1                	li	a1,16
   10b02:	8522                	mv	a0,s0
   10b04:	52c030ef          	jal	14030 <_ZdlPvm>
   10b08:	8526                	mv	a0,s1
   10b0a:	604100ef          	jal	2110e <_Unwind_Resume>
   10b0e:	842a                	mv	s0,a0
   10b10:	757d                	lui	a0,0xfffff
   10b12:	ab850513          	addi	a0,a0,-1352 # ffffffffffffeab8 <__BSS_END__+0xfffffffffffc43a8>
   10b16:	6785                	lui	a5,0x1
   10b18:	56078793          	addi	a5,a5,1376 # 1560 <__cxa_bad_cast-0xeb88>
   10b1c:	97aa                	add	a5,a5,a0
   10b1e:	0818                	addi	a4,sp,16
   10b20:	00e78533          	add	a0,a5,a4
   10b24:	097000ef          	jal	113ba <_ZN11JpegEncoderD1Ev>
   10b28:	8522                	mv	a0,s0
   10b2a:	5e4100ef          	jal	2110e <_Unwind_Resume>
   10b2e:	757d                	lui	a0,0xfffff
   10b30:	ab850513          	addi	a0,a0,-1352 # ffffffffffffeab8 <__BSS_END__+0xfffffffffffc43a8>
   10b34:	6785                	lui	a5,0x1
   10b36:	56078793          	addi	a5,a5,1376 # 1560 <__cxa_bad_cast-0xeb88>
   10b3a:	97aa                	add	a5,a5,a0
   10b3c:	0818                	addi	a4,sp,16
   10b3e:	00e78533          	add	a0,a5,a4
   10b42:	079000ef          	jal	113ba <_ZN11JpegEncoderD1Ev>
   10b46:	4501                	li	a0,0
   10b48:	6285                	lui	t0,0x1
   10b4a:	9116                	add	sp,sp,t0
   10b4c:	5a813083          	ld	ra,1448(sp)
   10b50:	5a013403          	ld	s0,1440(sp)
   10b54:	59813483          	ld	s1,1432(sp)
   10b58:	59013903          	ld	s2,1424(sp)
   10b5c:	58813983          	ld	s3,1416(sp)
   10b60:	58013a03          	ld	s4,1408(sp)
   10b64:	57813407          	fld	fs0,1400(sp)
   10b68:	5b010113          	addi	sp,sp,1456
   10b6c:	8082                	ret

0000000000010b6e <_ZN16FileOutputStream5flushEv>:
   10b6e:	6508                	ld	a0,8(a0)
   10b70:	c901                	beqz	a0,10b80 <_ZN16FileOutputStream5flushEv+0x12>
   10b72:	1141                	addi	sp,sp,-16
   10b74:	e406                	sd	ra,8(sp)
   10b76:	14f120ef          	jal	234c4 <fflush>
   10b7a:	60a2                	ld	ra,8(sp)
   10b7c:	0141                	addi	sp,sp,16
   10b7e:	8082                	ret
   10b80:	8082                	ret

0000000000010b82 <_ZN16FileOutputStream5writeEPhii>:
   10b82:	1141                	addi	sp,sp,-16
   10b84:	e406                	sd	ra,8(sp)
   10b86:	872e                	mv	a4,a1
   10b88:	87b2                	mv	a5,a2
   10b8a:	8636                	mv	a2,a3
   10b8c:	6514                	ld	a3,8(a0)
   10b8e:	4585                	li	a1,1
   10b90:	00f70533          	add	a0,a4,a5
   10b94:	40a130ef          	jal	23f9e <fwrite>
   10b98:	60a2                	ld	ra,8(sp)
   10b9a:	0141                	addi	sp,sp,16
   10b9c:	8082                	ret

0000000000010b9e <_ZN16FileOutputStream5writeEi>:
   10b9e:	1101                	addi	sp,sp,-32
   10ba0:	ec06                	sd	ra,24(sp)
   10ba2:	00b107a3          	sb	a1,15(sp)
   10ba6:	6514                	ld	a3,8(a0)
   10ba8:	4605                	li	a2,1
   10baa:	4585                	li	a1,1
   10bac:	00f10513          	addi	a0,sp,15
   10bb0:	3ee130ef          	jal	23f9e <fwrite>
   10bb4:	60e2                	ld	ra,24(sp)
   10bb6:	6105                	addi	sp,sp,32
   10bb8:	8082                	ret

0000000000010bba <_ZN16FileOutputStream5closeEv>:
   10bba:	1141                	addi	sp,sp,-16
   10bbc:	e406                	sd	ra,8(sp)
   10bbe:	e022                	sd	s0,0(sp)
   10bc0:	842a                	mv	s0,a0
   10bc2:	6508                	ld	a0,8(a0)
   10bc4:	c119                	beqz	a0,10bca <_ZN16FileOutputStream5closeEv+0x10>
   10bc6:	728120ef          	jal	232ee <fclose>
   10bca:	00043423          	sd	zero,8(s0)
   10bce:	60a2                	ld	ra,8(sp)
   10bd0:	6402                	ld	s0,0(sp)
   10bd2:	0141                	addi	sp,sp,16
   10bd4:	8082                	ret

0000000000010bd6 <_ZN16FileOutputStreamC1EPc>:
   10bd6:	1141                	addi	sp,sp,-16
   10bd8:	e406                	sd	ra,8(sp)
   10bda:	e022                	sd	s0,0(sp)
   10bdc:	842a                	mv	s0,a0
   10bde:	852e                	mv	a0,a1
   10be0:	0002f7b7          	lui	a5,0x2f
   10be4:	56078793          	addi	a5,a5,1376 # 2f560 <_ZTV16FileOutputStream+0x10>
   10be8:	e01c                	sd	a5,0(s0)
   10bea:	0002e5b7          	lui	a1,0x2e
   10bee:	13858593          	addi	a1,a1,312 # 2e138 <__clzdi2+0x304>
   10bf2:	45d120ef          	jal	2384e <fopen>
   10bf6:	e408                	sd	a0,8(s0)
   10bf8:	60a2                	ld	ra,8(sp)
   10bfa:	6402                	ld	s0,0(sp)
   10bfc:	0141                	addi	sp,sp,16
   10bfe:	8082                	ret

0000000000010c00 <_ZN16FileOutputStreamD1Ev>:
   10c00:	1141                	addi	sp,sp,-16
   10c02:	e406                	sd	ra,8(sp)
   10c04:	e022                	sd	s0,0(sp)
   10c06:	842a                	mv	s0,a0
   10c08:	0002f7b7          	lui	a5,0x2f
   10c0c:	56078793          	addi	a5,a5,1376 # 2f560 <_ZTV16FileOutputStream+0x10>
   10c10:	e11c                	sd	a5,0(a0)
   10c12:	f5dff0ef          	jal	10b6e <_ZN16FileOutputStream5flushEv>
   10c16:	8522                	mv	a0,s0
   10c18:	fa3ff0ef          	jal	10bba <_ZN16FileOutputStream5closeEv>
   10c1c:	60a2                	ld	ra,8(sp)
   10c1e:	6402                	ld	s0,0(sp)
   10c20:	0141                	addi	sp,sp,16
   10c22:	8082                	ret

0000000000010c24 <_ZN7CBitmapD1Ev>:
   10c24:	0002f7b7          	lui	a5,0x2f
   10c28:	5c878793          	addi	a5,a5,1480 # 2f5c8 <_ZTV7CBitmap+0x10>
   10c2c:	e11c                	sd	a5,0(a0)
   10c2e:	6548                	ld	a0,136(a0)
   10c30:	c901                	beqz	a0,10c40 <_ZN7CBitmapD1Ev+0x1c>
   10c32:	1141                	addi	sp,sp,-16
   10c34:	e406                	sd	ra,8(sp)
   10c36:	3fe030ef          	jal	14034 <_ZdaPv>
   10c3a:	60a2                	ld	ra,8(sp)
   10c3c:	0141                	addi	sp,sp,16
   10c3e:	8082                	ret
   10c40:	8082                	ret

0000000000010c42 <_ZN7CBitmapD0Ev>:
   10c42:	1141                	addi	sp,sp,-16
   10c44:	e406                	sd	ra,8(sp)
   10c46:	e022                	sd	s0,0(sp)
   10c48:	842a                	mv	s0,a0
   10c4a:	fdbff0ef          	jal	10c24 <_ZN7CBitmapD1Ev>
   10c4e:	0a000593          	li	a1,160
   10c52:	8522                	mv	a0,s0
   10c54:	3dc030ef          	jal	14030 <_ZdlPvm>
   10c58:	60a2                	ld	ra,8(sp)
   10c5a:	6402                	ld	s0,0(sp)
   10c5c:	0141                	addi	sp,sp,16
   10c5e:	8082                	ret

0000000000010c60 <_ZN7CBitmapC1Ev>:
   10c60:	1141                	addi	sp,sp,-16
   10c62:	e406                	sd	ra,8(sp)
   10c64:	0002f7b7          	lui	a5,0x2f
   10c68:	5c878793          	addi	a5,a5,1480 # 2f5c8 <_ZTV7CBitmap+0x10>
   10c6c:	e11c                	sd	a5,0(a0)
   10c6e:	08053423          	sd	zero,136(a0)
   10c72:	08052823          	sw	zero,144(a0)
   10c76:	08052a23          	sw	zero,148(a0)
   10c7a:	08052c23          	sw	zero,152(a0)
   10c7e:	00050423          	sb	zero,8(a0)
   10c82:	000504a3          	sb	zero,9(a0)
   10c86:	00050523          	sb	zero,10(a0)
   10c8a:	000505a3          	sb	zero,11(a0)
   10c8e:	00050623          	sb	zero,12(a0)
   10c92:	000506a3          	sb	zero,13(a0)
   10c96:	00050723          	sb	zero,14(a0)
   10c9a:	000507a3          	sb	zero,15(a0)
   10c9e:	00050823          	sb	zero,16(a0)
   10ca2:	000508a3          	sb	zero,17(a0)
   10ca6:	00050923          	sb	zero,18(a0)
   10caa:	000509a3          	sb	zero,19(a0)
   10cae:	00050a23          	sb	zero,20(a0)
   10cb2:	00050aa3          	sb	zero,21(a0)
   10cb6:	06c00613          	li	a2,108
   10cba:	4581                	li	a1,0
   10cbc:	0559                	addi	a0,a0,22
   10cbe:	69c140ef          	jal	2535a <memset>
   10cc2:	60a2                	ld	ra,8(sp)
   10cc4:	0141                	addi	sp,sp,16
   10cc6:	8082                	ret

0000000000010cc8 <_ZN7CBitmap4loadEPc>:
   10cc8:	7179                	addi	sp,sp,-48
   10cca:	f406                	sd	ra,40(sp)
   10ccc:	f022                	sd	s0,32(sp)
   10cce:	ec26                	sd	s1,24(sp)
   10cd0:	e84a                	sd	s2,16(sp)
   10cd2:	e44e                	sd	s3,8(sp)
   10cd4:	84aa                	mv	s1,a0
   10cd6:	852e                	mv	a0,a1
   10cd8:	0002e5b7          	lui	a1,0x2e
   10cdc:	14058593          	addi	a1,a1,320 # 2e140 <__clzdi2+0x30c>
   10ce0:	36f120ef          	jal	2384e <fopen>
   10ce4:	892a                	mv	s2,a0
   10ce6:	64c8                	ld	a0,136(s1)
   10ce8:	c119                	beqz	a0,10cee <_ZN7CBitmap4loadEPc+0x26>
   10cea:	34a030ef          	jal	14034 <_ZdaPv>
   10cee:	0804b423          	sd	zero,136(s1)
   10cf2:	00848413          	addi	s0,s1,8
   10cf6:	00048423          	sb	zero,8(s1)
   10cfa:	000400a3          	sb	zero,1(s0)
   10cfe:	00040123          	sb	zero,2(s0)
   10d02:	000401a3          	sb	zero,3(s0)
   10d06:	00040223          	sb	zero,4(s0)
   10d0a:	000402a3          	sb	zero,5(s0)
   10d0e:	00040323          	sb	zero,6(s0)
   10d12:	000403a3          	sb	zero,7(s0)
   10d16:	00040423          	sb	zero,8(s0)
   10d1a:	000404a3          	sb	zero,9(s0)
   10d1e:	00040523          	sb	zero,10(s0)
   10d22:	000405a3          	sb	zero,11(s0)
   10d26:	00040623          	sb	zero,12(s0)
   10d2a:	000406a3          	sb	zero,13(s0)
   10d2e:	01648993          	addi	s3,s1,22
   10d32:	06c00613          	li	a2,108
   10d36:	4581                	li	a1,0
   10d38:	854e                	mv	a0,s3
   10d3a:	620140ef          	jal	2535a <memset>
   10d3e:	0804aa23          	sw	zero,148(s1)
   10d42:	0804ac23          	sw	zero,152(s1)
   10d46:	04090063          	beqz	s2,10d86 <_ZN7CBitmap4loadEPc+0xbe>
   10d4a:	86ca                	mv	a3,s2
   10d4c:	4605                	li	a2,1
   10d4e:	45b9                	li	a1,14
   10d50:	8522                	mv	a0,s0
   10d52:	5ad120ef          	jal	23afe <fread>
   10d56:	0084d583          	lhu	a1,8(s1)
   10d5a:	0005871b          	sext.w	a4,a1
   10d5e:	6795                	lui	a5,0x5
   10d60:	d4278793          	addi	a5,a5,-702 # 4d42 <__cxa_bad_cast-0xb3a6>
   10d64:	02f70963          	beq	a4,a5,10d96 <_ZN7CBitmap4loadEPc+0xce>
   10d68:	863e                	mv	a2,a5
   10d6a:	0002e537          	lui	a0,0x2e
   10d6e:	16050513          	addi	a0,a0,352 # 2e160 <__clzdi2+0x32c>
   10d72:	2ec130ef          	jal	2405e <printf>
   10d76:	4501                	li	a0,0
   10d78:	70a2                	ld	ra,40(sp)
   10d7a:	7402                	ld	s0,32(sp)
   10d7c:	64e2                	ld	s1,24(sp)
   10d7e:	6942                	ld	s2,16(sp)
   10d80:	69a2                	ld	s3,8(sp)
   10d82:	6145                	addi	sp,sp,48
   10d84:	8082                	ret
   10d86:	0002e537          	lui	a0,0x2e
   10d8a:	14850513          	addi	a0,a0,328 # 2e148 <__clzdi2+0x314>
   10d8e:	45c130ef          	jal	241ea <puts>
   10d92:	4501                	li	a0,0
   10d94:	b7d5                	j	10d78 <_ZN7CBitmap4loadEPc+0xb0>
   10d96:	86ca                	mv	a3,s2
   10d98:	4605                	li	a2,1
   10d9a:	06c00593          	li	a1,108
   10d9e:	854e                	mv	a0,s3
   10da0:	55f120ef          	jal	23afe <fread>
   10da4:	0244d583          	lhu	a1,36(s1)
   10da8:	0005871b          	sext.w	a4,a1
   10dac:	47e1                	li	a5,24
   10dae:	08f71963          	bne	a4,a5,10e40 <_ZN7CBitmap4loadEPc+0x178>
   10db2:	0264d703          	lhu	a4,38(s1)
   10db6:	0284d783          	lhu	a5,40(s1)
   10dba:	07c2                	slli	a5,a5,0x10
   10dbc:	8fd9                	or	a5,a5,a4
   10dbe:	4501                	li	a0,0
   10dc0:	ffc5                	bnez	a5,10d78 <_ZN7CBitmap4loadEPc+0xb0>
   10dc2:	6c9c                	ld	a5,24(s1)
   10dc4:	01079713          	slli	a4,a5,0x10
   10dc8:	9701                	srai	a4,a4,0x20
   10dca:	08e4aa23          	sw	a4,148(s1)
   10dce:	0307d713          	srli	a4,a5,0x30
   10dd2:	0204d783          	lhu	a5,32(s1)
   10dd6:	07c2                	slli	a5,a5,0x10
   10dd8:	8fd9                	or	a5,a5,a4
   10dda:	41f7d71b          	sraiw	a4,a5,0x1f
   10dde:	8fb9                	xor	a5,a5,a4
   10de0:	9f99                	subw	a5,a5,a4
   10de2:	08f4ac23          	sw	a5,152(s1)
   10de6:	609c                	ld	a5,0(s1)
   10de8:	639c                	ld	a5,0(a5)
   10dea:	8526                	mv	a0,s1
   10dec:	9782                	jalr	a5
   10dee:	842a                	mv	s0,a0
   10df0:	609c                	ld	a5,0(s1)
   10df2:	679c                	ld	a5,8(a5)
   10df4:	8526                	mv	a0,s1
   10df6:	9782                	jalr	a5
   10df8:	02a4053b          	mulw	a0,s0,a0
   10dfc:	08a4a823          	sw	a0,144(s1)
   10e00:	02051793          	slli	a5,a0,0x20
   10e04:	9381                	srli	a5,a5,0x20
   10e06:	00179513          	slli	a0,a5,0x1
   10e0a:	953e                	add	a0,a0,a5
   10e0c:	2ab030ef          	jal	148b6 <_Znam>
   10e10:	e4c8                	sd	a0,136(s1)
   10e12:	688c                	ld	a1,16(s1)
   10e14:	81c1                	srli	a1,a1,0x10
   10e16:	4601                	li	a2,0
   10e18:	1582                	slli	a1,a1,0x20
   10e1a:	9181                	srli	a1,a1,0x20
   10e1c:	854a                	mv	a0,s2
   10e1e:	4f7120ef          	jal	23b14 <fseek>
   10e22:	0904e783          	lwu	a5,144(s1)
   10e26:	00179593          	slli	a1,a5,0x1
   10e2a:	86ca                	mv	a3,s2
   10e2c:	4605                	li	a2,1
   10e2e:	95be                	add	a1,a1,a5
   10e30:	64c8                	ld	a0,136(s1)
   10e32:	4cd120ef          	jal	23afe <fread>
   10e36:	854a                	mv	a0,s2
   10e38:	4b6120ef          	jal	232ee <fclose>
   10e3c:	4505                	li	a0,1
   10e3e:	bf2d                	j	10d78 <_ZN7CBitmap4loadEPc+0xb0>
   10e40:	0002e537          	lui	a0,0x2e
   10e44:	18850513          	addi	a0,a0,392 # 2e188 <__clzdi2+0x354>
   10e48:	216130ef          	jal	2405e <printf>
   10e4c:	4501                	li	a0,0
   10e4e:	b72d                	j	10d78 <_ZN7CBitmap4loadEPc+0xb0>

0000000000010e50 <_ZN7CBitmapC1EPc>:
   10e50:	1141                	addi	sp,sp,-16
   10e52:	e406                	sd	ra,8(sp)
   10e54:	0002f737          	lui	a4,0x2f
   10e58:	5c870713          	addi	a4,a4,1480 # 2f5c8 <_ZTV7CBitmap+0x10>
   10e5c:	e118                	sd	a4,0(a0)
   10e5e:	08053423          	sd	zero,136(a0)
   10e62:	08052823          	sw	zero,144(a0)
   10e66:	08052a23          	sw	zero,148(a0)
   10e6a:	08052c23          	sw	zero,152(a0)
   10e6e:	e5bff0ef          	jal	10cc8 <_ZN7CBitmap4loadEPc>
   10e72:	60a2                	ld	ra,8(sp)
   10e74:	0141                	addi	sp,sp,16
   10e76:	8082                	ret

0000000000010e78 <_ZN7CBitmap4SaveEPc>:
   10e78:	7135                	addi	sp,sp,-160
   10e7a:	ed06                	sd	ra,152(sp)
   10e7c:	e526                	sd	s1,136(sp)
   10e7e:	84aa                	mv	s1,a0
   10e80:	852e                	mv	a0,a1
   10e82:	0002e5b7          	lui	a1,0x2e
   10e86:	13858593          	addi	a1,a1,312 # 2e138 <__clzdi2+0x304>
   10e8a:	1c5120ef          	jal	2384e <fopen>
   10e8e:	c569                	beqz	a0,10f58 <_ZN7CBitmap4SaveEPc+0xe0>
   10e90:	e922                	sd	s0,144(sp)
   10e92:	842a                	mv	s0,a0
   10e94:	f882                	sd	zero,112(sp)
   10e96:	dc82                	sw	zero,120(sp)
   10e98:	06011e23          	sh	zero,124(sp)
   10e9c:	06800613          	li	a2,104
   10ea0:	4581                	li	a1,0
   10ea2:	0048                	addi	a0,sp,4
   10ea4:	4b6140ef          	jal	2535a <memset>
   10ea8:	06c00793          	li	a5,108
   10eac:	c03e                	sw	a5,0(sp)
   10eae:	47e1                	li	a5,24
   10eb0:	00f11723          	sh	a5,14(sp)
   10eb4:	4785                	li	a5,1
   10eb6:	00f11623          	sh	a5,12(sp)
   10eba:	609c                	ld	a5,0(s1)
   10ebc:	679c                	ld	a5,8(a5)
   10ebe:	8526                	mv	a0,s1
   10ec0:	9782                	jalr	a5
   10ec2:	c42a                	sw	a0,8(sp)
   10ec4:	609c                	ld	a5,0(s1)
   10ec6:	639c                	ld	a5,0(a5)
   10ec8:	8526                	mv	a0,s1
   10eca:	9782                	jalr	a5
   10ecc:	c22a                	sw	a0,4(sp)
   10ece:	47a2                	lw	a5,8(sp)
   10ed0:	02a7853b          	mulw	a0,a5,a0
   10ed4:	00e15783          	lhu	a5,14(sp)
   10ed8:	02f5053b          	mulw	a0,a0,a5
   10edc:	41f5579b          	sraiw	a5,a0,0x1f
   10ee0:	01d7d79b          	srliw	a5,a5,0x1d
   10ee4:	9fa9                	addw	a5,a5,a0
   10ee6:	4037d79b          	sraiw	a5,a5,0x3
   10eea:	ca3e                	sw	a5,20(sp)
   10eec:	6705                	lui	a4,0x1
   10eee:	ec470713          	addi	a4,a4,-316 # ec4 <__cxa_bad_cast-0xf224>
   10ef2:	cc3a                	sw	a4,24(sp)
   10ef4:	ce3a                	sw	a4,28(sp)
   10ef6:	6715                	lui	a4,0x5
   10ef8:	d4270713          	addi	a4,a4,-702 # 4d42 <__cxa_bad_cast-0xb3a6>
   10efc:	06e11823          	sh	a4,112(sp)
   10f00:	07a00713          	li	a4,122
   10f04:	06e11d23          	sh	a4,122(sp)
   10f08:	06011e23          	sh	zero,124(sp)
   10f0c:	07a7879b          	addiw	a5,a5,122
   10f10:	06f11923          	sh	a5,114(sp)
   10f14:	0107d79b          	srliw	a5,a5,0x10
   10f18:	06f11a23          	sh	a5,116(sp)
   10f1c:	64c4                	ld	s1,136(s1)
   10f1e:	86a2                	mv	a3,s0
   10f20:	4605                	li	a2,1
   10f22:	45b9                	li	a1,14
   10f24:	1888                	addi	a0,sp,112
   10f26:	078130ef          	jal	23f9e <fwrite>
   10f2a:	86a2                	mv	a3,s0
   10f2c:	4605                	li	a2,1
   10f2e:	06c00593          	li	a1,108
   10f32:	850a                	mv	a0,sp
   10f34:	06a130ef          	jal	23f9e <fwrite>
   10f38:	86a2                	mv	a3,s0
   10f3a:	4605                	li	a2,1
   10f3c:	01416583          	lwu	a1,20(sp)
   10f40:	8526                	mv	a0,s1
   10f42:	05c130ef          	jal	23f9e <fwrite>
   10f46:	8522                	mv	a0,s0
   10f48:	3a6120ef          	jal	232ee <fclose>
   10f4c:	4505                	li	a0,1
   10f4e:	644a                	ld	s0,144(sp)
   10f50:	60ea                	ld	ra,152(sp)
   10f52:	64aa                	ld	s1,136(sp)
   10f54:	610d                	addi	sp,sp,160
   10f56:	8082                	ret
   10f58:	4501                	li	a0,0
   10f5a:	bfdd                	j	10f50 <_ZN7CBitmap4SaveEPc+0xd8>

0000000000010f5c <_ZN7CBitmap8GetBlockEjjjjP3BGR>:
   10f5c:	8faa                	mv	t6,a0
   10f5e:	00e6083b          	addw	a6,a2,a4
   10f62:	09852503          	lw	a0,152(a0)
   10f66:	09056963          	bltu	a0,a6,10ff8 <_ZN7CBitmap8GetBlockEjjjjP3BGR+0x9c>
   10f6a:	00d5883b          	addw	a6,a1,a3
   10f6e:	094fa883          	lw	a7,148(t6)
   10f72:	4501                	li	a0,0
   10f74:	0908e563          	bltu	a7,a6,10ffe <_ZN7CBitmap8GetBlockEjjjjP3BGR+0xa2>
   10f78:	c351                	beqz	a4,10ffc <_ZN7CBitmap8GetBlockEjjjjP3BGR+0xa0>
   10f7a:	4281                	li	t0,0
   10f7c:	098faf03          	lw	t5,152(t6)
   10f80:	3f7d                	addiw	t5,t5,-1
   10f82:	40cf0f3b          	subw	t5,t5,a2
   10f86:	40af0f3b          	subw	t5,t5,a0
   10f8a:	094fa803          	lw	a6,148(t6)
   10f8e:	030f0f3b          	mulw	t5,t5,a6
   10f92:	00bf0f3b          	addw	t5,t5,a1
   10f96:	000f039b          	sext.w	t2,t5
   10f9a:	caa1                	beqz	a3,10fea <_ZN7CBitmap8GetBlockEjjjjP3BGR+0x8e>
   10f9c:	00df0f3b          	addw	t5,t5,a3
   10fa0:	831e                	mv	t1,t2
   10fa2:	407283bb          	subw	t2,t0,t2
   10fa6:	006388bb          	addw	a7,t2,t1
   10faa:	1882                	slli	a7,a7,0x20
   10fac:	0208d893          	srli	a7,a7,0x20
   10fb0:	00189813          	slli	a6,a7,0x1
   10fb4:	9846                	add	a6,a6,a7
   10fb6:	983e                	add	a6,a6,a5
   10fb8:	02031e93          	slli	t4,t1,0x20
   10fbc:	020ede93          	srli	t4,t4,0x20
   10fc0:	088fb883          	ld	a7,136(t6)
   10fc4:	001e9e13          	slli	t3,t4,0x1
   10fc8:	9e76                	add	t3,t3,t4
   10fca:	98f2                	add	a7,a7,t3
   10fcc:	0008ce03          	lbu	t3,0(a7)
   10fd0:	01c80023          	sb	t3,0(a6)
   10fd4:	0018ce03          	lbu	t3,1(a7)
   10fd8:	01c800a3          	sb	t3,1(a6)
   10fdc:	0028c883          	lbu	a7,2(a7)
   10fe0:	01180123          	sb	a7,2(a6)
   10fe4:	2305                	addiw	t1,t1,1
   10fe6:	fde310e3          	bne	t1,t5,10fa6 <_ZN7CBitmap8GetBlockEjjjjP3BGR+0x4a>
   10fea:	2505                	addiw	a0,a0,1
   10fec:	005702bb          	addw	t0,a4,t0
   10ff0:	f8a716e3          	bne	a4,a0,10f7c <_ZN7CBitmap8GetBlockEjjjjP3BGR+0x20>
   10ff4:	4505                	li	a0,1
   10ff6:	8082                	ret
   10ff8:	4501                	li	a0,0
   10ffa:	8082                	ret
   10ffc:	4505                	li	a0,1
   10ffe:	8082                	ret

0000000000011000 <_ZN7CBitmap13GetBlock16x16EjjPA16_4BGRA>:
   11000:	88aa                	mv	a7,a0
   11002:	0106071b          	addiw	a4,a2,16
   11006:	09852783          	lw	a5,152(a0)
   1100a:	08e7e563          	bltu	a5,a4,11094 <_ZN7CBitmap13GetBlock16x16EjjPA16_4BGRA+0x94>
   1100e:	0105879b          	addiw	a5,a1,16
   11012:	09452703          	lw	a4,148(a0)
   11016:	4501                	li	a0,0
   11018:	06f76f63          	bltu	a4,a5,11096 <_ZN7CBitmap13GetBlock16x16EjjPA16_4BGRA+0x96>
   1101c:	04068513          	addi	a0,a3,64
   11020:	4e01                	li	t3,0
   11022:	4305                	li	t1,1
   11024:	4ec1                	li	t4,16
   11026:	0988a803          	lw	a6,152(a7)
   1102a:	387d                	addiw	a6,a6,-1
   1102c:	40c8083b          	subw	a6,a6,a2
   11030:	41c8083b          	subw	a6,a6,t3
   11034:	0948a783          	lw	a5,148(a7)
   11038:	02f8083b          	mulw	a6,a6,a5
   1103c:	00b8083b          	addw	a6,a6,a1
   11040:	fc050793          	addi	a5,a0,-64
   11044:	02081693          	slli	a3,a6,0x20
   11048:	9281                	srli	a3,a3,0x20
   1104a:	00169713          	slli	a4,a3,0x1
   1104e:	9736                	add	a4,a4,a3
   11050:	0888b683          	ld	a3,136(a7)
   11054:	96ba                	add	a3,a3,a4
   11056:	0006c683          	lbu	a3,0(a3)
   1105a:	00d78023          	sb	a3,0(a5)
   1105e:	0888b683          	ld	a3,136(a7)
   11062:	96ba                	add	a3,a3,a4
   11064:	0016c683          	lbu	a3,1(a3)
   11068:	00d780a3          	sb	a3,1(a5)
   1106c:	0888b683          	ld	a3,136(a7)
   11070:	9736                	add	a4,a4,a3
   11072:	00274703          	lbu	a4,2(a4)
   11076:	00e78123          	sb	a4,2(a5)
   1107a:	006781a3          	sb	t1,3(a5)
   1107e:	2805                	addiw	a6,a6,1
   11080:	0791                	addi	a5,a5,4
   11082:	fca791e3          	bne	a5,a0,11044 <_ZN7CBitmap13GetBlock16x16EjjPA16_4BGRA+0x44>
   11086:	2e05                	addiw	t3,t3,1
   11088:	04050513          	addi	a0,a0,64
   1108c:	f9de1de3          	bne	t3,t4,11026 <_ZN7CBitmap13GetBlock16x16EjjPA16_4BGRA+0x26>
   11090:	4505                	li	a0,1
   11092:	8082                	ret
   11094:	4501                	li	a0,0
   11096:	8082                	ret

0000000000011098 <_ZN7CBitmap8GetBlockEjjjjPhS0_S0_>:
   11098:	8faa                	mv	t6,a0
   1109a:	00e6033b          	addw	t1,a2,a4
   1109e:	09852503          	lw	a0,152(a0)
   110a2:	0a656563          	bltu	a0,t1,1114c <_ZN7CBitmap8GetBlockEjjjjPhS0_S0_+0xb4>
   110a6:	00d5833b          	addw	t1,a1,a3
   110aa:	094fae03          	lw	t3,148(t6)
   110ae:	4501                	li	a0,0
   110b0:	0a6e6263          	bltu	t3,t1,11154 <_ZN7CBitmap8GetBlockEjjjjPhS0_S0_+0xbc>
   110b4:	cf51                	beqz	a4,11150 <_ZN7CBitmap8GetBlockEjjjjPhS0_S0_+0xb8>
   110b6:	1141                	addi	sp,sp,-16
   110b8:	e422                	sd	s0,8(sp)
   110ba:	e026                	sd	s1,0(sp)
   110bc:	4481                	li	s1,0
   110be:	4401                	li	s0,0
   110c0:	098fa283          	lw	t0,152(t6)
   110c4:	32fd                	addiw	t0,t0,-1 # fff <__cxa_bad_cast-0xf0e9>
   110c6:	40c282bb          	subw	t0,t0,a2
   110ca:	408282bb          	subw	t0,t0,s0
   110ce:	094fa503          	lw	a0,148(t6)
   110d2:	02a282bb          	mulw	t0,t0,a0
   110d6:	00b282bb          	addw	t0,t0,a1
   110da:	0002839b          	sext.w	t2,t0
   110de:	ceb1                	beqz	a3,1113a <_ZN7CBitmap8GetBlockEjjjjPhS0_S0_+0xa2>
   110e0:	00d282bb          	addw	t0,t0,a3
   110e4:	8e9e                	mv	t4,t2
   110e6:	407483bb          	subw	t2,s1,t2
   110ea:	020e9513          	slli	a0,t4,0x20
   110ee:	9101                	srli	a0,a0,0x20
   110f0:	00151e13          	slli	t3,a0,0x1
   110f4:	9e2a                	add	t3,t3,a0
   110f6:	01d3833b          	addw	t1,t2,t4
   110fa:	1302                	slli	t1,t1,0x20
   110fc:	02035313          	srli	t1,t1,0x20
   11100:	088fbf03          	ld	t5,136(t6)
   11104:	9f72                	add	t5,t5,t3
   11106:	002f4f03          	lbu	t5,2(t5)
   1110a:	00678533          	add	a0,a5,t1
   1110e:	01e50023          	sb	t5,0(a0)
   11112:	088fbf03          	ld	t5,136(t6)
   11116:	9f72                	add	t5,t5,t3
   11118:	001f4f03          	lbu	t5,1(t5)
   1111c:	00680533          	add	a0,a6,t1
   11120:	01e50023          	sb	t5,0(a0)
   11124:	088fbf03          	ld	t5,136(t6)
   11128:	9e7a                	add	t3,t3,t5
   1112a:	000e4503          	lbu	a0,0(t3)
   1112e:	9346                	add	t1,t1,a7
   11130:	00a30023          	sb	a0,0(t1)
   11134:	2e85                	addiw	t4,t4,1
   11136:	fa5e9ae3          	bne	t4,t0,110ea <_ZN7CBitmap8GetBlockEjjjjPhS0_S0_+0x52>
   1113a:	2405                	addiw	s0,s0,1
   1113c:	9cb9                	addw	s1,s1,a4
   1113e:	f88711e3          	bne	a4,s0,110c0 <_ZN7CBitmap8GetBlockEjjjjPhS0_S0_+0x28>
   11142:	4505                	li	a0,1
   11144:	6422                	ld	s0,8(sp)
   11146:	6482                	ld	s1,0(sp)
   11148:	0141                	addi	sp,sp,16
   1114a:	8082                	ret
   1114c:	4501                	li	a0,0
   1114e:	8082                	ret
   11150:	4505                	li	a0,1
   11152:	8082                	ret
   11154:	8082                	ret

0000000000011156 <_ZN7CBitmap13GetBlock16x16EjjPA16_hS1_S1_>:
   11156:	715d                	addi	sp,sp,-80
   11158:	f056                	sd	s5,32(sp)
   1115a:	8aaa                	mv	s5,a0
   1115c:	0106081b          	addiw	a6,a2,16
   11160:	09852503          	lw	a0,152(a0)
   11164:	13056863          	bltu	a0,a6,11294 <_ZN7CBitmap13GetBlock16x16EjjPA16_hS1_S1_+0x13e>
   11168:	0105881b          	addiw	a6,a1,16
   1116c:	094aa883          	lw	a7,148(s5)
   11170:	4501                	li	a0,0
   11172:	1108ee63          	bltu	a7,a6,1128e <_ZN7CBitmap13GetBlock16x16EjjPA16_hS1_S1_+0x138>
   11176:	e4a2                	sd	s0,72(sp)
   11178:	e0a6                	sd	s1,64(sp)
   1117a:	fc4a                	sd	s2,56(sp)
   1117c:	f84e                	sd	s3,48(sp)
   1117e:	f452                	sd	s4,40(sp)
   11180:	ec5a                	sd	s6,24(sp)
   11182:	e85e                	sd	s7,16(sp)
   11184:	e462                	sd	s8,8(sp)
   11186:	e066                	sd	s9,0(sp)
   11188:	8bbe                	mv	s7,a5
   1118a:	8b3a                	mv	s6,a4
   1118c:	8536                	mv	a0,a3
   1118e:	4a01                	li	s4,0
   11190:	00ff03b7          	lui	t2,0xff0
   11194:	67c1                	lui	a5,0x10
   11196:	f0078793          	addi	a5,a5,-256 # ff00 <__cxa_bad_cast-0x1e8>
   1119a:	ff0002b7          	lui	t0,0xff000
   1119e:	69c1                	lui	s3,0x10
   111a0:	19fd                	addi	s3,s3,-1 # ffff <__cxa_bad_cast-0xe9>
   111a2:	46c1                	li	a3,16
   111a4:	a039                	j	111b2 <_ZN7CBitmap13GetBlock16x16EjjPA16_hS1_S1_+0x5c>
   111a6:	2a05                	addiw	s4,s4,1
   111a8:	0bc1                	addi	s7,s7,16
   111aa:	0b41                	addi	s6,s6,16
   111ac:	0541                	addi	a0,a0,16
   111ae:	0cda0663          	beq	s4,a3,1127a <_ZN7CBitmap13GetBlock16x16EjjPA16_hS1_S1_+0x124>
   111b2:	895e                	mv	s2,s7
   111b4:	84da                	mv	s1,s6
   111b6:	842a                	mv	s0,a0
   111b8:	098aa703          	lw	a4,152(s5)
   111bc:	377d                	addiw	a4,a4,-1
   111be:	9f11                	subw	a4,a4,a2
   111c0:	4147073b          	subw	a4,a4,s4
   111c4:	094aa803          	lw	a6,148(s5)
   111c8:	0307073b          	mulw	a4,a4,a6
   111cc:	9f2d                	addw	a4,a4,a1
   111ce:	1702                	slli	a4,a4,0x20
   111d0:	9301                	srli	a4,a4,0x20
   111d2:	00171813          	slli	a6,a4,0x1
   111d6:	9742                	add	a4,a4,a6
   111d8:	088abe83          	ld	t4,136(s5)
   111dc:	9eba                	add	t4,t4,a4
   111de:	4301                	li	t1,0
   111e0:	000ea803          	lw	a6,0(t4)
   111e4:	004ea883          	lw	a7,4(t4)
   111e8:	008eae03          	lw	t3,8(t4)
   111ec:	01085f9b          	srliw	t6,a6,0x10
   111f0:	010e1f1b          	slliw	t5,t3,0x10
   111f4:	00690c33          	add	s8,s2,t1
   111f8:	0ff87713          	zext.b	a4,a6
   111fc:	0078fcb3          	and	s9,a7,t2
   11200:	01976733          	or	a4,a4,s9
   11204:	01f7fcb3          	and	s9,a5,t6
   11208:	01976733          	or	a4,a4,s9
   1120c:	005f7cb3          	and	s9,t5,t0
   11210:	01976733          	or	a4,a4,s9
   11214:	00ec2023          	sw	a4,0(s8)
   11218:	00648733          	add	a4,s1,t1
   1121c:	0088581b          	srliw	a6,a6,0x8
   11220:	0ff87813          	zext.b	a6,a6
   11224:	00889c1b          	slliw	s8,a7,0x8
   11228:	013c7c33          	and	s8,s8,s3
   1122c:	01886833          	or	a6,a6,s8
   11230:	0088dc1b          	srliw	s8,a7,0x8
   11234:	007c7c33          	and	s8,s8,t2
   11238:	01886833          	or	a6,a6,s8
   1123c:	008e1c1b          	slliw	s8,t3,0x8
   11240:	005c7c33          	and	s8,s8,t0
   11244:	01886833          	or	a6,a6,s8
   11248:	01072023          	sw	a6,0(a4)
   1124c:	00640733          	add	a4,s0,t1
   11250:	00f8f8b3          	and	a7,a7,a5
   11254:	005e7e33          	and	t3,t3,t0
   11258:	01c8e8b3          	or	a7,a7,t3
   1125c:	0fffff93          	zext.b	t6,t6
   11260:	01f8e8b3          	or	a7,a7,t6
   11264:	007f7f33          	and	t5,t5,t2
   11268:	01e8e8b3          	or	a7,a7,t5
   1126c:	01172023          	sw	a7,0(a4)
   11270:	0311                	addi	t1,t1,4
   11272:	0eb1                	addi	t4,t4,12
   11274:	f6d316e3          	bne	t1,a3,111e0 <_ZN7CBitmap13GetBlock16x16EjjPA16_hS1_S1_+0x8a>
   11278:	b73d                	j	111a6 <_ZN7CBitmap13GetBlock16x16EjjPA16_hS1_S1_+0x50>
   1127a:	4505                	li	a0,1
   1127c:	6426                	ld	s0,72(sp)
   1127e:	6486                	ld	s1,64(sp)
   11280:	7962                	ld	s2,56(sp)
   11282:	79c2                	ld	s3,48(sp)
   11284:	7a22                	ld	s4,40(sp)
   11286:	6b62                	ld	s6,24(sp)
   11288:	6bc2                	ld	s7,16(sp)
   1128a:	6c22                	ld	s8,8(sp)
   1128c:	6c82                	ld	s9,0(sp)
   1128e:	7a82                	ld	s5,32(sp)
   11290:	6161                	addi	sp,sp,80
   11292:	8082                	ret
   11294:	4501                	li	a0,0
   11296:	bfe5                	j	1128e <_ZN7CBitmap13GetBlock16x16EjjPA16_hS1_S1_+0x138>

0000000000011298 <_ZN7CBitmap8SetBlockEjjjjP3BGR>:
   11298:	8f2a                	mv	t5,a0
   1129a:	00e6083b          	addw	a6,a2,a4
   1129e:	09852503          	lw	a0,152(a0)
   112a2:	09056863          	bltu	a0,a6,11332 <_ZN7CBitmap8SetBlockEjjjjP3BGR+0x9a>
   112a6:	00d5883b          	addw	a6,a1,a3
   112aa:	094f2883          	lw	a7,148(t5)
   112ae:	4501                	li	a0,0
   112b0:	0908e463          	bltu	a7,a6,11338 <_ZN7CBitmap8SetBlockEjjjjP3BGR+0xa0>
   112b4:	c349                	beqz	a4,11336 <_ZN7CBitmap8SetBlockEjjjjP3BGR+0x9e>
   112b6:	8536                	mv	a0,a3
   112b8:	4281                	li	t0,0
   112ba:	4f81                	li	t6,0
   112bc:	098f2e83          	lw	t4,152(t5)
   112c0:	3efd                	addiw	t4,t4,-1
   112c2:	40ce8ebb          	subw	t4,t4,a2
   112c6:	41fe8ebb          	subw	t4,t4,t6
   112ca:	094f2803          	lw	a6,148(t5)
   112ce:	030e8ebb          	mulw	t4,t4,a6
   112d2:	00be8ebb          	addw	t4,t4,a1
   112d6:	c6b1                	beqz	a3,11322 <_ZN7CBitmap8SetBlockEjjjjP3BGR+0x8a>
   112d8:	8316                	mv	t1,t0
   112da:	405e8ebb          	subw	t4,t4,t0
   112de:	006e883b          	addw	a6,t4,t1
   112e2:	1802                	slli	a6,a6,0x20
   112e4:	02085813          	srli	a6,a6,0x20
   112e8:	088f3883          	ld	a7,136(t5)
   112ec:	00181e13          	slli	t3,a6,0x1
   112f0:	9872                	add	a6,a6,t3
   112f2:	98c2                	add	a7,a7,a6
   112f4:	02031e13          	slli	t3,t1,0x20
   112f8:	020e5e13          	srli	t3,t3,0x20
   112fc:	001e1813          	slli	a6,t3,0x1
   11300:	9872                	add	a6,a6,t3
   11302:	983e                	add	a6,a6,a5
   11304:	00084e03          	lbu	t3,0(a6)
   11308:	01c88023          	sb	t3,0(a7)
   1130c:	00184e03          	lbu	t3,1(a6)
   11310:	01c880a3          	sb	t3,1(a7)
   11314:	00284803          	lbu	a6,2(a6)
   11318:	01088123          	sb	a6,2(a7)
   1131c:	2305                	addiw	t1,t1,1
   1131e:	fca310e3          	bne	t1,a0,112de <_ZN7CBitmap8SetBlockEjjjjP3BGR+0x46>
   11322:	2f85                	addiw	t6,t6,1
   11324:	005702bb          	addw	t0,a4,t0
   11328:	9d39                	addw	a0,a0,a4
   1132a:	f9f719e3          	bne	a4,t6,112bc <_ZN7CBitmap8SetBlockEjjjjP3BGR+0x24>
   1132e:	4505                	li	a0,1
   11330:	8082                	ret
   11332:	4501                	li	a0,0
   11334:	8082                	ret
   11336:	4505                	li	a0,1
   11338:	8082                	ret

000000000001133a <_ZN7CBitmap8getWidthEv>:
   1133a:	09452503          	lw	a0,148(a0)
   1133e:	8082                	ret

0000000000011340 <_ZN7CBitmap9getHeightEv>:
   11340:	09852503          	lw	a0,152(a0)
   11344:	8082                	ret

0000000000011346 <_ZN7CBitmap6getRGBEii>:
   11346:	09852783          	lw	a5,152(a0)
   1134a:	9f91                	subw	a5,a5,a2
   1134c:	37fd                	addiw	a5,a5,-1
   1134e:	09452703          	lw	a4,148(a0)
   11352:	02e787bb          	mulw	a5,a5,a4
   11356:	9dbd                	addw	a1,a1,a5
   11358:	1582                	slli	a1,a1,0x20
   1135a:	9181                	srli	a1,a1,0x20
   1135c:	00159713          	slli	a4,a1,0x1
   11360:	972e                	add	a4,a4,a1
   11362:	655c                	ld	a5,136(a0)
   11364:	97ba                	add	a5,a5,a4
   11366:	0027c503          	lbu	a0,2(a5)
   1136a:	0105151b          	slliw	a0,a0,0x10
   1136e:	0017c703          	lbu	a4,1(a5)
   11372:	0087171b          	slliw	a4,a4,0x8
   11376:	8d59                	or	a0,a0,a4
   11378:	0007c783          	lbu	a5,0(a5)
   1137c:	8d5d                	or	a0,a0,a5
   1137e:	2501                	sext.w	a0,a0
   11380:	8082                	ret

0000000000011382 <_ZN7CBitmap6getRGBEiiPiS0_S0_>:
   11382:	09852803          	lw	a6,152(a0)
   11386:	40c8083b          	subw	a6,a6,a2
   1138a:	387d                	addiw	a6,a6,-1
   1138c:	09452603          	lw	a2,148(a0)
   11390:	02c8083b          	mulw	a6,a6,a2
   11394:	00b805bb          	addw	a1,a6,a1
   11398:	1582                	slli	a1,a1,0x20
   1139a:	9181                	srli	a1,a1,0x20
   1139c:	00159613          	slli	a2,a1,0x1
   113a0:	95b2                	add	a1,a1,a2
   113a2:	6550                	ld	a2,136(a0)
   113a4:	962e                	add	a2,a2,a1
   113a6:	00064583          	lbu	a1,0(a2)
   113aa:	00164503          	lbu	a0,1(a2)
   113ae:	00264603          	lbu	a2,2(a2)
   113b2:	c290                	sw	a2,0(a3)
   113b4:	c308                	sw	a0,0(a4)
   113b6:	c38c                	sw	a1,0(a5)
   113b8:	8082                	ret

00000000000113ba <_ZN11JpegEncoderD1Ev>:
   113ba:	1101                	addi	sp,sp,-32
   113bc:	ec06                	sd	ra,24(sp)
   113be:	e822                	sd	s0,16(sp)
   113c0:	e426                	sd	s1,8(sp)
   113c2:	842a                	mv	s0,a0
   113c4:	0002f7b7          	lui	a5,0x2f
   113c8:	62878793          	addi	a5,a5,1576 # 2f628 <_ZTV11JpegEncoder+0x10>
   113cc:	e11c                	sd	a5,0(a0)
   113ce:	6904                	ld	s1,16(a0)
   113d0:	c889                	beqz	s1,113e2 <_ZN11JpegEncoderD1Ev+0x28>
   113d2:	8526                	mv	a0,s1
   113d4:	020020ef          	jal	133f4 <_ZN8JpegInfoD1Ev>
   113d8:	0e800593          	li	a1,232
   113dc:	8526                	mv	a0,s1
   113de:	453020ef          	jal	14030 <_ZdlPvm>
   113e2:	6400                	ld	s0,8(s0)
   113e4:	c809                	beqz	s0,113f6 <_ZN11JpegEncoderD1Ev+0x3c>
   113e6:	8522                	mv	a0,s0
   113e8:	0c9020ef          	jal	13cb0 <_ZN20BufferedOutputStreamD1Ev>
   113ec:	02000593          	li	a1,32
   113f0:	8522                	mv	a0,s0
   113f2:	43f020ef          	jal	14030 <_ZdlPvm>
   113f6:	60e2                	ld	ra,24(sp)
   113f8:	6442                	ld	s0,16(sp)
   113fa:	64a2                	ld	s1,8(sp)
   113fc:	6105                	addi	sp,sp,32
   113fe:	8082                	ret

0000000000011400 <_ZN11JpegEncoderD0Ev>:
   11400:	1141                	addi	sp,sp,-16
   11402:	e406                	sd	ra,8(sp)
   11404:	e022                	sd	s0,0(sp)
   11406:	842a                	mv	s0,a0
   11408:	fb3ff0ef          	jal	113ba <_ZN11JpegEncoderD1Ev>
   1140c:	6585                	lui	a1,0x1
   1140e:	54858593          	addi	a1,a1,1352 # 1548 <__cxa_bad_cast-0xeba0>
   11412:	8522                	mv	a0,s0
   11414:	41d020ef          	jal	14030 <_ZdlPvm>
   11418:	60a2                	ld	ra,8(sp)
   1141a:	6402                	ld	s0,0(sp)
   1141c:	0141                	addi	sp,sp,16
   1141e:	8082                	ret

0000000000011420 <_ZN11JpegEncoderC1EP5ImageiP12OutputStream>:
   11420:	7139                	addi	sp,sp,-64
   11422:	fc06                	sd	ra,56(sp)
   11424:	f822                	sd	s0,48(sp)
   11426:	f426                	sd	s1,40(sp)
   11428:	f04a                	sd	s2,32(sp)
   1142a:	ec4e                	sd	s3,24(sp)
   1142c:	e852                	sd	s4,16(sp)
   1142e:	e456                	sd	s5,8(sp)
   11430:	842a                	mv	s0,a0
   11432:	892e                	mv	s2,a1
   11434:	8a32                	mv	s4,a2
   11436:	8ab6                	mv	s5,a3
   11438:	0002f7b7          	lui	a5,0x2f
   1143c:	62878793          	addi	a5,a5,1576 # 2f628 <_ZTV11JpegEncoder+0x10>
   11440:	e11c                	sd	a5,0(a0)
   11442:	0561                	addi	a0,a0,24
   11444:	76f010ef          	jal	133b2 <_ZN7HuffmanC1Ev>
   11448:	6505                	lui	a0,0x1
   1144a:	11050513          	addi	a0,a0,272 # 1110 <__cxa_bad_cast-0xefd8>
   1144e:	00a409b3          	add	s3,s0,a0
   11452:	854e                	mv	a0,s3
   11454:	025000ef          	jal	11c78 <_ZN3DCTC1Ev>
   11458:	0e800513          	li	a0,232
   1145c:	412030ef          	jal	1486e <_Znwm>
   11460:	84aa                	mv	s1,a0
   11462:	85ca                	mv	a1,s2
   11464:	5e0020ef          	jal	13a44 <_ZN8JpegInfoC1EP5Image>
   11468:	e804                	sd	s1,16(s0)
   1146a:	6785                	lui	a5,0x1
   1146c:	97a2                	add	a5,a5,s0
   1146e:	5498                	lw	a4,40(s1)
   11470:	52e7ac23          	sw	a4,1336(a5) # 1538 <__cxa_bad_cast-0xebb0>
   11474:	54d8                	lw	a4,44(s1)
   11476:	52e7ae23          	sw	a4,1340(a5)
   1147a:	02000513          	li	a0,32
   1147e:	3f0030ef          	jal	1486e <_Znwm>
   11482:	84aa                	mv	s1,a0
   11484:	85d6                	mv	a1,s5
   11486:	7fe020ef          	jal	13c84 <_ZN20BufferedOutputStreamC1EP12OutputStream>
   1148a:	e404                	sd	s1,8(s0)
   1148c:	85d2                	mv	a1,s4
   1148e:	854e                	mv	a0,s3
   11490:	65b000ef          	jal	122ea <_ZN3DCT4initEi>
   11494:	70e2                	ld	ra,56(sp)
   11496:	7442                	ld	s0,48(sp)
   11498:	74a2                	ld	s1,40(sp)
   1149a:	7902                	ld	s2,32(sp)
   1149c:	69e2                	ld	s3,24(sp)
   1149e:	6a42                	ld	s4,16(sp)
   114a0:	6aa2                	ld	s5,8(sp)
   114a2:	6121                	addi	sp,sp,64
   114a4:	8082                	ret
   114a6:	842a                	mv	s0,a0
   114a8:	0e800593          	li	a1,232
   114ac:	8526                	mv	a0,s1
   114ae:	383020ef          	jal	14030 <_ZdlPvm>
   114b2:	8522                	mv	a0,s0
   114b4:	45b0f0ef          	jal	2110e <_Unwind_Resume>
   114b8:	842a                	mv	s0,a0
   114ba:	02000593          	li	a1,32
   114be:	8526                	mv	a0,s1
   114c0:	371020ef          	jal	14030 <_ZdlPvm>
   114c4:	8522                	mv	a0,s0
   114c6:	4490f0ef          	jal	2110e <_Unwind_Resume>

00000000000114ca <_ZN11JpegEncoder10setQualityEi>:
   114ca:	1141                	addi	sp,sp,-16
   114cc:	e406                	sd	ra,8(sp)
   114ce:	6785                	lui	a5,0x1
   114d0:	11078793          	addi	a5,a5,272 # 1110 <__cxa_bad_cast-0xefd8>
   114d4:	953e                	add	a0,a0,a5
   114d6:	615000ef          	jal	122ea <_ZN3DCT4initEi>
   114da:	60a2                	ld	ra,8(sp)
   114dc:	0141                	addi	sp,sp,16
   114de:	8082                	ret

00000000000114e0 <_ZN11JpegEncoder10getQualityEv>:
   114e0:	6785                	lui	a5,0x1
   114e2:	953e                	add	a0,a0,a5
   114e4:	54052503          	lw	a0,1344(a0)
   114e8:	8082                	ret

00000000000114ea <_ZN11JpegEncoder19WriteCompressedDataEv>:
   114ea:	c4010113          	addi	sp,sp,-960
   114ee:	3a113c23          	sd	ra,952(sp)
   114f2:	3a813823          	sd	s0,944(sp)
   114f6:	3a913423          	sd	s1,936(sp)
   114fa:	3b213023          	sd	s2,928(sp)
   114fe:	39513423          	sd	s5,904(sp)
   11502:	37913423          	sd	s9,872(sp)
   11506:	892a                	mv	s2,a0
   11508:	00853c83          	ld	s9,8(a0)
   1150c:	c082                	sw	zero,64(sp)
   1150e:	c282                	sw	zero,68(sp)
   11510:	c482                	sw	zero,72(sp)
   11512:	6785                	lui	a5,0x1
   11514:	97aa                	add	a5,a5,a0
   11516:	53c7a403          	lw	s0,1340(a5) # 153c <__cxa_bad_cast-0xebac>
   1151a:	00747793          	andi	a5,s0,7
   1151e:	c39d                	beqz	a5,11544 <_ZN11JpegEncoder19WriteCompressedDataEv+0x5a>
   11520:	d00477d3          	fcvt.s.w	fa5,s0
   11524:	420787d3          	fcvt.d.s	fa5,fa5
   11528:	e301b507          	fld	fa0,-464(gp) # 39d40 <__SDATA_BEGIN__+0x8>
   1152c:	12a7f553          	fmul.d	fa0,fa5,fa0
   11530:	5230c0ef          	jal	1e252 <floor>
   11534:	e281b787          	fld	fa5,-472(gp) # 39d38 <__SDATA_BEGIN__>
   11538:	02f577d3          	fadd.d	fa5,fa0,fa5
   1153c:	c2079453          	fcvt.w.d	s0,fa5,rtz
   11540:	0034141b          	slliw	s0,s0,0x3
   11544:	6785                	lui	a5,0x1
   11546:	97ca                	add	a5,a5,s2
   11548:	5387a783          	lw	a5,1336(a5) # 1538 <__cxa_bad_cast-0xebb0>
   1154c:	0077f713          	andi	a4,a5,7
   11550:	c31d                	beqz	a4,11576 <_ZN11JpegEncoder19WriteCompressedDataEv+0x8c>
   11552:	d007f7d3          	fcvt.s.w	fa5,a5
   11556:	420787d3          	fcvt.d.s	fa5,fa5
   1155a:	e301b507          	fld	fa0,-464(gp) # 39d40 <__SDATA_BEGIN__+0x8>
   1155e:	12a7f553          	fmul.d	fa0,fa5,fa0
   11562:	4f10c0ef          	jal	1e252 <floor>
   11566:	e281b787          	fld	fa5,-472(gp) # 39d38 <__SDATA_BEGIN__>
   1156a:	02f577d3          	fadd.d	fa5,fa0,fa5
   1156e:	c20797d3          	fcvt.w.d	a5,fa5,rtz
   11572:	0037979b          	slliw	a5,a5,0x3
   11576:	01093703          	ld	a4,16(s2)
   1157a:	0cc72583          	lw	a1,204(a4)
   1157e:	0c872683          	lw	a3,200(a4)
   11582:	8636                	mv	a2,a3
   11584:	2681                	sext.w	a3,a3
   11586:	00d5d363          	bge	a1,a3,1158c <_ZN11JpegEncoder19WriteCompressedDataEv+0xa2>
   1158a:	862e                	mv	a2,a1
   1158c:	0d072583          	lw	a1,208(a4)
   11590:	86b2                	mv	a3,a2
   11592:	2601                	sext.w	a2,a2
   11594:	00c5d363          	bge	a1,a2,1159a <_ZN11JpegEncoder19WriteCompressedDataEv+0xb0>
   11598:	86ae                	mv	a3,a1
   1159a:	84b6                	mv	s1,a3
   1159c:	2681                	sext.w	a3,a3
   1159e:	00d45363          	bge	s0,a3,115a4 <_ZN11JpegEncoder19WriteCompressedDataEv+0xba>
   115a2:	84a2                	mv	s1,s0
   115a4:	2481                	sext.w	s1,s1
   115a6:	0d872583          	lw	a1,216(a4)
   115aa:	0d472603          	lw	a2,212(a4)
   115ae:	86b2                	mv	a3,a2
   115b0:	2601                	sext.w	a2,a2
   115b2:	00c5d363          	bge	a1,a2,115b8 <_ZN11JpegEncoder19WriteCompressedDataEv+0xce>
   115b6:	86ae                	mv	a3,a1
   115b8:	0dc72603          	lw	a2,220(a4)
   115bc:	8736                	mv	a4,a3
   115be:	2681                	sext.w	a3,a3
   115c0:	00d65363          	bge	a2,a3,115c6 <_ZN11JpegEncoder19WriteCompressedDataEv+0xdc>
   115c4:	8732                	mv	a4,a2
   115c6:	843a                	mv	s0,a4
   115c8:	2701                	sext.w	a4,a4
   115ca:	00e7d363          	bge	a5,a4,115d0 <_ZN11JpegEncoder19WriteCompressedDataEv+0xe6>
   115ce:	843e                	mv	s0,a5
   115d0:	2401                	sext.w	s0,s0
   115d2:	4701                	li	a4,0
   115d4:	6a85                	lui	s5,0x1
   115d6:	110a8a93          	addi	s5,s5,272 # 1110 <__cxa_bad_cast-0xefd8>
   115da:	9aca                	add	s5,s5,s2
   115dc:	1a805763          	blez	s0,1178a <_ZN11JpegEncoder19WriteCompressedDataEv+0x2a0>
   115e0:	39313c23          	sd	s3,920(sp)
   115e4:	39613023          	sd	s6,896(sp)
   115e8:	8b26                	mv	s6,s1
   115ea:	84e6                	mv	s1,s9
   115ec:	aa8d                	j	1175e <_ZN11JpegEncoder19WriteCompressedDataEv+0x274>
   115ee:	0a90                	addi	a2,sp,336
   115f0:	0c8c                	addi	a1,sp,592
   115f2:	8556                	mv	a0,s5
   115f4:	671000ef          	jal	12464 <_ZN3DCT10forwardDCTEPA8_fS1_>
   115f8:	010a3783          	ld	a5,16(s4)
   115fc:	97ea                	add	a5,a5,s10
   115fe:	0894                	addi	a3,sp,80
   11600:	43d0                	lw	a2,4(a5)
   11602:	0a8c                	addi	a1,sp,336
   11604:	8556                	mv	a0,s5
   11606:	45c010ef          	jal	12a62 <_ZN3DCT13quantizeBlockEPA8_fiPi>
   1160a:	002b1793          	slli	a5,s6,0x2
   1160e:	010a3703          	ld	a4,16(s4)
   11612:	973e                	add	a4,a4,a5
   11614:	4801                	li	a6,0
   11616:	08c72783          	lw	a5,140(a4)
   1161a:	08072703          	lw	a4,128(a4)
   1161e:	000da683          	lw	a3,0(s11)
   11622:	0890                	addi	a2,sp,80
   11624:	85e2                	mv	a1,s8
   11626:	018a0513          	addi	a0,s4,24
   1162a:	64a010ef          	jal	12c74 <_ZN7Huffman3runEP12OutputStreamPiiiib>
   1162e:	47c6                	lw	a5,80(sp)
   11630:	00fda023          	sw	a5,0(s11)
   11634:	2405                	addiw	s0,s0,1
   11636:	2921                	addiw	s2,s2,8
   11638:	2ca1                	addiw	s9,s9,8
   1163a:	010a3783          	ld	a5,16(s4)
   1163e:	97de                	add	a5,a5,s7
   11640:	47dc                	lw	a5,12(a5)
   11642:	04f45063          	bge	s0,a5,11682 <_ZN11JpegEncoder19WriteCompressedDataEv+0x198>
   11646:	0c94                	addi	a3,sp,592
   11648:	35010893          	addi	a7,sp,848
   1164c:	854e                	mv	a0,s3
   1164e:	884a                	mv	a6,s2
   11650:	0005031b          	sext.w	t1,a0
   11654:	85b6                	mv	a1,a3
   11656:	8742                	mv	a4,a6
   11658:	489c                	lw	a5,16(s1)
   1165a:	026787bb          	mulw	a5,a5,t1
   1165e:	9fb9                	addw	a5,a5,a4
   11660:	6490                	ld	a2,8(s1)
   11662:	078a                	slli	a5,a5,0x2
   11664:	97b2                	add	a5,a5,a2
   11666:	0007a787          	flw	fa5,0(a5)
   1166a:	00f5a027          	fsw	fa5,0(a1)
   1166e:	2705                	addiw	a4,a4,1
   11670:	0591                	addi	a1,a1,4
   11672:	ff9713e3          	bne	a4,s9,11658 <_ZN11JpegEncoder19WriteCompressedDataEv+0x16e>
   11676:	02068693          	addi	a3,a3,32
   1167a:	2505                	addiw	a0,a0,1
   1167c:	fd169ae3          	bne	a3,a7,11650 <_ZN11JpegEncoder19WriteCompressedDataEv+0x166>
   11680:	b7bd                	j	115ee <_ZN11JpegEncoder19WriteCompressedDataEv+0x104>
   11682:	7722                	ld	a4,40(sp)
   11684:	76c2                	ld	a3,48(sp)
   11686:	7662                	ld	a2,56(sp)
   11688:	2685                	addiw	a3,a3,1
   1168a:	010a3783          	ld	a5,16(s4)
   1168e:	018b0893          	addi	a7,s6,24
   11692:	088a                	slli	a7,a7,0x2
   11694:	97c6                	add	a5,a5,a7
   11696:	479c                	lw	a5,8(a5)
   11698:	02f6d363          	bge	a3,a5,116be <_ZN11JpegEncoder19WriteCompressedDataEv+0x1d4>
   1169c:	010a3783          	ld	a5,16(s4)
   116a0:	97de                	add	a5,a5,s7
   116a2:	47dc                	lw	a5,12(a5)
   116a4:	fef052e3          	blez	a5,11688 <_ZN11JpegEncoder19WriteCompressedDataEv+0x19e>
   116a8:	00e689bb          	addw	s3,a3,a4
   116ac:	0039999b          	slliw	s3,s3,0x3
   116b0:	6c82                	ld	s9,0(sp)
   116b2:	6922                	ld	s2,8(sp)
   116b4:	4401                	li	s0,0
   116b6:	f43a                	sd	a4,40(sp)
   116b8:	f836                	sd	a3,48(sp)
   116ba:	fc32                	sd	a2,56(sp)
   116bc:	b769                	j	11646 <_ZN11JpegEncoder19WriteCompressedDataEv+0x15c>
   116be:	8be2                	mv	s7,s8
   116c0:	7c02                	ld	s8,32(sp)
   116c2:	89d2                	mv	s3,s4
   116c4:	0c05                	addi	s8,s8,1
   116c6:	478d                	li	a5,3
   116c8:	04fc0663          	beq	s8,a5,11714 <_ZN11JpegEncoder19WriteCompressedDataEv+0x22a>
   116cc:	000c0a1b          	sext.w	s4,s8
   116d0:	0109b683          	ld	a3,16(s3)
   116d4:	006a0793          	addi	a5,s4,6
   116d8:	078e                	slli	a5,a5,0x3
   116da:	97b6                	add	a5,a5,a3
   116dc:	6784                	ld	s1,8(a5)
   116de:	018a0793          	addi	a5,s4,24
   116e2:	078a                	slli	a5,a5,0x2
   116e4:	96be                	add	a3,a3,a5
   116e6:	469c                	lw	a5,8(a3)
   116e8:	fcf05ee3          	blez	a5,116c4 <_ZN11JpegEncoder19WriteCompressedDataEv+0x1da>
   116ec:	002c1793          	slli	a5,s8,0x2
   116f0:	04078793          	addi	a5,a5,64
   116f4:	00278db3          	add	s11,a5,sp
   116f8:	4681                	li	a3,0
   116fa:	014a0b13          	addi	s6,s4,20
   116fe:	0b0a                	slli	s6,s6,0x2
   11700:	01ca0413          	addi	s0,s4,28
   11704:	040a                	slli	s0,s0,0x2
   11706:	f062                	sd	s8,32(sp)
   11708:	8c5e                	mv	s8,s7
   1170a:	8bda                	mv	s7,s6
   1170c:	8b52                	mv	s6,s4
   1170e:	8a4e                	mv	s4,s3
   11710:	8d22                	mv	s10,s0
   11712:	b769                	j	1169c <_ZN11JpegEncoder19WriteCompressedDataEv+0x1b2>
   11714:	6442                	ld	s0,16(sp)
   11716:	895e                	mv	s2,s7
   11718:	6a62                	ld	s4,24(sp)
   1171a:	8b32                	mv	s6,a2
   1171c:	2a05                	addiw	s4,s4,1
   1171e:	02ca0163          	beq	s4,a2,11740 <_ZN11JpegEncoder19WriteCompressedDataEv+0x256>
   11722:	003a149b          	slliw	s1,s4,0x3
   11726:	0004879b          	sext.w	a5,s1
   1172a:	e43e                	sd	a5,8(sp)
   1172c:	0084879b          	addiw	a5,s1,8
   11730:	e03e                	sd	a5,0(sp)
   11732:	4b81                	li	s7,0
   11734:	e822                	sd	s0,16(sp)
   11736:	ec52                	sd	s4,24(sp)
   11738:	865a                	mv	a2,s6
   1173a:	8c5e                	mv	s8,s7
   1173c:	8bca                	mv	s7,s2
   1173e:	b779                	j	116cc <_ZN11JpegEncoder19WriteCompressedDataEv+0x1e2>
   11740:	84de                	mv	s1,s7
   11742:	894e                	mv	s2,s3
   11744:	39013a03          	ld	s4,912(sp)
   11748:	37813b83          	ld	s7,888(sp)
   1174c:	37013c03          	ld	s8,880(sp)
   11750:	36013d03          	ld	s10,864(sp)
   11754:	35813d83          	ld	s11,856(sp)
   11758:	2705                	addiw	a4,a4,1
   1175a:	02e40363          	beq	s0,a4,11780 <_ZN11JpegEncoder19WriteCompressedDataEv+0x296>
   1175e:	4981                	li	s3,0
   11760:	ff605ce3          	blez	s6,11758 <_ZN11JpegEncoder19WriteCompressedDataEv+0x26e>
   11764:	39413823          	sd	s4,912(sp)
   11768:	37713c23          	sd	s7,888(sp)
   1176c:	37813823          	sd	s8,880(sp)
   11770:	37a13023          	sd	s10,864(sp)
   11774:	35b13c23          	sd	s11,856(sp)
   11778:	8a4e                	mv	s4,s3
   1177a:	89ca                	mv	s3,s2
   1177c:	8926                	mv	s2,s1
   1177e:	b755                	j	11722 <_ZN11JpegEncoder19WriteCompressedDataEv+0x238>
   11780:	8ca6                	mv	s9,s1
   11782:	39813983          	ld	s3,920(sp)
   11786:	38013b03          	ld	s6,896(sp)
   1178a:	85e6                	mv	a1,s9
   1178c:	01890513          	addi	a0,s2,24
   11790:	6d4010ef          	jal	12e64 <_ZN7Huffman11flushBufferEP12OutputStream>
   11794:	3b813083          	ld	ra,952(sp)
   11798:	3b013403          	ld	s0,944(sp)
   1179c:	3a813483          	ld	s1,936(sp)
   117a0:	3a013903          	ld	s2,928(sp)
   117a4:	38813a83          	ld	s5,904(sp)
   117a8:	36813c83          	ld	s9,872(sp)
   117ac:	3c010113          	addi	sp,sp,960
   117b0:	8082                	ret

00000000000117b2 <_ZN11JpegEncoder11WriteMarkerEPh>:
   117b2:	1141                	addi	sp,sp,-16
   117b4:	e406                	sd	ra,8(sp)
   117b6:	6508                	ld	a0,8(a0)
   117b8:	611c                	ld	a5,0(a0)
   117ba:	679c                	ld	a5,8(a5)
   117bc:	4689                	li	a3,2
   117be:	4601                	li	a2,0
   117c0:	9782                	jalr	a5
   117c2:	60a2                	ld	ra,8(sp)
   117c4:	0141                	addi	sp,sp,16
   117c6:	8082                	ret

00000000000117c8 <_ZN11JpegEncoder8WriteEOIEv>:
   117c8:	1101                	addi	sp,sp,-32
   117ca:	ec06                	sd	ra,24(sp)
   117cc:	77f9                	lui	a5,0xffffe
   117ce:	9ff78793          	addi	a5,a5,-1537 # ffffffffffffd9ff <__BSS_END__+0xfffffffffffc32ef>
   117d2:	00f11423          	sh	a5,8(sp)
   117d6:	002c                	addi	a1,sp,8
   117d8:	fdbff0ef          	jal	117b2 <_ZN11JpegEncoder11WriteMarkerEPh>
   117dc:	60e2                	ld	ra,24(sp)
   117de:	6105                	addi	sp,sp,32
   117e0:	8082                	ret

00000000000117e2 <_ZN11JpegEncoder10WriteArrayEPh>:
   117e2:	1141                	addi	sp,sp,-16
   117e4:	e406                	sd	ra,8(sp)
   117e6:	6508                	ld	a0,8(a0)
   117e8:	0025c683          	lbu	a3,2(a1)
   117ec:	0086969b          	slliw	a3,a3,0x8
   117f0:	0035c783          	lbu	a5,3(a1)
   117f4:	9ebd                	addw	a3,a3,a5
   117f6:	2689                	addiw	a3,a3,2
   117f8:	611c                	ld	a5,0(a0)
   117fa:	679c                	ld	a5,8(a5)
   117fc:	2681                	sext.w	a3,a3
   117fe:	4601                	li	a2,0
   11800:	9782                	jalr	a5
   11802:	60a2                	ld	ra,8(sp)
   11804:	0141                	addi	sp,sp,16
   11806:	8082                	ret

0000000000011808 <_ZN11JpegEncoder12WriteHeadersEv>:
   11808:	7165                	addi	sp,sp,-400
   1180a:	e706                	sd	ra,392(sp)
   1180c:	e322                	sd	s0,384(sp)
   1180e:	fea6                	sd	s1,376(sp)
   11810:	faca                	sd	s2,368(sp)
   11812:	f6ce                	sd	s3,360(sp)
   11814:	f2d2                	sd	s4,352(sp)
   11816:	eed6                	sd	s5,344(sp)
   11818:	eada                	sd	s6,336(sp)
   1181a:	e6de                	sd	s7,328(sp)
   1181c:	e2e2                	sd	s8,320(sp)
   1181e:	fe66                	sd	s9,312(sp)
   11820:	fa6a                	sd	s10,304(sp)
   11822:	f66e                	sd	s11,296(sp)
   11824:	0b00                	addi	s0,sp,400
   11826:	892a                	mv	s2,a0
   11828:	11c1a783          	lw	a5,284(gp) # 3a02c <verbose>
   1182c:	e7e9                	bnez	a5,118f6 <_ZN11JpegEncoder12WriteHeadersEv+0xee>
   1182e:	77f9                	lui	a5,0xffffe
   11830:	8ff78793          	addi	a5,a5,-1793 # ffffffffffffd8ff <__BSS_END__+0xfffffffffffc31ef>
   11834:	f8f41423          	sh	a5,-120(s0)
   11838:	f8840593          	addi	a1,s0,-120
   1183c:	854a                	mv	a0,s2
   1183e:	f75ff0ef          	jal	117b2 <_ZN11JpegEncoder11WriteMarkerEPh>
   11842:	54fd                	li	s1,-1
   11844:	f6940823          	sb	s1,-144(s0)
   11848:	5781                	li	a5,-32
   1184a:	f6f408a3          	sb	a5,-143(s0)
   1184e:	f6040923          	sb	zero,-142(s0)
   11852:	47c1                	li	a5,16
   11854:	f6f409a3          	sb	a5,-141(s0)
   11858:	04a00793          	li	a5,74
   1185c:	f6f40a23          	sb	a5,-140(s0)
   11860:	04600793          	li	a5,70
   11864:	f6f40aa3          	sb	a5,-139(s0)
   11868:	04900713          	li	a4,73
   1186c:	f6e40b23          	sb	a4,-138(s0)
   11870:	f6f40ba3          	sb	a5,-137(s0)
   11874:	f6040c23          	sb	zero,-136(s0)
   11878:	4785                	li	a5,1
   1187a:	f6f40ca3          	sb	a5,-135(s0)
   1187e:	f6040d23          	sb	zero,-134(s0)
   11882:	f6040da3          	sb	zero,-133(s0)
   11886:	f6040e23          	sb	zero,-132(s0)
   1188a:	f6f40ea3          	sb	a5,-131(s0)
   1188e:	f6040f23          	sb	zero,-130(s0)
   11892:	f6f40fa3          	sb	a5,-129(s0)
   11896:	f8040023          	sb	zero,-128(s0)
   1189a:	f80400a3          	sb	zero,-127(s0)
   1189e:	f7040593          	addi	a1,s0,-144
   118a2:	854a                	mv	a0,s2
   118a4:	f3fff0ef          	jal	117e2 <_ZN11JpegEncoder10WriteArrayEPh>
   118a8:	01093583          	ld	a1,16(s2)
   118ac:	f5040513          	addi	a0,s0,-176
   118b0:	49f010ef          	jal	1354e <_ZN8JpegInfo10getCommentB5cxx11Ev>
   118b4:	f5843703          	ld	a4,-168(s0)
   118b8:	0047079b          	addiw	a5,a4,4
   118bc:	07bd                	addi	a5,a5,15
   118be:	9bc1                	andi	a5,a5,-16
   118c0:	40f10133          	sub	sp,sp,a5
   118c4:	00910023          	sb	s1,0(sp)
   118c8:	57f9                	li	a5,-2
   118ca:	00f100a3          	sb	a5,1(sp)
   118ce:	4087579b          	sraiw	a5,a4,0x8
   118d2:	00f10123          	sb	a5,2(sp)
   118d6:	00e101a3          	sb	a4,3(sp)
   118da:	01093783          	ld	a5,16(s2)
   118de:	4798                	lw	a4,8(a5)
   118e0:	4691                	li	a3,4
   118e2:	860a                	mv	a2,sp
   118e4:	4581                	li	a1,0
   118e6:	6388                	ld	a0,0(a5)
   118e8:	374000ef          	jal	11c5c <_Z9arraycopyIhEvPT_iS1_ii>
   118ec:	858a                	mv	a1,sp
   118ee:	854a                	mv	a0,s2
   118f0:	ef3ff0ef          	jal	117e2 <_ZN11JpegEncoder10WriteArrayEPh>
   118f4:	a801                	j	11904 <_ZN11JpegEncoder12WriteHeadersEv+0xfc>
   118f6:	0002e537          	lui	a0,0x2e
   118fa:	1a050513          	addi	a0,a0,416 # 2e1a0 <__clzdi2+0x36c>
   118fe:	0ed120ef          	jal	241ea <puts>
   11902:	b735                	j	1182e <_ZN11JpegEncoder12WriteHeadersEv+0x26>
   11904:	57fd                	li	a5,-1
   11906:	ecf40423          	sb	a5,-312(s0)
   1190a:	fdb00793          	li	a5,-37
   1190e:	ecf404a3          	sb	a5,-311(s0)
   11912:	ec040523          	sb	zero,-310(s0)
   11916:	f8400793          	li	a5,-124
   1191a:	ecf405a3          	sb	a5,-309(s0)
   1191e:	ec040623          	sb	zero,-308(s0)
   11922:	00039737          	lui	a4,0x39
   11926:	a8070693          	addi	a3,a4,-1408 # 38a80 <_ZN11JpegEncoder16jpegNaturalOrderE>
   1192a:	ecd40613          	addi	a2,s0,-307
   1192e:	10068593          	addi	a1,a3,256
   11932:	a8070713          	addi	a4,a4,-1408
   11936:	6505                	lui	a0,0x1
   11938:	431c                	lw	a5,0(a4)
   1193a:	078a                	slli	a5,a5,0x2
   1193c:	97ca                	add	a5,a5,s2
   1193e:	97aa                	add	a5,a5,a0
   11940:	1147a783          	lw	a5,276(a5)
   11944:	00f60023          	sb	a5,0(a2)
   11948:	0711                	addi	a4,a4,4
   1194a:	0605                	addi	a2,a2,1
   1194c:	feb716e3          	bne	a4,a1,11938 <_ZN11JpegEncoder12WriteHeadersEv+0x130>
   11950:	4785                	li	a5,1
   11952:	f0f406a3          	sb	a5,-243(s0)
   11956:	f0e40713          	addi	a4,s0,-242
   1195a:	6605                	lui	a2,0x1
   1195c:	429c                	lw	a5,0(a3)
   1195e:	078a                	slli	a5,a5,0x2
   11960:	97ca                	add	a5,a5,s2
   11962:	97b2                	add	a5,a5,a2
   11964:	2147a783          	lw	a5,532(a5)
   11968:	00f70023          	sb	a5,0(a4)
   1196c:	0691                	addi	a3,a3,4
   1196e:	0705                	addi	a4,a4,1
   11970:	feb696e3          	bne	a3,a1,1195c <_ZN11JpegEncoder12WriteHeadersEv+0x154>
   11974:	ec840593          	addi	a1,s0,-312
   11978:	854a                	mv	a0,s2
   1197a:	e69ff0ef          	jal	117e2 <_ZN11JpegEncoder10WriteArrayEPh>
   1197e:	57fd                	li	a5,-1
   11980:	eaf40823          	sb	a5,-336(s0)
   11984:	fc000793          	li	a5,-64
   11988:	eaf408a3          	sb	a5,-335(s0)
   1198c:	ea040923          	sb	zero,-334(s0)
   11990:	47c5                	li	a5,17
   11992:	eaf409a3          	sb	a5,-333(s0)
   11996:	01093783          	ld	a5,16(s2)
   1199a:	5b98                	lw	a4,48(a5)
   1199c:	eae40a23          	sb	a4,-332(s0)
   119a0:	5798                	lw	a4,40(a5)
   119a2:	4087569b          	sraiw	a3,a4,0x8
   119a6:	ead40aa3          	sb	a3,-331(s0)
   119aa:	eae40b23          	sb	a4,-330(s0)
   119ae:	57d8                	lw	a4,44(a5)
   119b0:	4087569b          	sraiw	a3,a4,0x8
   119b4:	ead40ba3          	sb	a3,-329(s0)
   119b8:	eae40c23          	sb	a4,-328(s0)
   119bc:	470d                	li	a4,3
   119be:	eae40ca3          	sb	a4,-327(s0)
   119c2:	05078793          	addi	a5,a5,80
   119c6:	eb040693          	addi	a3,s0,-336
   119ca:	4601                	li	a2,0
   119cc:	4398                	lw	a4,0(a5)
   119ce:	00e68523          	sb	a4,10(a3)
   119d2:	47d8                	lw	a4,12(a5)
   119d4:	0047171b          	slliw	a4,a4,0x4
   119d8:	4f8c                	lw	a1,24(a5)
   119da:	9f2d                	addw	a4,a4,a1
   119dc:	00e685a3          	sb	a4,11(a3)
   119e0:	53d8                	lw	a4,36(a5)
   119e2:	00e68623          	sb	a4,12(a3)
   119e6:	2605                	addiw	a2,a2,1 # 1001 <__cxa_bad_cast-0xf0e7>
   119e8:	0791                	addi	a5,a5,4
   119ea:	068d                	addi	a3,a3,3
   119ec:	eb944703          	lbu	a4,-327(s0)
   119f0:	fce64ee3          	blt	a2,a4,119cc <_ZN11JpegEncoder12WriteHeadersEv+0x1c4>
   119f4:	eb040593          	addi	a1,s0,-336
   119f8:	854a                	mv	a0,s2
   119fa:	de9ff0ef          	jal	117e2 <_ZN11JpegEncoder10WriteArrayEPh>
   119fe:	4511                	li	a0,4
   11a00:	6b7020ef          	jal	148b6 <_Znam>
   11a04:	8caa                	mv	s9,a0
   11a06:	57fd                	li	a5,-1
   11a08:	00f50023          	sb	a5,0(a0) # 1000 <__cxa_bad_cast-0xf0e8>
   11a0c:	fc400793          	li	a5,-60
   11a10:	00f500a3          	sb	a5,1(a0)
   11a14:	01890b13          	addi	s6,s2,24
   11a18:	03890d93          	addi	s11,s2,56
   11a1c:	4b91                	li	s7,4
   11a1e:	ea940993          	addi	s3,s0,-343
   11a22:	4a81                	li	s5,0
   11a24:	a099                	j	11a6a <_ZN11JpegEncoder12WriteHeadersEv+0x262>
   11a26:	8a2a                	mv	s4,a0
   11a28:	875e                	mv	a4,s7
   11a2a:	86d6                	mv	a3,s5
   11a2c:	862a                	mv	a2,a0
   11a2e:	85d6                	mv	a1,s5
   11a30:	8566                	mv	a0,s9
   11a32:	22a000ef          	jal	11c5c <_Z9arraycopyIhEvPT_iS1_ii>
   11a36:	4745                	li	a4,17
   11a38:	86de                	mv	a3,s7
   11a3a:	8652                	mv	a2,s4
   11a3c:	85d6                	mv	a1,s5
   11a3e:	e9840513          	addi	a0,s0,-360
   11a42:	21a000ef          	jal	11c5c <_Z9arraycopyIhEvPT_iS1_ii>
   11a46:	8726                	mv	a4,s1
   11a48:	011b869b          	addiw	a3,s7,17
   11a4c:	8652                	mv	a2,s4
   11a4e:	85d6                	mv	a1,s5
   11a50:	856a                	mv	a0,s10
   11a52:	20a000ef          	jal	11c5c <_Z9arraycopyIhEvPT_iS1_ii>
   11a56:	8566                	mv	a0,s9
   11a58:	5dc020ef          	jal	14034 <_ZdaPv>
   11a5c:	e7843103          	ld	sp,-392(s0)
   11a60:	0b21                	addi	s6,s6,8
   11a62:	07bb0863          	beq	s6,s11,11ad2 <_ZN11JpegEncoder12WriteHeadersEv+0x2ca>
   11a66:	8cd2                	mv	s9,s4
   11a68:	8be2                	mv	s7,s8
   11a6a:	e6243c23          	sd	sp,-392(s0)
   11a6e:	865a                	mv	a2,s6
   11a70:	000b3683          	ld	a3,0(s6)
   11a74:	429c                	lw	a5,0(a3)
   11a76:	e8f40c23          	sb	a5,-360(s0)
   11a7a:	0691                	addi	a3,a3,4
   11a7c:	e9940713          	addi	a4,s0,-359
   11a80:	84d6                	mv	s1,s5
   11a82:	429c                	lw	a5,0(a3)
   11a84:	00f70023          	sb	a5,0(a4)
   11a88:	9fa5                	addw	a5,a5,s1
   11a8a:	0007849b          	sext.w	s1,a5
   11a8e:	0691                	addi	a3,a3,4
   11a90:	0705                	addi	a4,a4,1
   11a92:	ff3718e3          	bne	a4,s3,11a82 <_ZN11JpegEncoder12WriteHeadersEv+0x27a>
   11a96:	011b851b          	addiw	a0,s7,17
   11a9a:	00050c1b          	sext.w	s8,a0
   11a9e:	00f48713          	addi	a4,s1,15
   11aa2:	9b41                	andi	a4,a4,-16
   11aa4:	40e10133          	sub	sp,sp,a4
   11aa8:	8d0a                	mv	s10,sp
   11aaa:	02905063          	blez	s1,11aca <_ZN11JpegEncoder12WriteHeadersEv+0x2c2>
   11aae:	7218                	ld	a4,32(a2)
   11ab0:	86ea                	mv	a3,s10
   11ab2:	00249593          	slli	a1,s1,0x2
   11ab6:	95ba                	add	a1,a1,a4
   11ab8:	4310                	lw	a2,0(a4)
   11aba:	00c68023          	sb	a2,0(a3)
   11abe:	0711                	addi	a4,a4,4
   11ac0:	0685                	addi	a3,a3,1
   11ac2:	feb71be3          	bne	a4,a1,11ab8 <_ZN11JpegEncoder12WriteHeadersEv+0x2b0>
   11ac6:	00f50c3b          	addw	s8,a0,a5
   11aca:	8562                	mv	a0,s8
   11acc:	5eb020ef          	jal	148b6 <_Znam>
   11ad0:	bf99                	j	11a26 <_ZN11JpegEncoder12WriteHeadersEv+0x21e>
   11ad2:	ffec079b          	addiw	a5,s8,-2
   11ad6:	4087d79b          	sraiw	a5,a5,0x8
   11ada:	00fa0123          	sb	a5,2(s4)
   11ade:	3c79                	addiw	s8,s8,-2
   11ae0:	018a01a3          	sb	s8,3(s4)
   11ae4:	85d2                	mv	a1,s4
   11ae6:	854a                	mv	a0,s2
   11ae8:	cfbff0ef          	jal	117e2 <_ZN11JpegEncoder10WriteArrayEPh>
   11aec:	8552                	mv	a0,s4
   11aee:	546020ef          	jal	14034 <_ZdaPv>
   11af2:	57fd                	li	a5,-1
   11af4:	e8f40423          	sb	a5,-376(s0)
   11af8:	fda00793          	li	a5,-38
   11afc:	e8f404a3          	sb	a5,-375(s0)
   11b00:	e8040523          	sb	zero,-374(s0)
   11b04:	47b1                	li	a5,12
   11b06:	e8f405a3          	sb	a5,-373(s0)
   11b0a:	478d                	li	a5,3
   11b0c:	e8f40623          	sb	a5,-372(s0)
   11b10:	01093883          	ld	a7,16(s2)
   11b14:	05088713          	addi	a4,a7,80
   11b18:	e8840693          	addi	a3,s0,-376
   11b1c:	4615                	li	a2,5
   11b1e:	4581                	li	a1,0
   11b20:	431c                	lw	a5,0(a4)
   11b22:	00f682a3          	sb	a5,5(a3)
   11b26:	8532                	mv	a0,a2
   11b28:	2609                	addiw	a2,a2,2
   11b2a:	5b1c                	lw	a5,48(a4)
   11b2c:	0047979b          	slliw	a5,a5,0x4
   11b30:	03c72803          	lw	a6,60(a4)
   11b34:	010787bb          	addw	a5,a5,a6
   11b38:	00f68323          	sb	a5,6(a3)
   11b3c:	2585                	addiw	a1,a1,1
   11b3e:	0711                	addi	a4,a4,4
   11b40:	0689                	addi	a3,a3,2
   11b42:	e8c44783          	lbu	a5,-372(s0)
   11b46:	fcf5cde3          	blt	a1,a5,11b20 <_ZN11JpegEncoder12WriteHeadersEv+0x318>
   11b4a:	f9060793          	addi	a5,a2,-112
   11b4e:	00878633          	add	a2,a5,s0
   11b52:	0a08a783          	lw	a5,160(a7)
   11b56:	eef60c23          	sb	a5,-264(a2)
   11b5a:	0035079b          	addiw	a5,a0,3
   11b5e:	f9078793          	addi	a5,a5,-112
   11b62:	97a2                	add	a5,a5,s0
   11b64:	0a48a703          	lw	a4,164(a7)
   11b68:	eee78c23          	sb	a4,-264(a5)
   11b6c:	0045079b          	addiw	a5,a0,4
   11b70:	f9078793          	addi	a5,a5,-112
   11b74:	97a2                	add	a5,a5,s0
   11b76:	0a88a703          	lw	a4,168(a7)
   11b7a:	0047171b          	slliw	a4,a4,0x4
   11b7e:	0ac8a683          	lw	a3,172(a7)
   11b82:	9f35                	addw	a4,a4,a3
   11b84:	eee78c23          	sb	a4,-264(a5)
   11b88:	e8840593          	addi	a1,s0,-376
   11b8c:	854a                	mv	a0,s2
   11b8e:	c55ff0ef          	jal	117e2 <_ZN11JpegEncoder10WriteArrayEPh>
   11b92:	f5043503          	ld	a0,-176(s0)
   11b96:	f6040793          	addi	a5,s0,-160
   11b9a:	00f50763          	beq	a0,a5,11ba8 <_ZN11JpegEncoder12WriteHeadersEv+0x3a0>
   11b9e:	f6043583          	ld	a1,-160(s0)
   11ba2:	0585                	addi	a1,a1,1
   11ba4:	48c020ef          	jal	14030 <_ZdlPvm>
   11ba8:	e7040113          	addi	sp,s0,-400
   11bac:	60ba                	ld	ra,392(sp)
   11bae:	641a                	ld	s0,384(sp)
   11bb0:	74f6                	ld	s1,376(sp)
   11bb2:	7956                	ld	s2,368(sp)
   11bb4:	79b6                	ld	s3,360(sp)
   11bb6:	7a16                	ld	s4,352(sp)
   11bb8:	6af6                	ld	s5,344(sp)
   11bba:	6b56                	ld	s6,336(sp)
   11bbc:	6bb6                	ld	s7,328(sp)
   11bbe:	6c16                	ld	s8,320(sp)
   11bc0:	7cf2                	ld	s9,312(sp)
   11bc2:	7d52                	ld	s10,304(sp)
   11bc4:	7db2                	ld	s11,296(sp)
   11bc6:	6159                	addi	sp,sp,400
   11bc8:	8082                	ret
   11bca:	e7843103          	ld	sp,-392(s0)
   11bce:	84aa                	mv	s1,a0
   11bd0:	f5040513          	addi	a0,s0,-176
   11bd4:	274030ef          	jal	14e48 <_ZNSt7__cxx1112basic_stringIcSt11char_traitsIcESaIcEE10_M_disposeEv>
   11bd8:	8526                	mv	a0,s1
   11bda:	5340f0ef          	jal	2110e <_Unwind_Resume>
   11bde:	84aa                	mv	s1,a0
   11be0:	bfc5                	j	11bd0 <_ZN11JpegEncoder12WriteHeadersEv+0x3c8>

0000000000011be2 <_ZN11JpegEncoder8CompressEv>:
   11be2:	1141                	addi	sp,sp,-16
   11be4:	e406                	sd	ra,8(sp)
   11be6:	e022                	sd	s0,0(sp)
   11be8:	842a                	mv	s0,a0
   11bea:	11c1a783          	lw	a5,284(gp) # 3a02c <verbose>
   11bee:	eb9d                	bnez	a5,11c24 <_ZN11JpegEncoder8CompressEv+0x42>
   11bf0:	8522                	mv	a0,s0
   11bf2:	c17ff0ef          	jal	11808 <_ZN11JpegEncoder12WriteHeadersEv>
   11bf6:	11c1a783          	lw	a5,284(gp) # 3a02c <verbose>
   11bfa:	ef85                	bnez	a5,11c32 <_ZN11JpegEncoder8CompressEv+0x50>
   11bfc:	8522                	mv	a0,s0
   11bfe:	8edff0ef          	jal	114ea <_ZN11JpegEncoder19WriteCompressedDataEv>
   11c02:	11c1a783          	lw	a5,284(gp) # 3a02c <verbose>
   11c06:	ef8d                	bnez	a5,11c40 <_ZN11JpegEncoder8CompressEv+0x5e>
   11c08:	8522                	mv	a0,s0
   11c0a:	bbfff0ef          	jal	117c8 <_ZN11JpegEncoder8WriteEOIEv>
   11c0e:	11c1a783          	lw	a5,284(gp) # 3a02c <verbose>
   11c12:	ef95                	bnez	a5,11c4e <_ZN11JpegEncoder8CompressEv+0x6c>
   11c14:	6408                	ld	a0,8(s0)
   11c16:	611c                	ld	a5,0(a0)
   11c18:	639c                	ld	a5,0(a5)
   11c1a:	9782                	jalr	a5
   11c1c:	60a2                	ld	ra,8(sp)
   11c1e:	6402                	ld	s0,0(sp)
   11c20:	0141                	addi	sp,sp,16
   11c22:	8082                	ret
   11c24:	0002e537          	lui	a0,0x2e
   11c28:	1b050513          	addi	a0,a0,432 # 2e1b0 <__clzdi2+0x37c>
   11c2c:	5be120ef          	jal	241ea <puts>
   11c30:	b7c1                	j	11bf0 <_ZN11JpegEncoder8CompressEv+0xe>
   11c32:	0002e537          	lui	a0,0x2e
   11c36:	1c050513          	addi	a0,a0,448 # 2e1c0 <__clzdi2+0x38c>
   11c3a:	5b0120ef          	jal	241ea <puts>
   11c3e:	bf7d                	j	11bfc <_ZN11JpegEncoder8CompressEv+0x1a>
   11c40:	0002e537          	lui	a0,0x2e
   11c44:	1d850513          	addi	a0,a0,472 # 2e1d8 <__clzdi2+0x3a4>
   11c48:	5a2120ef          	jal	241ea <puts>
   11c4c:	bf75                	j	11c08 <_ZN11JpegEncoder8CompressEv+0x26>
   11c4e:	0002e537          	lui	a0,0x2e
   11c52:	1e850513          	addi	a0,a0,488 # 2e1e8 <__clzdi2+0x3b4>
   11c56:	594120ef          	jal	241ea <puts>
   11c5a:	bf6d                	j	11c14 <_ZN11JpegEncoder8CompressEv+0x32>

0000000000011c5c <_Z9arraycopyIhEvPT_iS1_ii>:
   11c5c:	00e05d63          	blez	a4,11c76 <_Z9arraycopyIhEvPT_iS1_ii+0x1a>
   11c60:	952e                	add	a0,a0,a1
   11c62:	9636                	add	a2,a2,a3
   11c64:	972a                	add	a4,a4,a0
   11c66:	00054783          	lbu	a5,0(a0)
   11c6a:	00f60023          	sb	a5,0(a2)
   11c6e:	0505                	addi	a0,a0,1
   11c70:	0605                	addi	a2,a2,1
   11c72:	fee51ae3          	bne	a0,a4,11c66 <_Z9arraycopyIhEvPT_iS1_ii+0xa>
   11c76:	8082                	ret

0000000000011c78 <_ZN3DCTC1Ev>:
   11c78:	05000793          	li	a5,80
   11c7c:	c11c                	sw	a5,0(a0)
   11c7e:	00450793          	addi	a5,a0,4
   11c82:	40f53423          	sd	a5,1032(a0)
   11c86:	10450793          	addi	a5,a0,260
   11c8a:	40f53c23          	sd	a5,1048(a0)
   11c8e:	20450793          	addi	a5,a0,516
   11c92:	40f53823          	sd	a5,1040(a0)
   11c96:	30450793          	addi	a5,a0,772
   11c9a:	42f53023          	sd	a5,1056(a0)
   11c9e:	8082                	ret

0000000000011ca0 <_ZN3DCT10initMatrixEi>:
   11ca0:	7139                	addi	sp,sp,-64
   11ca2:	fc06                	sd	ra,56(sp)
   11ca4:	f822                	sd	s0,48(sp)
   11ca6:	f426                	sd	s1,40(sp)
   11ca8:	842a                	mv	s0,a0
   11caa:	84ae                	mv	s1,a1
   11cac:	ff01a787          	flw	fa5,-16(gp) # 39f00 <mask+0x60>
   11cb0:	00f12027          	fsw	fa5,0(sp)
   11cb4:	ff41a707          	flw	fa4,-12(gp) # 39f04 <mask+0x64>
   11cb8:	00e12227          	fsw	fa4,4(sp)
   11cbc:	ff81a707          	flw	fa4,-8(gp) # 39f08 <mask+0x68>
   11cc0:	00e12427          	fsw	fa4,8(sp)
   11cc4:	ffc1a707          	flw	fa4,-4(gp) # 39f0c <mask+0x6c>
   11cc8:	00e12627          	fsw	fa4,12(sp)
   11ccc:	00f12827          	fsw	fa5,16(sp)
   11cd0:	0001a787          	flw	fa5,0(gp) # 39f10 <__global_pointer$>
   11cd4:	00f12a27          	fsw	fa5,20(sp)
   11cd8:	0041a787          	flw	fa5,4(gp) # 39f14 <__global_pointer$+0x4>
   11cdc:	00f12c27          	fsw	fa5,24(sp)
   11ce0:	0081a787          	flw	fa5,8(gp) # 39f18 <__global_pointer$+0x8>
   11ce4:	00f12e27          	fsw	fa5,28(sp)
   11ce8:	11c1a783          	lw	a5,284(gp) # 3a02c <verbose>
   11cec:	2a079e63          	bnez	a5,11fa8 <_ZN3DCT10initMatrixEi+0x308>
   11cf0:	2c905363          	blez	s1,11fb6 <_ZN3DCT10initMatrixEi+0x316>
   11cf4:	06400793          	li	a5,100
   11cf8:	2c97c663          	blt	a5,s1,11fc4 <_ZN3DCT10initMatrixEi+0x324>
   11cfc:	03100793          	li	a5,49
   11d00:	2a97dc63          	bge	a5,s1,11fb8 <_ZN3DCT10initMatrixEi+0x318>
   11d04:	06400513          	li	a0,100
   11d08:	9d05                	subw	a0,a0,s1
   11d0a:	0015151b          	slliw	a0,a0,0x1
   11d0e:	40843783          	ld	a5,1032(s0)
   11d12:	46c1                	li	a3,16
   11d14:	c394                	sw	a3,0(a5)
   11d16:	40843783          	ld	a5,1032(s0)
   11d1a:	472d                	li	a4,11
   11d1c:	c3d8                	sw	a4,4(a5)
   11d1e:	40843783          	ld	a5,1032(s0)
   11d22:	4729                	li	a4,10
   11d24:	c798                	sw	a4,8(a5)
   11d26:	40843783          	ld	a5,1032(s0)
   11d2a:	c7d4                	sw	a3,12(a5)
   11d2c:	40843783          	ld	a5,1032(s0)
   11d30:	4761                	li	a4,24
   11d32:	cb98                	sw	a4,16(a5)
   11d34:	40843783          	ld	a5,1032(s0)
   11d38:	02800593          	li	a1,40
   11d3c:	cbcc                	sw	a1,20(a5)
   11d3e:	40843783          	ld	a5,1032(s0)
   11d42:	03300813          	li	a6,51
   11d46:	0107ac23          	sw	a6,24(a5)
   11d4a:	40843783          	ld	a5,1032(s0)
   11d4e:	03d00613          	li	a2,61
   11d52:	cfd0                	sw	a2,28(a5)
   11d54:	40843603          	ld	a2,1032(s0)
   11d58:	47b1                	li	a5,12
   11d5a:	d21c                	sw	a5,32(a2)
   11d5c:	40843603          	ld	a2,1032(s0)
   11d60:	d25c                	sw	a5,36(a2)
   11d62:	40843603          	ld	a2,1032(s0)
   11d66:	47b9                	li	a5,14
   11d68:	d61c                	sw	a5,40(a2)
   11d6a:	40843603          	ld	a2,1032(s0)
   11d6e:	48cd                	li	a7,19
   11d70:	03162623          	sw	a7,44(a2)
   11d74:	40843603          	ld	a2,1032(s0)
   11d78:	48e9                	li	a7,26
   11d7a:	03162823          	sw	a7,48(a2)
   11d7e:	40843603          	ld	a2,1032(s0)
   11d82:	03a00893          	li	a7,58
   11d86:	03162a23          	sw	a7,52(a2)
   11d8a:	40843603          	ld	a2,1032(s0)
   11d8e:	03c00893          	li	a7,60
   11d92:	03162c23          	sw	a7,56(a2)
   11d96:	40843883          	ld	a7,1032(s0)
   11d9a:	03700613          	li	a2,55
   11d9e:	02c8ae23          	sw	a2,60(a7)
   11da2:	40843883          	ld	a7,1032(s0)
   11da6:	04f8a023          	sw	a5,64(a7)
   11daa:	40843883          	ld	a7,1032(s0)
   11dae:	4335                	li	t1,13
   11db0:	0468a223          	sw	t1,68(a7)
   11db4:	40843883          	ld	a7,1032(s0)
   11db8:	04d8a423          	sw	a3,72(a7)
   11dbc:	40843683          	ld	a3,1032(s0)
   11dc0:	c6f8                	sw	a4,76(a3)
   11dc2:	40843683          	ld	a3,1032(s0)
   11dc6:	caac                	sw	a1,80(a3)
   11dc8:	40843683          	ld	a3,1032(s0)
   11dcc:	03900593          	li	a1,57
   11dd0:	caec                	sw	a1,84(a3)
   11dd2:	40843683          	ld	a3,1032(s0)
   11dd6:	04500593          	li	a1,69
   11dda:	ceac                	sw	a1,88(a3)
   11ddc:	40843683          	ld	a3,1032(s0)
   11de0:	03800593          	li	a1,56
   11de4:	ceec                	sw	a1,92(a3)
   11de6:	40843683          	ld	a3,1032(s0)
   11dea:	d2bc                	sw	a5,96(a3)
   11dec:	40843783          	ld	a5,1032(s0)
   11df0:	46c5                	li	a3,17
   11df2:	d3f4                	sw	a3,100(a5)
   11df4:	40843683          	ld	a3,1032(s0)
   11df8:	47d9                	li	a5,22
   11dfa:	d6bc                	sw	a5,104(a3)
   11dfc:	40843683          	ld	a3,1032(s0)
   11e00:	48f5                	li	a7,29
   11e02:	0716a623          	sw	a7,108(a3)
   11e06:	40843683          	ld	a3,1032(s0)
   11e0a:	0706a823          	sw	a6,112(a3)
   11e0e:	40843803          	ld	a6,1032(s0)
   11e12:	05700693          	li	a3,87
   11e16:	06d82a23          	sw	a3,116(a6)
   11e1a:	40843803          	ld	a6,1032(s0)
   11e1e:	05000893          	li	a7,80
   11e22:	07182c23          	sw	a7,120(a6)
   11e26:	40843803          	ld	a6,1032(s0)
   11e2a:	03e00893          	li	a7,62
   11e2e:	07182e23          	sw	a7,124(a6)
   11e32:	40843803          	ld	a6,1032(s0)
   11e36:	48c9                	li	a7,18
   11e38:	09182023          	sw	a7,128(a6)
   11e3c:	40843803          	ld	a6,1032(s0)
   11e40:	08f82223          	sw	a5,132(a6)
   11e44:	40843783          	ld	a5,1032(s0)
   11e48:	02500813          	li	a6,37
   11e4c:	0907a423          	sw	a6,136(a5)
   11e50:	40843783          	ld	a5,1032(s0)
   11e54:	08b7a623          	sw	a1,140(a5)
   11e58:	40843783          	ld	a5,1032(s0)
   11e5c:	04400593          	li	a1,68
   11e60:	08b7a823          	sw	a1,144(a5)
   11e64:	40843783          	ld	a5,1032(s0)
   11e68:	06d00593          	li	a1,109
   11e6c:	08b7aa23          	sw	a1,148(a5)
   11e70:	40843583          	ld	a1,1032(s0)
   11e74:	06700793          	li	a5,103
   11e78:	08f5ac23          	sw	a5,152(a1)
   11e7c:	40843583          	ld	a1,1032(s0)
   11e80:	04d00813          	li	a6,77
   11e84:	0905ae23          	sw	a6,156(a1)
   11e88:	40843583          	ld	a1,1032(s0)
   11e8c:	0ae5a023          	sw	a4,160(a1)
   11e90:	40843703          	ld	a4,1032(s0)
   11e94:	02300593          	li	a1,35
   11e98:	0ab72223          	sw	a1,164(a4)
   11e9c:	40843703          	ld	a4,1032(s0)
   11ea0:	0ac72423          	sw	a2,168(a4)
   11ea4:	40843703          	ld	a4,1032(s0)
   11ea8:	04000613          	li	a2,64
   11eac:	0ac72623          	sw	a2,172(a4)
   11eb0:	40843703          	ld	a4,1032(s0)
   11eb4:	05100593          	li	a1,81
   11eb8:	0ab72823          	sw	a1,176(a4)
   11ebc:	40843703          	ld	a4,1032(s0)
   11ec0:	06800593          	li	a1,104
   11ec4:	0ab72a23          	sw	a1,180(a4)
   11ec8:	40843703          	ld	a4,1032(s0)
   11ecc:	07100593          	li	a1,113
   11ed0:	0ab72c23          	sw	a1,184(a4)
   11ed4:	40843583          	ld	a1,1032(s0)
   11ed8:	05c00713          	li	a4,92
   11edc:	0ae5ae23          	sw	a4,188(a1)
   11ee0:	40843583          	ld	a1,1032(s0)
   11ee4:	03100813          	li	a6,49
   11ee8:	0d05a023          	sw	a6,192(a1)
   11eec:	40843583          	ld	a1,1032(s0)
   11ef0:	0cc5a223          	sw	a2,196(a1)
   11ef4:	40843603          	ld	a2,1032(s0)
   11ef8:	04e00593          	li	a1,78
   11efc:	0cb62423          	sw	a1,200(a2)
   11f00:	40843603          	ld	a2,1032(s0)
   11f04:	0cd62623          	sw	a3,204(a2)
   11f08:	40843683          	ld	a3,1032(s0)
   11f0c:	0cf6a823          	sw	a5,208(a3)
   11f10:	40843683          	ld	a3,1032(s0)
   11f14:	07900613          	li	a2,121
   11f18:	0cc6aa23          	sw	a2,212(a3)
   11f1c:	40843683          	ld	a3,1032(s0)
   11f20:	07800613          	li	a2,120
   11f24:	0cc6ac23          	sw	a2,216(a3)
   11f28:	40843683          	ld	a3,1032(s0)
   11f2c:	06500613          	li	a2,101
   11f30:	0cc6ae23          	sw	a2,220(a3)
   11f34:	40843683          	ld	a3,1032(s0)
   11f38:	04800613          	li	a2,72
   11f3c:	0ec6a023          	sw	a2,224(a3)
   11f40:	40843683          	ld	a3,1032(s0)
   11f44:	0ee6a223          	sw	a4,228(a3)
   11f48:	40843703          	ld	a4,1032(s0)
   11f4c:	05f00693          	li	a3,95
   11f50:	0ed72423          	sw	a3,232(a4)
   11f54:	40843703          	ld	a4,1032(s0)
   11f58:	06200693          	li	a3,98
   11f5c:	0ed72623          	sw	a3,236(a4)
   11f60:	40843703          	ld	a4,1032(s0)
   11f64:	07000693          	li	a3,112
   11f68:	0ed72823          	sw	a3,240(a4)
   11f6c:	40843703          	ld	a4,1032(s0)
   11f70:	06400693          	li	a3,100
   11f74:	0ed72a23          	sw	a3,244(a4)
   11f78:	40843703          	ld	a4,1032(s0)
   11f7c:	0ef72c23          	sw	a5,248(a4)
   11f80:	40843783          	ld	a5,1032(s0)
   11f84:	06300713          	li	a4,99
   11f88:	0ee7ae23          	sw	a4,252(a5)
   11f8c:	4681                	li	a3,0
   11f8e:	03100313          	li	t1,49
   11f92:	4885                	li	a7,1
   11f94:	6e19                	lui	t3,0x6
   11f96:	3cde0e13          	addi	t3,t3,973 # 63cd <__cxa_bad_cast-0x9d1b>
   11f9a:	0ff00e93          	li	t4,255
   11f9e:	06400f13          	li	t5,100
   11fa2:	10000813          	li	a6,256
   11fa6:	a035                	j	11fd2 <_ZN3DCT10initMatrixEi+0x332>
   11fa8:	0002e537          	lui	a0,0x2e
   11fac:	1f050513          	addi	a0,a0,496 # 2e1f0 <__clzdi2+0x3bc>
   11fb0:	0ae120ef          	jal	2405e <printf>
   11fb4:	bb35                	j	11cf0 <_ZN3DCT10initMatrixEi+0x50>
   11fb6:	4485                	li	s1,1
   11fb8:	6505                	lui	a0,0x1
   11fba:	3885051b          	addiw	a0,a0,904 # 1388 <__cxa_bad_cast-0xed60>
   11fbe:	0295453b          	divw	a0,a0,s1
   11fc2:	b3b1                	j	11d0e <_ZN3DCT10initMatrixEi+0x6e>
   11fc4:	06400493          	li	s1,100
   11fc8:	bb35                	j	11d04 <_ZN3DCT10initMatrixEi+0x64>
   11fca:	c390                	sw	a2,0(a5)
   11fcc:	0691                	addi	a3,a3,4
   11fce:	03068563          	beq	a3,a6,11ff8 <_ZN3DCT10initMatrixEi+0x358>
   11fd2:	40843783          	ld	a5,1032(s0)
   11fd6:	97b6                	add	a5,a5,a3
   11fd8:	4398                	lw	a4,0(a5)
   11fda:	02a7073b          	mulw	a4,a4,a0
   11fde:	0007059b          	sext.w	a1,a4
   11fe2:	8646                	mv	a2,a7
   11fe4:	feb353e3          	bge	t1,a1,11fca <_ZN3DCT10initMatrixEi+0x32a>
   11fe8:	8676                	mv	a2,t4
   11fea:	febe40e3          	blt	t3,a1,11fca <_ZN3DCT10initMatrixEi+0x32a>
   11fee:	0327071b          	addiw	a4,a4,50
   11ff2:	03e7463b          	divw	a2,a4,t5
   11ff6:	bfd1                	j	11fca <_ZN3DCT10initMatrixEi+0x32a>
   11ff8:	830a                	mv	t1,sp
   11ffa:	406008b3          	neg	a7,t1
   11ffe:	85c6                	mv	a1,a7
   12000:	8e9a                	mv	t4,t1
   12002:	4e01                	li	t3,0
   12004:	02030813          	addi	a6,t1,32
   12008:	00c1a587          	flw	fa1,12(gp) # 39f1c <__global_pointer$+0xc>
   1200c:	ff01a607          	flw	fa2,-16(gp) # 39f00 <mask+0x60>
   12010:	04000f13          	li	t5,64
   12014:	000ea687          	flw	fa3,0(t4)
   12018:	879a                	mv	a5,t1
   1201a:	00b78633          	add	a2,a5,a1
   1201e:	41043703          	ld	a4,1040(s0)
   12022:	9732                	add	a4,a4,a2
   12024:	40843683          	ld	a3,1032(s0)
   12028:	96b2                	add	a3,a3,a2
   1202a:	4294                	lw	a3,0(a3)
   1202c:	d006f7d3          	fcvt.s.w	fa5,a3
   12030:	10d7f7d3          	fmul.s	fa5,fa5,fa3
   12034:	0007a707          	flw	fa4,0(a5)
   12038:	10e7f7d3          	fmul.s	fa5,fa5,fa4
   1203c:	10b7f7d3          	fmul.s	fa5,fa5,fa1
   12040:	18f677d3          	fdiv.s	fa5,fa2,fa5
   12044:	00f72027          	fsw	fa5,0(a4)
   12048:	0791                	addi	a5,a5,4
   1204a:	fd0798e3          	bne	a5,a6,1201a <_ZN3DCT10initMatrixEi+0x37a>
   1204e:	2e21                	addiw	t3,t3,8
   12050:	0e91                	addi	t4,t4,4
   12052:	02058593          	addi	a1,a1,32
   12056:	fbee1fe3          	bne	t3,t5,12014 <_ZN3DCT10initMatrixEi+0x374>
   1205a:	41843783          	ld	a5,1048(s0)
   1205e:	4745                	li	a4,17
   12060:	c398                	sw	a4,0(a5)
   12062:	41843783          	ld	a5,1048(s0)
   12066:	4749                	li	a4,18
   12068:	c3d8                	sw	a4,4(a5)
   1206a:	41843783          	ld	a5,1048(s0)
   1206e:	45e1                	li	a1,24
   12070:	c78c                	sw	a1,8(a5)
   12072:	41843783          	ld	a5,1048(s0)
   12076:	02f00693          	li	a3,47
   1207a:	c7d4                	sw	a3,12(a5)
   1207c:	41843603          	ld	a2,1048(s0)
   12080:	06300793          	li	a5,99
   12084:	ca1c                	sw	a5,16(a2)
   12086:	41843603          	ld	a2,1048(s0)
   1208a:	ca5c                	sw	a5,20(a2)
   1208c:	41843603          	ld	a2,1048(s0)
   12090:	ce1c                	sw	a5,24(a2)
   12092:	41843603          	ld	a2,1048(s0)
   12096:	ce5c                	sw	a5,28(a2)
   12098:	41843603          	ld	a2,1048(s0)
   1209c:	d218                	sw	a4,32(a2)
   1209e:	41843703          	ld	a4,1048(s0)
   120a2:	4655                	li	a2,21
   120a4:	d350                	sw	a2,36(a4)
   120a6:	41843703          	ld	a4,1048(s0)
   120aa:	4669                	li	a2,26
   120ac:	d710                	sw	a2,40(a4)
   120ae:	41843e03          	ld	t3,1048(s0)
   120b2:	04200713          	li	a4,66
   120b6:	02ee2623          	sw	a4,44(t3)
   120ba:	41843e03          	ld	t3,1048(s0)
   120be:	02fe2823          	sw	a5,48(t3)
   120c2:	41843e03          	ld	t3,1048(s0)
   120c6:	02fe2a23          	sw	a5,52(t3)
   120ca:	41843e03          	ld	t3,1048(s0)
   120ce:	02fe2c23          	sw	a5,56(t3)
   120d2:	41843e03          	ld	t3,1048(s0)
   120d6:	02fe2e23          	sw	a5,60(t3)
   120da:	41843e03          	ld	t3,1048(s0)
   120de:	04be2023          	sw	a1,64(t3)
   120e2:	41843583          	ld	a1,1048(s0)
   120e6:	c1f0                	sw	a2,68(a1)
   120e8:	41843603          	ld	a2,1048(s0)
   120ec:	03800593          	li	a1,56
   120f0:	c62c                	sw	a1,72(a2)
   120f2:	41843603          	ld	a2,1048(s0)
   120f6:	c67c                	sw	a5,76(a2)
   120f8:	41843603          	ld	a2,1048(s0)
   120fc:	ca3c                	sw	a5,80(a2)
   120fe:	41843603          	ld	a2,1048(s0)
   12102:	ca7c                	sw	a5,84(a2)
   12104:	41843603          	ld	a2,1048(s0)
   12108:	ce3c                	sw	a5,88(a2)
   1210a:	41843603          	ld	a2,1048(s0)
   1210e:	ce7c                	sw	a5,92(a2)
   12110:	41843603          	ld	a2,1048(s0)
   12114:	d234                	sw	a3,96(a2)
   12116:	41843683          	ld	a3,1048(s0)
   1211a:	d2f8                	sw	a4,100(a3)
   1211c:	41843703          	ld	a4,1048(s0)
   12120:	d73c                	sw	a5,104(a4)
   12122:	41843703          	ld	a4,1048(s0)
   12126:	d77c                	sw	a5,108(a4)
   12128:	41843703          	ld	a4,1048(s0)
   1212c:	db3c                	sw	a5,112(a4)
   1212e:	41843703          	ld	a4,1048(s0)
   12132:	db7c                	sw	a5,116(a4)
   12134:	41843703          	ld	a4,1048(s0)
   12138:	df3c                	sw	a5,120(a4)
   1213a:	41843703          	ld	a4,1048(s0)
   1213e:	df7c                	sw	a5,124(a4)
   12140:	41843703          	ld	a4,1048(s0)
   12144:	08f72023          	sw	a5,128(a4)
   12148:	41843703          	ld	a4,1048(s0)
   1214c:	08f72223          	sw	a5,132(a4)
   12150:	41843703          	ld	a4,1048(s0)
   12154:	08f72423          	sw	a5,136(a4)
   12158:	41843703          	ld	a4,1048(s0)
   1215c:	08f72623          	sw	a5,140(a4)
   12160:	41843703          	ld	a4,1048(s0)
   12164:	08f72823          	sw	a5,144(a4)
   12168:	41843703          	ld	a4,1048(s0)
   1216c:	08f72a23          	sw	a5,148(a4)
   12170:	41843703          	ld	a4,1048(s0)
   12174:	08f72c23          	sw	a5,152(a4)
   12178:	41843703          	ld	a4,1048(s0)
   1217c:	08f72e23          	sw	a5,156(a4)
   12180:	41843703          	ld	a4,1048(s0)
   12184:	0af72023          	sw	a5,160(a4)
   12188:	41843703          	ld	a4,1048(s0)
   1218c:	0af72223          	sw	a5,164(a4)
   12190:	41843703          	ld	a4,1048(s0)
   12194:	0af72423          	sw	a5,168(a4)
   12198:	41843703          	ld	a4,1048(s0)
   1219c:	0af72623          	sw	a5,172(a4)
   121a0:	41843703          	ld	a4,1048(s0)
   121a4:	0af72823          	sw	a5,176(a4)
   121a8:	41843703          	ld	a4,1048(s0)
   121ac:	0af72a23          	sw	a5,180(a4)
   121b0:	41843703          	ld	a4,1048(s0)
   121b4:	0af72c23          	sw	a5,184(a4)
   121b8:	41843703          	ld	a4,1048(s0)
   121bc:	0af72e23          	sw	a5,188(a4)
   121c0:	41843703          	ld	a4,1048(s0)
   121c4:	0cf72023          	sw	a5,192(a4)
   121c8:	41843703          	ld	a4,1048(s0)
   121cc:	0cf72223          	sw	a5,196(a4)
   121d0:	41843703          	ld	a4,1048(s0)
   121d4:	0cf72423          	sw	a5,200(a4)
   121d8:	41843703          	ld	a4,1048(s0)
   121dc:	0cf72623          	sw	a5,204(a4)
   121e0:	41843703          	ld	a4,1048(s0)
   121e4:	0cf72823          	sw	a5,208(a4)
   121e8:	41843703          	ld	a4,1048(s0)
   121ec:	0cf72a23          	sw	a5,212(a4)
   121f0:	41843703          	ld	a4,1048(s0)
   121f4:	0cf72c23          	sw	a5,216(a4)
   121f8:	41843703          	ld	a4,1048(s0)
   121fc:	0cf72e23          	sw	a5,220(a4)
   12200:	41843703          	ld	a4,1048(s0)
   12204:	0ef72023          	sw	a5,224(a4)
   12208:	41843703          	ld	a4,1048(s0)
   1220c:	0ef72223          	sw	a5,228(a4)
   12210:	41843703          	ld	a4,1048(s0)
   12214:	0ef72423          	sw	a5,232(a4)
   12218:	41843703          	ld	a4,1048(s0)
   1221c:	0ef72623          	sw	a5,236(a4)
   12220:	41843703          	ld	a4,1048(s0)
   12224:	0ef72823          	sw	a5,240(a4)
   12228:	41843703          	ld	a4,1048(s0)
   1222c:	0ef72a23          	sw	a5,244(a4)
   12230:	41843703          	ld	a4,1048(s0)
   12234:	0ef72c23          	sw	a5,248(a4)
   12238:	41843703          	ld	a4,1048(s0)
   1223c:	0ef72e23          	sw	a5,252(a4)
   12240:	4681                	li	a3,0
   12242:	03100f13          	li	t5,49
   12246:	4e85                	li	t4,1
   12248:	6f99                	lui	t6,0x6
   1224a:	369f8f93          	addi	t6,t6,873 # 6369 <__cxa_bad_cast-0x9d7f>
   1224e:	0ff00293          	li	t0,255
   12252:	06400393          	li	t2,100
   12256:	10000e13          	li	t3,256
   1225a:	a029                	j	12264 <_ZN3DCT10initMatrixEi+0x5c4>
   1225c:	c390                	sw	a2,0(a5)
   1225e:	0691                	addi	a3,a3,4
   12260:	03c68563          	beq	a3,t3,1228a <_ZN3DCT10initMatrixEi+0x5ea>
   12264:	41843783          	ld	a5,1048(s0)
   12268:	97b6                	add	a5,a5,a3
   1226a:	4398                	lw	a4,0(a5)
   1226c:	02a7073b          	mulw	a4,a4,a0
   12270:	0007059b          	sext.w	a1,a4
   12274:	8676                	mv	a2,t4
   12276:	febf53e3          	bge	t5,a1,1225c <_ZN3DCT10initMatrixEi+0x5bc>
   1227a:	8616                	mv	a2,t0
   1227c:	febfc0e3          	blt	t6,a1,1225c <_ZN3DCT10initMatrixEi+0x5bc>
   12280:	0327071b          	addiw	a4,a4,50
   12284:	0277463b          	divw	a2,a4,t2
   12288:	bfd1                	j	1225c <_ZN3DCT10initMatrixEi+0x5bc>
   1228a:	851a                	mv	a0,t1
   1228c:	4581                	li	a1,0
   1228e:	00c1a587          	flw	fa1,12(gp) # 39f1c <__global_pointer$+0xc>
   12292:	ff01a607          	flw	fa2,-16(gp) # 39f00 <mask+0x60>
   12296:	04000e13          	li	t3,64
   1229a:	00052687          	flw	fa3,0(a0)
   1229e:	879a                	mv	a5,t1
   122a0:	01178633          	add	a2,a5,a7
   122a4:	42043703          	ld	a4,1056(s0)
   122a8:	9732                	add	a4,a4,a2
   122aa:	41843683          	ld	a3,1048(s0)
   122ae:	96b2                	add	a3,a3,a2
   122b0:	4294                	lw	a3,0(a3)
   122b2:	d006f7d3          	fcvt.s.w	fa5,a3
   122b6:	10d7f7d3          	fmul.s	fa5,fa5,fa3
   122ba:	0007a707          	flw	fa4,0(a5)
   122be:	10e7f7d3          	fmul.s	fa5,fa5,fa4
   122c2:	10b7f7d3          	fmul.s	fa5,fa5,fa1
   122c6:	18f677d3          	fdiv.s	fa5,fa2,fa5
   122ca:	00f72027          	fsw	fa5,0(a4)
   122ce:	0791                	addi	a5,a5,4
   122d0:	fd0798e3          	bne	a5,a6,122a0 <_ZN3DCT10initMatrixEi+0x600>
   122d4:	25a1                	addiw	a1,a1,8
   122d6:	0511                	addi	a0,a0,4
   122d8:	02088893          	addi	a7,a7,32
   122dc:	fbc59fe3          	bne	a1,t3,1229a <_ZN3DCT10initMatrixEi+0x5fa>
   122e0:	70e2                	ld	ra,56(sp)
   122e2:	7442                	ld	s0,48(sp)
   122e4:	74a2                	ld	s1,40(sp)
   122e6:	6121                	addi	sp,sp,64
   122e8:	8082                	ret

00000000000122ea <_ZN3DCT4initEi>:
   122ea:	1141                	addi	sp,sp,-16
   122ec:	e406                	sd	ra,8(sp)
   122ee:	9b3ff0ef          	jal	11ca0 <_ZN3DCT10initMatrixEi>
   122f2:	60a2                	ld	ra,8(sp)
   122f4:	0141                	addi	sp,sp,16
   122f6:	8082                	ret

00000000000122f8 <_ZN3DCT17forwardDCTExtremeEPA8_fS1_>:
   122f8:	7115                	addi	sp,sp,-224
   122fa:	ed86                	sd	ra,216(sp)
   122fc:	e9a2                	sd	s0,208(sp)
   122fe:	e5a6                	sd	s1,200(sp)
   12300:	e1ca                	sd	s2,192(sp)
   12302:	fd4e                	sd	s3,184(sp)
   12304:	f952                	sd	s4,176(sp)
   12306:	f556                	sd	s5,168(sp)
   12308:	f15a                	sd	s6,160(sp)
   1230a:	ed5e                	sd	s7,152(sp)
   1230c:	e962                	sd	s8,144(sp)
   1230e:	e566                	sd	s9,136(sp)
   12310:	e16a                	sd	s10,128(sp)
   12312:	fcee                	sd	s11,120(sp)
   12314:	b4a2                	fsd	fs0,104(sp)
   12316:	b0a6                	fsd	fs1,96(sp)
   12318:	acca                	fsd	fs2,88(sp)
   1231a:	a8ce                	fsd	fs3,80(sp)
   1231c:	a4d2                	fsd	fs4,72(sp)
   1231e:	a0d6                	fsd	fs5,64(sp)
   12320:	bc5a                	fsd	fs6,56(sp)
   12322:	b85e                	fsd	fs7,48(sp)
   12324:	b462                	fsd	fs8,40(sp)
   12326:	b066                	fsd	fs9,32(sp)
   12328:	ac6a                	fsd	fs10,24(sp)
   1232a:	a86e                	fsd	fs11,16(sp)
   1232c:	8cae                	mv	s9,a1
   1232e:	e432                	sd	a2,8(sp)
   12330:	4d81                	li	s11,0
   12332:	e281bd87          	fld	fs11,-472(gp) # 39d38 <__SDATA_BEGIN__>
   12336:	e501bd07          	fld	fs10,-432(gp) # 39d60 <__SDATA_BEGIN__+0x28>
   1233a:	4b05                	li	s6,1
   1233c:	e381bb07          	fld	fs6,-456(gp) # 39d48 <__SDATA_BEGIN__+0x10>
   12340:	e401ba87          	fld	fs5,-448(gp) # 39d50 <__SDATA_BEGIN__+0x18>
   12344:	236b0953          	fmv.d	fs2,fs6
   12348:	235a84d3          	fmv.d	fs1,fs5
   1234c:	49c5                	li	s3,17
   1234e:	e581bc87          	fld	fs9,-424(gp) # 39d68 <__SDATA_BEGIN__+0x30>
   12352:	e481bc07          	fld	fs8,-440(gp) # 39d58 <__SDATA_BEGIN__+0x20>
   12356:	4d21                	li	s10,8
   12358:	a0c1                	j	12418 <_ZN3DCT17forwardDCTExtremeEPA8_fS1_+0x120>
   1235a:	139bf7d3          	fmul.d	fa5,fs7,fs9
   1235e:	42050553          	fcvt.d.s	fa0,fa0
   12362:	12a7f7d3          	fmul.d	fa5,fa5,fa0
   12366:	4017f7d3          	fcvt.s.d	fa5,fa5
   1236a:	00fc2027          	fsw	fa5,0(s8)
   1236e:	2b85                	addiw	s7,s7,1
   12370:	0911                	addi	s2,s2,4
   12372:	8ae6                	mv	s5,s9
   12374:	8a5a                	mv	s4,s6
   12376:	d00bfa53          	fcvt.s.w	fs4,s7
   1237a:	8c4a                	mv	s8,s2
   1237c:	d00a7553          	fcvt.s.w	fa0,s4
   12380:	11457553          	fmul.s	fa0,fa0,fs4
   12384:	42050553          	fcvt.d.s	fa0,fa0
   12388:	13657553          	fmul.d	fa0,fa0,fs6
   1238c:	13557553          	fmul.d	fa0,fa0,fs5
   12390:	64f0b0ef          	jal	1e1de <cos>
   12394:	22a50453          	fmv.d	fs0,fa0
   12398:	84d6                	mv	s1,s5
   1239a:	845a                	mv	s0,s6
   1239c:	d0047553          	fcvt.s.w	fa0,s0
   123a0:	11357553          	fmul.s	fa0,fa0,fs3
   123a4:	42050553          	fcvt.d.s	fa0,fa0
   123a8:	13257553          	fmul.d	fa0,fa0,fs2
   123ac:	12957553          	fmul.d	fa0,fa0,fs1
   123b0:	62f0b0ef          	jal	1e1de <cos>
   123b4:	0004a787          	flw	fa5,0(s1)
   123b8:	420787d3          	fcvt.d.s	fa5,fa5
   123bc:	1287f7d3          	fmul.d	fa5,fa5,fs0
   123c0:	12a7f553          	fmul.d	fa0,fa5,fa0
   123c4:	00092787          	flw	fa5,0(s2)
   123c8:	420787d3          	fcvt.d.s	fa5,fa5
   123cc:	02f57553          	fadd.d	fa0,fa0,fa5
   123d0:	40157553          	fcvt.s.d	fa0,fa0
   123d4:	00a92027          	fsw	fa0,0(s2)
   123d8:	0491                	addi	s1,s1,4
   123da:	2409                	addiw	s0,s0,2
   123dc:	fd3410e3          	bne	s0,s3,1239c <_ZN3DCT17forwardDCTExtremeEPA8_fS1_+0xa4>
   123e0:	2a09                	addiw	s4,s4,2
   123e2:	020a8a93          	addi	s5,s5,32
   123e6:	f93a1be3          	bne	s4,s3,1237c <_ZN3DCT17forwardDCTExtremeEPA8_fS1_+0x84>
   123ea:	f60b88e3          	beqz	s7,1235a <_ZN3DCT17forwardDCTExtremeEPA8_fS1_+0x62>
   123ee:	138bf7d3          	fmul.d	fa5,fs7,fs8
   123f2:	42050553          	fcvt.d.s	fa0,fa0
   123f6:	12a7f7d3          	fmul.d	fa5,fa5,fa0
   123fa:	4017f7d3          	fcvt.s.d	fa5,fa5
   123fe:	00fc2027          	fsw	fa5,0(s8)
   12402:	2b85                	addiw	s7,s7,1
   12404:	0911                	addi	s2,s2,4
   12406:	f7ab96e3          	bne	s7,s10,12372 <_ZN3DCT17forwardDCTExtremeEPA8_fS1_+0x7a>
   1240a:	2d85                	addiw	s11,s11,1
   1240c:	67a2                	ld	a5,8(sp)
   1240e:	02078793          	addi	a5,a5,32
   12412:	e43e                	sd	a5,8(sp)
   12414:	01ad8d63          	beq	s11,s10,1242e <_ZN3DCT17forwardDCTExtremeEPA8_fS1_+0x136>
   12418:	23bd8bd3          	fmv.d	fs7,fs11
   1241c:	000d9463          	bnez	s11,12424 <_ZN3DCT17forwardDCTExtremeEPA8_fS1_+0x12c>
   12420:	23ad0bd3          	fmv.d	fs7,fs10
   12424:	6922                	ld	s2,8(sp)
   12426:	4b81                	li	s7,0
   12428:	d00df9d3          	fcvt.s.w	fs3,s11
   1242c:	b799                	j	12372 <_ZN3DCT17forwardDCTExtremeEPA8_fS1_+0x7a>
   1242e:	60ee                	ld	ra,216(sp)
   12430:	644e                	ld	s0,208(sp)
   12432:	64ae                	ld	s1,200(sp)
   12434:	690e                	ld	s2,192(sp)
   12436:	79ea                	ld	s3,184(sp)
   12438:	7a4a                	ld	s4,176(sp)
   1243a:	7aaa                	ld	s5,168(sp)
   1243c:	7b0a                	ld	s6,160(sp)
   1243e:	6bea                	ld	s7,152(sp)
   12440:	6c4a                	ld	s8,144(sp)
   12442:	6caa                	ld	s9,136(sp)
   12444:	6d0a                	ld	s10,128(sp)
   12446:	7de6                	ld	s11,120(sp)
   12448:	3426                	fld	fs0,104(sp)
   1244a:	3486                	fld	fs1,96(sp)
   1244c:	2966                	fld	fs2,88(sp)
   1244e:	29c6                	fld	fs3,80(sp)
   12450:	2a26                	fld	fs4,72(sp)
   12452:	2a86                	fld	fs5,64(sp)
   12454:	3b62                	fld	fs6,56(sp)
   12456:	3bc2                	fld	fs7,48(sp)
   12458:	3c22                	fld	fs8,40(sp)
   1245a:	3c82                	fld	fs9,32(sp)
   1245c:	2d62                	fld	fs10,24(sp)
   1245e:	2dc2                	fld	fs11,16(sp)
   12460:	612d                	addi	sp,sp,224
   12462:	8082                	ret

0000000000012464 <_ZN3DCT10forwardDCTEPA8_fS1_>:
   12464:	02058693          	addi	a3,a1,32
   12468:	12058513          	addi	a0,a1,288
   1246c:	85b2                	mv	a1,a2
   1246e:	0101a707          	flw	fa4,16(gp) # 39f20 <__global_pointer$+0x10>
   12472:	fe068793          	addi	a5,a3,-32
   12476:	872e                	mv	a4,a1
   12478:	0007a787          	flw	fa5,0(a5)
   1247c:	08e7f7d3          	fsub.s	fa5,fa5,fa4
   12480:	00f72027          	fsw	fa5,0(a4)
   12484:	0791                	addi	a5,a5,4
   12486:	0711                	addi	a4,a4,4
   12488:	fed798e3          	bne	a5,a3,12478 <_ZN3DCT10forwardDCTEPA8_fS1_+0x14>
   1248c:	02058593          	addi	a1,a1,32
   12490:	02068693          	addi	a3,a3,32
   12494:	fca69fe3          	bne	a3,a0,12472 <_ZN3DCT10forwardDCTEPA8_fS1_+0xe>
   12498:	10060713          	addi	a4,a2,256
   1249c:	87b2                	mv	a5,a2
   1249e:	0141a087          	flw	ft1,20(gp) # 39f24 <__global_pointer$+0x14>
   124a2:	0181a207          	flw	ft4,24(gp) # 39f28 <__global_pointer$+0x18>
   124a6:	0041a187          	flw	ft3,4(gp) # 39f14 <__global_pointer$+0x4>
   124aa:	ff81a107          	flw	ft2,-8(gp) # 39f08 <mask+0x68>
   124ae:	0007a707          	flw	fa4,0(a5)
   124b2:	01c7a787          	flw	fa5,28(a5)
   124b6:	00f77653          	fadd.s	fa2,fa4,fa5
   124ba:	08f77753          	fsub.s	fa4,fa4,fa5
   124be:	0047a587          	flw	fa1,4(a5)
   124c2:	0187a787          	flw	fa5,24(a5)
   124c6:	00f5f6d3          	fadd.s	fa3,fa1,fa5
   124ca:	08f5f5d3          	fsub.s	fa1,fa1,fa5
   124ce:	0087a507          	flw	fa0,8(a5)
   124d2:	0147a787          	flw	fa5,20(a5)
   124d6:	00f57353          	fadd.s	ft6,fa0,fa5
   124da:	08f57553          	fsub.s	fa0,fa0,fa5
   124de:	00c7a787          	flw	fa5,12(a5)
   124e2:	0107a287          	flw	ft5,16(a5)
   124e6:	0057f3d3          	fadd.s	ft7,fa5,ft5
   124ea:	00767053          	fadd.s	ft0,fa2,ft7
   124ee:	08767653          	fsub.s	fa2,fa2,ft7
   124f2:	0066f3d3          	fadd.s	ft7,fa3,ft6
   124f6:	00707853          	fadd.s	fa6,ft0,ft7
   124fa:	0107a027          	fsw	fa6,0(a5)
   124fe:	08707053          	fsub.s	ft0,ft0,ft7
   12502:	0007a827          	fsw	ft0,16(a5)
   12506:	0866f6d3          	fsub.s	fa3,fa3,ft6
   1250a:	00c6f6d3          	fadd.s	fa3,fa3,fa2
   1250e:	1016f6d3          	fmul.s	fa3,fa3,ft1
   12512:	00d67053          	fadd.s	ft0,fa2,fa3
   12516:	0007a427          	fsw	ft0,8(a5)
   1251a:	08d67653          	fsub.s	fa2,fa2,fa3
   1251e:	00c7ac27          	fsw	fa2,24(a5)
   12522:	0857f7d3          	fsub.s	fa5,fa5,ft5
   12526:	00a7f7d3          	fadd.s	fa5,fa5,fa0
   1252a:	00b776d3          	fadd.s	fa3,fa4,fa1
   1252e:	08d7f653          	fsub.s	fa2,fa5,fa3
   12532:	10467653          	fmul.s	fa2,fa2,ft4
   12536:	1037f7d3          	fmul.s	fa5,fa5,ft3
   1253a:	00c7f7d3          	fadd.s	fa5,fa5,fa2
   1253e:	1026f6d3          	fmul.s	fa3,fa3,ft2
   12542:	00c6f6d3          	fadd.s	fa3,fa3,fa2
   12546:	00a5f653          	fadd.s	fa2,fa1,fa0
   1254a:	10167653          	fmul.s	fa2,fa2,ft1
   1254e:	00c775d3          	fadd.s	fa1,fa4,fa2
   12552:	08c77753          	fsub.s	fa4,fa4,fa2
   12556:	00e7f653          	fadd.s	fa2,fa5,fa4
   1255a:	00c7aa27          	fsw	fa2,20(a5)
   1255e:	08f77753          	fsub.s	fa4,fa4,fa5
   12562:	00e7a627          	fsw	fa4,12(a5)
   12566:	00b6f7d3          	fadd.s	fa5,fa3,fa1
   1256a:	00f7a227          	fsw	fa5,4(a5)
   1256e:	08d5f5d3          	fsub.s	fa1,fa1,fa3
   12572:	00b7ae27          	fsw	fa1,28(a5)
   12576:	02078793          	addi	a5,a5,32
   1257a:	f2e79ae3          	bne	a5,a4,124ae <_ZN3DCT10forwardDCTEPA8_fS1_+0x4a>
   1257e:	02060793          	addi	a5,a2,32
   12582:	0141a087          	flw	ft1,20(gp) # 39f24 <__global_pointer$+0x14>
   12586:	0181a207          	flw	ft4,24(gp) # 39f28 <__global_pointer$+0x18>
   1258a:	0041a187          	flw	ft3,4(gp) # 39f14 <__global_pointer$+0x4>
   1258e:	ff81a107          	flw	ft2,-8(gp) # 39f08 <mask+0x68>
   12592:	00062707          	flw	fa4,0(a2)
   12596:	0e062787          	flw	fa5,224(a2)
   1259a:	00f77653          	fadd.s	fa2,fa4,fa5
   1259e:	08f77753          	fsub.s	fa4,fa4,fa5
   125a2:	02062587          	flw	fa1,32(a2)
   125a6:	0c062787          	flw	fa5,192(a2)
   125aa:	00f5f6d3          	fadd.s	fa3,fa1,fa5
   125ae:	08f5f5d3          	fsub.s	fa1,fa1,fa5
   125b2:	04062507          	flw	fa0,64(a2)
   125b6:	0a062787          	flw	fa5,160(a2)
   125ba:	00f57353          	fadd.s	ft6,fa0,fa5
   125be:	08f57553          	fsub.s	fa0,fa0,fa5
   125c2:	06062787          	flw	fa5,96(a2)
   125c6:	08062287          	flw	ft5,128(a2)
   125ca:	0057f3d3          	fadd.s	ft7,fa5,ft5
   125ce:	00767053          	fadd.s	ft0,fa2,ft7
   125d2:	08767653          	fsub.s	fa2,fa2,ft7
   125d6:	0066f3d3          	fadd.s	ft7,fa3,ft6
   125da:	00707853          	fadd.s	fa6,ft0,ft7
   125de:	01062027          	fsw	fa6,0(a2)
   125e2:	08707053          	fsub.s	ft0,ft0,ft7
   125e6:	08062027          	fsw	ft0,128(a2)
   125ea:	0866f6d3          	fsub.s	fa3,fa3,ft6
   125ee:	00c6f6d3          	fadd.s	fa3,fa3,fa2
   125f2:	1016f6d3          	fmul.s	fa3,fa3,ft1
   125f6:	00d67053          	fadd.s	ft0,fa2,fa3
   125fa:	04062027          	fsw	ft0,64(a2)
   125fe:	08d67653          	fsub.s	fa2,fa2,fa3
   12602:	0cc62027          	fsw	fa2,192(a2)
   12606:	0857f7d3          	fsub.s	fa5,fa5,ft5
   1260a:	00a7f7d3          	fadd.s	fa5,fa5,fa0
   1260e:	00b776d3          	fadd.s	fa3,fa4,fa1
   12612:	08d7f653          	fsub.s	fa2,fa5,fa3
   12616:	10467653          	fmul.s	fa2,fa2,ft4
   1261a:	1037f7d3          	fmul.s	fa5,fa5,ft3
   1261e:	00c7f7d3          	fadd.s	fa5,fa5,fa2
   12622:	1026f6d3          	fmul.s	fa3,fa3,ft2
   12626:	00c6f6d3          	fadd.s	fa3,fa3,fa2
   1262a:	00a5f653          	fadd.s	fa2,fa1,fa0
   1262e:	10167653          	fmul.s	fa2,fa2,ft1
   12632:	00c775d3          	fadd.s	fa1,fa4,fa2
   12636:	08c77753          	fsub.s	fa4,fa4,fa2
   1263a:	00e7f653          	fadd.s	fa2,fa5,fa4
   1263e:	0ac62027          	fsw	fa2,160(a2)
   12642:	08f77753          	fsub.s	fa4,fa4,fa5
   12646:	06e62027          	fsw	fa4,96(a2)
   1264a:	00b6f7d3          	fadd.s	fa5,fa3,fa1
   1264e:	02f62027          	fsw	fa5,32(a2)
   12652:	08d5f5d3          	fsub.s	fa1,fa1,fa3
   12656:	0eb62027          	fsw	fa1,224(a2)
   1265a:	0611                	addi	a2,a2,4
   1265c:	f2f61be3          	bne	a2,a5,12592 <_ZN3DCT10forwardDCTEPA8_fS1_+0x12e>
   12660:	8082                	ret

0000000000012662 <_ZN3DCT10forwardDCTEPfPA8_f>:
   12662:	852e                	mv	a0,a1
   12664:	86b2                	mv	a3,a2
   12666:	02060893          	addi	a7,a2,32
   1266a:	10058813          	addi	a6,a1,256
   1266e:	85c6                	mv	a1,a7
   12670:	0101a707          	flw	fa4,16(gp) # 39f20 <__global_pointer$+0x10>
   12674:	fe058793          	addi	a5,a1,-32
   12678:	872a                	mv	a4,a0
   1267a:	00072787          	flw	fa5,0(a4)
   1267e:	08e7f7d3          	fsub.s	fa5,fa5,fa4
   12682:	00f7a027          	fsw	fa5,0(a5)
   12686:	0711                	addi	a4,a4,4
   12688:	0791                	addi	a5,a5,4
   1268a:	feb798e3          	bne	a5,a1,1267a <_ZN3DCT10forwardDCTEPfPA8_f+0x18>
   1268e:	02050513          	addi	a0,a0,32
   12692:	02058593          	addi	a1,a1,32
   12696:	fd051fe3          	bne	a0,a6,12674 <_ZN3DCT10forwardDCTEPfPA8_f+0x12>
   1269a:	10060793          	addi	a5,a2,256
   1269e:	0141a087          	flw	ft1,20(gp) # 39f24 <__global_pointer$+0x14>
   126a2:	0181a207          	flw	ft4,24(gp) # 39f28 <__global_pointer$+0x18>
   126a6:	0041a187          	flw	ft3,4(gp) # 39f14 <__global_pointer$+0x4>
   126aa:	ff81a107          	flw	ft2,-8(gp) # 39f08 <mask+0x68>
   126ae:	00062707          	flw	fa4,0(a2)
   126b2:	01c62787          	flw	fa5,28(a2)
   126b6:	00f77653          	fadd.s	fa2,fa4,fa5
   126ba:	08f77753          	fsub.s	fa4,fa4,fa5
   126be:	00462587          	flw	fa1,4(a2)
   126c2:	01862787          	flw	fa5,24(a2)
   126c6:	00f5f6d3          	fadd.s	fa3,fa1,fa5
   126ca:	08f5f5d3          	fsub.s	fa1,fa1,fa5
   126ce:	00862507          	flw	fa0,8(a2)
   126d2:	01462787          	flw	fa5,20(a2)
   126d6:	00f57353          	fadd.s	ft6,fa0,fa5
   126da:	08f57553          	fsub.s	fa0,fa0,fa5
   126de:	00c62787          	flw	fa5,12(a2)
   126e2:	01062287          	flw	ft5,16(a2)
   126e6:	0057f3d3          	fadd.s	ft7,fa5,ft5
   126ea:	00767053          	fadd.s	ft0,fa2,ft7
   126ee:	08767653          	fsub.s	fa2,fa2,ft7
   126f2:	0066f3d3          	fadd.s	ft7,fa3,ft6
   126f6:	00707853          	fadd.s	fa6,ft0,ft7
   126fa:	01062027          	fsw	fa6,0(a2)
   126fe:	08707053          	fsub.s	ft0,ft0,ft7
   12702:	00062827          	fsw	ft0,16(a2)
   12706:	0866f6d3          	fsub.s	fa3,fa3,ft6
   1270a:	00c6f6d3          	fadd.s	fa3,fa3,fa2
   1270e:	1016f6d3          	fmul.s	fa3,fa3,ft1
   12712:	00d67053          	fadd.s	ft0,fa2,fa3
   12716:	00062427          	fsw	ft0,8(a2)
   1271a:	08d67653          	fsub.s	fa2,fa2,fa3
   1271e:	00c62c27          	fsw	fa2,24(a2)
   12722:	0857f7d3          	fsub.s	fa5,fa5,ft5
   12726:	00a7f7d3          	fadd.s	fa5,fa5,fa0
   1272a:	00b776d3          	fadd.s	fa3,fa4,fa1
   1272e:	08d7f653          	fsub.s	fa2,fa5,fa3
   12732:	10467653          	fmul.s	fa2,fa2,ft4
   12736:	1037f7d3          	fmul.s	fa5,fa5,ft3
   1273a:	00c7f7d3          	fadd.s	fa5,fa5,fa2
   1273e:	1026f6d3          	fmul.s	fa3,fa3,ft2
   12742:	00c6f6d3          	fadd.s	fa3,fa3,fa2
   12746:	00a5f653          	fadd.s	fa2,fa1,fa0
   1274a:	10167653          	fmul.s	fa2,fa2,ft1
   1274e:	00c775d3          	fadd.s	fa1,fa4,fa2
   12752:	08c77753          	fsub.s	fa4,fa4,fa2
   12756:	00e7f653          	fadd.s	fa2,fa5,fa4
   1275a:	00c62a27          	fsw	fa2,20(a2)
   1275e:	08f77753          	fsub.s	fa4,fa4,fa5
   12762:	00e62627          	fsw	fa4,12(a2)
   12766:	00b6f7d3          	fadd.s	fa5,fa3,fa1
   1276a:	00f62227          	fsw	fa5,4(a2)
   1276e:	08d5f5d3          	fsub.s	fa1,fa1,fa3
   12772:	00b62e27          	fsw	fa1,28(a2)
   12776:	02060613          	addi	a2,a2,32
   1277a:	f2f61ae3          	bne	a2,a5,126ae <_ZN3DCT10forwardDCTEPfPA8_f+0x4c>
   1277e:	0141a087          	flw	ft1,20(gp) # 39f24 <__global_pointer$+0x14>
   12782:	0181a207          	flw	ft4,24(gp) # 39f28 <__global_pointer$+0x18>
   12786:	0041a187          	flw	ft3,4(gp) # 39f14 <__global_pointer$+0x4>
   1278a:	ff81a107          	flw	ft2,-8(gp) # 39f08 <mask+0x68>
   1278e:	0006a707          	flw	fa4,0(a3)
   12792:	0e06a787          	flw	fa5,224(a3)
   12796:	00f77653          	fadd.s	fa2,fa4,fa5
   1279a:	08f77753          	fsub.s	fa4,fa4,fa5
   1279e:	0206a587          	flw	fa1,32(a3)
   127a2:	0c06a787          	flw	fa5,192(a3)
   127a6:	00f5f6d3          	fadd.s	fa3,fa1,fa5
   127aa:	08f5f5d3          	fsub.s	fa1,fa1,fa5
   127ae:	0406a507          	flw	fa0,64(a3)
   127b2:	0a06a787          	flw	fa5,160(a3)
   127b6:	00f57353          	fadd.s	ft6,fa0,fa5
   127ba:	08f57553          	fsub.s	fa0,fa0,fa5
   127be:	0606a787          	flw	fa5,96(a3)
   127c2:	0806a287          	flw	ft5,128(a3)
   127c6:	0057f3d3          	fadd.s	ft7,fa5,ft5
   127ca:	00767053          	fadd.s	ft0,fa2,ft7
   127ce:	08767653          	fsub.s	fa2,fa2,ft7
   127d2:	0066f3d3          	fadd.s	ft7,fa3,ft6
   127d6:	00707853          	fadd.s	fa6,ft0,ft7
   127da:	0106a027          	fsw	fa6,0(a3)
   127de:	08707053          	fsub.s	ft0,ft0,ft7
   127e2:	0806a027          	fsw	ft0,128(a3)
   127e6:	0866f6d3          	fsub.s	fa3,fa3,ft6
   127ea:	00c6f6d3          	fadd.s	fa3,fa3,fa2
   127ee:	1016f6d3          	fmul.s	fa3,fa3,ft1
   127f2:	00d67053          	fadd.s	ft0,fa2,fa3
   127f6:	0406a027          	fsw	ft0,64(a3)
   127fa:	08d67653          	fsub.s	fa2,fa2,fa3
   127fe:	0cc6a027          	fsw	fa2,192(a3)
   12802:	0857f7d3          	fsub.s	fa5,fa5,ft5
   12806:	00a7f7d3          	fadd.s	fa5,fa5,fa0
   1280a:	00b776d3          	fadd.s	fa3,fa4,fa1
   1280e:	08d7f653          	fsub.s	fa2,fa5,fa3
   12812:	10467653          	fmul.s	fa2,fa2,ft4
   12816:	1037f7d3          	fmul.s	fa5,fa5,ft3
   1281a:	00c7f7d3          	fadd.s	fa5,fa5,fa2
   1281e:	1026f6d3          	fmul.s	fa3,fa3,ft2
   12822:	00c6f6d3          	fadd.s	fa3,fa3,fa2
   12826:	00a5f653          	fadd.s	fa2,fa1,fa0
   1282a:	10167653          	fmul.s	fa2,fa2,ft1
   1282e:	00c775d3          	fadd.s	fa1,fa4,fa2
   12832:	08c77753          	fsub.s	fa4,fa4,fa2
   12836:	00e7f653          	fadd.s	fa2,fa5,fa4
   1283a:	0ac6a027          	fsw	fa2,160(a3)
   1283e:	08f77753          	fsub.s	fa4,fa4,fa5
   12842:	06e6a027          	fsw	fa4,96(a3)
   12846:	00b6f7d3          	fadd.s	fa5,fa3,fa1
   1284a:	02f6a027          	fsw	fa5,32(a3)
   1284e:	08d5f5d3          	fsub.s	fa1,fa1,fa3
   12852:	0eb6a027          	fsw	fa1,224(a3)
   12856:	0691                	addi	a3,a3,4
   12858:	f3169be3          	bne	a3,a7,1278e <_ZN3DCT10forwardDCTEPfPA8_f+0x12c>
   1285c:	8082                	ret

000000000001285e <_ZN3DCT10forwardDCTEPfS0_>:
   1285e:	852e                	mv	a0,a1
   12860:	8732                	mv	a4,a2
   12862:	10058313          	addi	t1,a1,256
   12866:	8832                	mv	a6,a2
   12868:	0101a707          	flw	fa4,16(gp) # 39f20 <__global_pointer$+0x10>
   1286c:	02000893          	li	a7,32
   12870:	4781                	li	a5,0
   12872:	00f806b3          	add	a3,a6,a5
   12876:	00f505b3          	add	a1,a0,a5
   1287a:	0005a787          	flw	fa5,0(a1)
   1287e:	08e7f7d3          	fsub.s	fa5,fa5,fa4
   12882:	00f6a027          	fsw	fa5,0(a3)
   12886:	0791                	addi	a5,a5,4
   12888:	ff1795e3          	bne	a5,a7,12872 <_ZN3DCT10forwardDCTEPfS0_+0x14>
   1288c:	02050513          	addi	a0,a0,32
   12890:	02080813          	addi	a6,a6,32
   12894:	fc651ee3          	bne	a0,t1,12870 <_ZN3DCT10forwardDCTEPfS0_+0x12>
   12898:	10060693          	addi	a3,a2,256
   1289c:	87b2                	mv	a5,a2
   1289e:	0141a087          	flw	ft1,20(gp) # 39f24 <__global_pointer$+0x14>
   128a2:	0181a207          	flw	ft4,24(gp) # 39f28 <__global_pointer$+0x18>
   128a6:	0041a187          	flw	ft3,4(gp) # 39f14 <__global_pointer$+0x4>
   128aa:	ff81a107          	flw	ft2,-8(gp) # 39f08 <mask+0x68>
   128ae:	0007a707          	flw	fa4,0(a5)
   128b2:	01c7a787          	flw	fa5,28(a5)
   128b6:	00f77653          	fadd.s	fa2,fa4,fa5
   128ba:	08f77753          	fsub.s	fa4,fa4,fa5
   128be:	0047a587          	flw	fa1,4(a5)
   128c2:	0187a787          	flw	fa5,24(a5)
   128c6:	00f5f6d3          	fadd.s	fa3,fa1,fa5
   128ca:	08f5f5d3          	fsub.s	fa1,fa1,fa5
   128ce:	0087a507          	flw	fa0,8(a5)
   128d2:	0147a787          	flw	fa5,20(a5)
   128d6:	00f57353          	fadd.s	ft6,fa0,fa5
   128da:	08f57553          	fsub.s	fa0,fa0,fa5
   128de:	00c7a787          	flw	fa5,12(a5)
   128e2:	0107a287          	flw	ft5,16(a5)
   128e6:	0057f3d3          	fadd.s	ft7,fa5,ft5
   128ea:	00767053          	fadd.s	ft0,fa2,ft7
   128ee:	08767653          	fsub.s	fa2,fa2,ft7
   128f2:	0066f3d3          	fadd.s	ft7,fa3,ft6
   128f6:	00707853          	fadd.s	fa6,ft0,ft7
   128fa:	0107a027          	fsw	fa6,0(a5)
   128fe:	08707053          	fsub.s	ft0,ft0,ft7
   12902:	0007a827          	fsw	ft0,16(a5)
   12906:	0866f6d3          	fsub.s	fa3,fa3,ft6
   1290a:	00c6f6d3          	fadd.s	fa3,fa3,fa2
   1290e:	1016f6d3          	fmul.s	fa3,fa3,ft1
   12912:	00d67053          	fadd.s	ft0,fa2,fa3
   12916:	0007a427          	fsw	ft0,8(a5)
   1291a:	08d67653          	fsub.s	fa2,fa2,fa3
   1291e:	00c7ac27          	fsw	fa2,24(a5)
   12922:	0857f7d3          	fsub.s	fa5,fa5,ft5
   12926:	00a7f7d3          	fadd.s	fa5,fa5,fa0
   1292a:	00b776d3          	fadd.s	fa3,fa4,fa1
   1292e:	08d7f653          	fsub.s	fa2,fa5,fa3
   12932:	10467653          	fmul.s	fa2,fa2,ft4
   12936:	1037f7d3          	fmul.s	fa5,fa5,ft3
   1293a:	00c7f7d3          	fadd.s	fa5,fa5,fa2
   1293e:	1026f6d3          	fmul.s	fa3,fa3,ft2
   12942:	00c6f6d3          	fadd.s	fa3,fa3,fa2
   12946:	00a5f653          	fadd.s	fa2,fa1,fa0
   1294a:	10167653          	fmul.s	fa2,fa2,ft1
   1294e:	00c775d3          	fadd.s	fa1,fa4,fa2
   12952:	08c77753          	fsub.s	fa4,fa4,fa2
   12956:	00e7f653          	fadd.s	fa2,fa5,fa4
   1295a:	00c7aa27          	fsw	fa2,20(a5)
   1295e:	08f77753          	fsub.s	fa4,fa4,fa5
   12962:	00e7a627          	fsw	fa4,12(a5)
   12966:	00b6f7d3          	fadd.s	fa5,fa3,fa1
   1296a:	00f7a227          	fsw	fa5,4(a5)
   1296e:	08d5f5d3          	fsub.s	fa1,fa1,fa3
   12972:	00b7ae27          	fsw	fa1,28(a5)
   12976:	02078793          	addi	a5,a5,32
   1297a:	f2d79ae3          	bne	a5,a3,128ae <_ZN3DCT10forwardDCTEPfS0_+0x50>
   1297e:	02060793          	addi	a5,a2,32
   12982:	0141a087          	flw	ft1,20(gp) # 39f24 <__global_pointer$+0x14>
   12986:	0181a207          	flw	ft4,24(gp) # 39f28 <__global_pointer$+0x18>
   1298a:	0041a187          	flw	ft3,4(gp) # 39f14 <__global_pointer$+0x4>
   1298e:	ff81a107          	flw	ft2,-8(gp) # 39f08 <mask+0x68>
   12992:	00072707          	flw	fa4,0(a4)
   12996:	0e072787          	flw	fa5,224(a4)
   1299a:	00f77653          	fadd.s	fa2,fa4,fa5
   1299e:	08f77753          	fsub.s	fa4,fa4,fa5
   129a2:	02072587          	flw	fa1,32(a4)
   129a6:	0c072787          	flw	fa5,192(a4)
   129aa:	00f5f6d3          	fadd.s	fa3,fa1,fa5
   129ae:	08f5f5d3          	fsub.s	fa1,fa1,fa5
   129b2:	04072507          	flw	fa0,64(a4)
   129b6:	0a072787          	flw	fa5,160(a4)
   129ba:	00f57353          	fadd.s	ft6,fa0,fa5
   129be:	08f57553          	fsub.s	fa0,fa0,fa5
   129c2:	06072787          	flw	fa5,96(a4)
   129c6:	08072287          	flw	ft5,128(a4)
   129ca:	0057f3d3          	fadd.s	ft7,fa5,ft5
   129ce:	00767053          	fadd.s	ft0,fa2,ft7
   129d2:	08767653          	fsub.s	fa2,fa2,ft7
   129d6:	0066f3d3          	fadd.s	ft7,fa3,ft6
   129da:	00707853          	fadd.s	fa6,ft0,ft7
   129de:	01072027          	fsw	fa6,0(a4)
   129e2:	08707053          	fsub.s	ft0,ft0,ft7
   129e6:	08072027          	fsw	ft0,128(a4)
   129ea:	0866f6d3          	fsub.s	fa3,fa3,ft6
   129ee:	00c6f6d3          	fadd.s	fa3,fa3,fa2
   129f2:	1016f6d3          	fmul.s	fa3,fa3,ft1
   129f6:	00d67053          	fadd.s	ft0,fa2,fa3
   129fa:	04072027          	fsw	ft0,64(a4)
   129fe:	08d67653          	fsub.s	fa2,fa2,fa3
   12a02:	0cc72027          	fsw	fa2,192(a4)
   12a06:	0857f7d3          	fsub.s	fa5,fa5,ft5
   12a0a:	00a7f7d3          	fadd.s	fa5,fa5,fa0
   12a0e:	00b776d3          	fadd.s	fa3,fa4,fa1
   12a12:	08d7f653          	fsub.s	fa2,fa5,fa3
   12a16:	10467653          	fmul.s	fa2,fa2,ft4
   12a1a:	1037f7d3          	fmul.s	fa5,fa5,ft3
   12a1e:	00c7f7d3          	fadd.s	fa5,fa5,fa2
   12a22:	1026f6d3          	fmul.s	fa3,fa3,ft2
   12a26:	00c6f6d3          	fadd.s	fa3,fa3,fa2
   12a2a:	00a5f653          	fadd.s	fa2,fa1,fa0
   12a2e:	10167653          	fmul.s	fa2,fa2,ft1
   12a32:	00c775d3          	fadd.s	fa1,fa4,fa2
   12a36:	08c77753          	fsub.s	fa4,fa4,fa2
   12a3a:	00e7f653          	fadd.s	fa2,fa5,fa4
   12a3e:	0ac72027          	fsw	fa2,160(a4)
   12a42:	08f77753          	fsub.s	fa4,fa4,fa5
   12a46:	06e72027          	fsw	fa4,96(a4)
   12a4a:	00b6f7d3          	fadd.s	fa5,fa3,fa1
   12a4e:	02f72027          	fsw	fa5,32(a4)
   12a52:	08d5f5d3          	fsub.s	fa1,fa1,fa3
   12a56:	0eb72027          	fsw	fa1,224(a4)
   12a5a:	0711                	addi	a4,a4,4
   12a5c:	f2f71be3          	bne	a4,a5,12992 <_ZN3DCT10forwardDCTEPfS0_+0x134>
   12a60:	8082                	ret

0000000000012a62 <_ZN3DCT13quantizeBlockEPA8_fiPi>:
   12a62:	715d                	addi	sp,sp,-80
   12a64:	e486                	sd	ra,72(sp)
   12a66:	e0a2                	sd	s0,64(sp)
   12a68:	fc26                	sd	s1,56(sp)
   12a6a:	f84a                	sd	s2,48(sp)
   12a6c:	f44e                	sd	s3,40(sp)
   12a6e:	f052                	sd	s4,32(sp)
   12a70:	ec56                	sd	s5,24(sp)
   12a72:	e85a                	sd	s6,16(sp)
   12a74:	e45e                	sd	s7,8(sp)
   12a76:	00861793          	slli	a5,a2,0x8
   12a7a:	20478793          	addi	a5,a5,516
   12a7e:	00f50ab3          	add	s5,a0,a5
   12a82:	8a36                	mv	s4,a3
   12a84:	02058993          	addi	s3,a1,32
   12a88:	4b01                	li	s6,0
   12a8a:	04000b93          	li	s7,64
   12a8e:	fe098413          	addi	s0,s3,-32
   12a92:	8952                	mv	s2,s4
   12a94:	84d6                	mv	s1,s5
   12a96:	00042507          	flw	fa0,0(s0)
   12a9a:	0004a787          	flw	fa5,0(s1)
   12a9e:	10f57553          	fmul.s	fa0,fa0,fa5
   12aa2:	0db0b0ef          	jal	1e37c <roundf>
   12aa6:	c00517d3          	fcvt.w.s	a5,fa0,rtz
   12aaa:	00f92023          	sw	a5,0(s2)
   12aae:	0411                	addi	s0,s0,4
   12ab0:	0491                	addi	s1,s1,4
   12ab2:	0911                	addi	s2,s2,4
   12ab4:	ff3411e3          	bne	s0,s3,12a96 <_ZN3DCT13quantizeBlockEPA8_fiPi+0x34>
   12ab8:	2b21                	addiw	s6,s6,8
   12aba:	020a8a93          	addi	s5,s5,32
   12abe:	020a0a13          	addi	s4,s4,32
   12ac2:	02098993          	addi	s3,s3,32
   12ac6:	fd7b14e3          	bne	s6,s7,12a8e <_ZN3DCT13quantizeBlockEPA8_fiPi+0x2c>
   12aca:	60a6                	ld	ra,72(sp)
   12acc:	6406                	ld	s0,64(sp)
   12ace:	74e2                	ld	s1,56(sp)
   12ad0:	7942                	ld	s2,48(sp)
   12ad2:	79a2                	ld	s3,40(sp)
   12ad4:	7a02                	ld	s4,32(sp)
   12ad6:	6ae2                	ld	s5,24(sp)
   12ad8:	6b42                	ld	s6,16(sp)
   12ada:	6ba2                	ld	s7,8(sp)
   12adc:	6161                	addi	sp,sp,80
   12ade:	8082                	ret

0000000000012ae0 <_ZN3DCT13quantizeBlockEPfiPi>:
   12ae0:	7139                	addi	sp,sp,-64
   12ae2:	fc06                	sd	ra,56(sp)
   12ae4:	f822                	sd	s0,48(sp)
   12ae6:	f426                	sd	s1,40(sp)
   12ae8:	f04a                	sd	s2,32(sp)
   12aea:	ec4e                	sd	s3,24(sp)
   12aec:	e852                	sd	s4,16(sp)
   12aee:	e456                	sd	s5,8(sp)
   12af0:	e05a                	sd	s6,0(sp)
   12af2:	89ae                	mv	s3,a1
   12af4:	0622                	slli	a2,a2,0x8
   12af6:	00c50933          	add	s2,a0,a2
   12afa:	84b6                	mv	s1,a3
   12afc:	4a81                	li	s5,0
   12afe:	02000a13          	li	s4,32
   12b02:	04000b13          	li	s6,64
   12b06:	4401                	li	s0,0
   12b08:	00898733          	add	a4,s3,s0
   12b0c:	008907b3          	add	a5,s2,s0
   12b10:	00072507          	flw	fa0,0(a4)
   12b14:	2047a787          	flw	fa5,516(a5)
   12b18:	10f57553          	fmul.s	fa0,fa0,fa5
   12b1c:	0610b0ef          	jal	1e37c <roundf>
   12b20:	008487b3          	add	a5,s1,s0
   12b24:	c0051753          	fcvt.w.s	a4,fa0,rtz
   12b28:	c398                	sw	a4,0(a5)
   12b2a:	0411                	addi	s0,s0,4
   12b2c:	fd441ee3          	bne	s0,s4,12b08 <_ZN3DCT13quantizeBlockEPfiPi+0x28>
   12b30:	2aa1                	addiw	s5,s5,8
   12b32:	02098993          	addi	s3,s3,32
   12b36:	02090913          	addi	s2,s2,32
   12b3a:	02048493          	addi	s1,s1,32
   12b3e:	fd6a94e3          	bne	s5,s6,12b06 <_ZN3DCT13quantizeBlockEPfiPi+0x26>
   12b42:	70e2                	ld	ra,56(sp)
   12b44:	7442                	ld	s0,48(sp)
   12b46:	74a2                	ld	s1,40(sp)
   12b48:	7902                	ld	s2,32(sp)
   12b4a:	69e2                	ld	s3,24(sp)
   12b4c:	6a42                	ld	s4,16(sp)
   12b4e:	6aa2                	ld	s5,8(sp)
   12b50:	6b02                	ld	s6,0(sp)
   12b52:	6121                	addi	sp,sp,64
   12b54:	8082                	ret

0000000000012b56 <_ZN3DCT20quantizeBlockExtremeEPA8_fiPi>:
   12b56:	715d                	addi	sp,sp,-80
   12b58:	e486                	sd	ra,72(sp)
   12b5a:	e0a2                	sd	s0,64(sp)
   12b5c:	fc26                	sd	s1,56(sp)
   12b5e:	f84a                	sd	s2,48(sp)
   12b60:	f44e                	sd	s3,40(sp)
   12b62:	f052                	sd	s4,32(sp)
   12b64:	ec56                	sd	s5,24(sp)
   12b66:	e85a                	sd	s6,16(sp)
   12b68:	e45e                	sd	s7,8(sp)
   12b6a:	00861793          	slli	a5,a2,0x8
   12b6e:	0791                	addi	a5,a5,4
   12b70:	00f50ab3          	add	s5,a0,a5
   12b74:	8a36                	mv	s4,a3
   12b76:	02058993          	addi	s3,a1,32
   12b7a:	4b01                	li	s6,0
   12b7c:	04000b93          	li	s7,64
   12b80:	fe098413          	addi	s0,s3,-32
   12b84:	8952                	mv	s2,s4
   12b86:	84d6                	mv	s1,s5
   12b88:	409c                	lw	a5,0(s1)
   12b8a:	d007f7d3          	fcvt.s.w	fa5,a5
   12b8e:	00042507          	flw	fa0,0(s0)
   12b92:	18f57553          	fdiv.s	fa0,fa0,fa5
   12b96:	7e60b0ef          	jal	1e37c <roundf>
   12b9a:	c00517d3          	fcvt.w.s	a5,fa0,rtz
   12b9e:	00f92023          	sw	a5,0(s2)
   12ba2:	0411                	addi	s0,s0,4
   12ba4:	0491                	addi	s1,s1,4
   12ba6:	0911                	addi	s2,s2,4
   12ba8:	ff3410e3          	bne	s0,s3,12b88 <_ZN3DCT20quantizeBlockExtremeEPA8_fiPi+0x32>
   12bac:	2b21                	addiw	s6,s6,8
   12bae:	020a8a93          	addi	s5,s5,32
   12bb2:	020a0a13          	addi	s4,s4,32
   12bb6:	02098993          	addi	s3,s3,32
   12bba:	fd7b13e3          	bne	s6,s7,12b80 <_ZN3DCT20quantizeBlockExtremeEPA8_fiPi+0x2a>
   12bbe:	60a6                	ld	ra,72(sp)
   12bc0:	6406                	ld	s0,64(sp)
   12bc2:	74e2                	ld	s1,56(sp)
   12bc4:	7942                	ld	s2,48(sp)
   12bc6:	79a2                	ld	s3,40(sp)
   12bc8:	7a02                	ld	s4,32(sp)
   12bca:	6ae2                	ld	s5,24(sp)
   12bcc:	6b42                	ld	s6,16(sp)
   12bce:	6ba2                	ld	s7,8(sp)
   12bd0:	6161                	addi	sp,sp,80
   12bd2:	8082                	ret

0000000000012bd4 <_ZN7HuffmanC1Eb>:
   12bd4:	8082                	ret

0000000000012bd6 <_ZN7Huffman8bufferItEP12OutputStreamii>:
   12bd6:	715d                	addi	sp,sp,-80
   12bd8:	e486                	sd	ra,72(sp)
   12bda:	fc26                	sd	s1,56(sp)
   12bdc:	f84a                	sd	s2,48(sp)
   12bde:	e85a                	sd	s6,16(sp)
   12be0:	e45e                	sd	s7,8(sp)
   12be2:	8b2a                	mv	s6,a0
   12be4:	04052b83          	lw	s7,64(a0)
   12be8:	4785                	li	a5,1
   12bea:	00d797bb          	sllw	a5,a5,a3
   12bee:	37fd                	addiw	a5,a5,-1
   12bf0:	00f674b3          	and	s1,a2,a5
   12bf4:	00db8bbb          	addw	s7,s7,a3
   12bf8:	000b891b          	sext.w	s2,s7
   12bfc:	47e1                	li	a5,24
   12bfe:	417787bb          	subw	a5,a5,s7
   12c02:	00f494bb          	sllw	s1,s1,a5
   12c06:	417c                	lw	a5,68(a0)
   12c08:	8cdd                	or	s1,s1,a5
   12c0a:	479d                	li	a5,7
   12c0c:	0527d963          	bge	a5,s2,12c5e <_ZN7Huffman8bufferItEP12OutputStreamii+0x88>
   12c10:	e0a2                	sd	s0,64(sp)
   12c12:	f44e                	sd	s3,40(sp)
   12c14:	f052                	sd	s4,32(sp)
   12c16:	ec56                	sd	s5,24(sp)
   12c18:	8aae                	mv	s5,a1
   12c1a:	0ff00a13          	li	s4,255
   12c1e:	499d                	li	s3,7
   12c20:	a031                	j	12c2c <_ZN7Huffman8bufferItEP12OutputStreamii+0x56>
   12c22:	0084949b          	slliw	s1,s1,0x8
   12c26:	3961                	addiw	s2,s2,-8
   12c28:	0329d563          	bge	s3,s2,12c52 <_ZN7Huffman8bufferItEP12OutputStreamii+0x7c>
   12c2c:	4104d41b          	sraiw	s0,s1,0x10
   12c30:	0ff47413          	zext.b	s0,s0
   12c34:	000ab783          	ld	a5,0(s5)
   12c38:	6b9c                	ld	a5,16(a5)
   12c3a:	85a2                	mv	a1,s0
   12c3c:	8556                	mv	a0,s5
   12c3e:	9782                	jalr	a5
   12c40:	ff4411e3          	bne	s0,s4,12c22 <_ZN7Huffman8bufferItEP12OutputStreamii+0x4c>
   12c44:	000ab783          	ld	a5,0(s5)
   12c48:	6b9c                	ld	a5,16(a5)
   12c4a:	4581                	li	a1,0
   12c4c:	8556                	mv	a0,s5
   12c4e:	9782                	jalr	a5
   12c50:	bfc9                	j	12c22 <_ZN7Huffman8bufferItEP12OutputStreamii+0x4c>
   12c52:	007bf913          	andi	s2,s7,7
   12c56:	6406                	ld	s0,64(sp)
   12c58:	79a2                	ld	s3,40(sp)
   12c5a:	7a02                	ld	s4,32(sp)
   12c5c:	6ae2                	ld	s5,24(sp)
   12c5e:	049b2223          	sw	s1,68(s6)
   12c62:	052b2023          	sw	s2,64(s6)
   12c66:	60a6                	ld	ra,72(sp)
   12c68:	74e2                	ld	s1,56(sp)
   12c6a:	7942                	ld	s2,48(sp)
   12c6c:	6b42                	ld	s6,16(sp)
   12c6e:	6ba2                	ld	s7,8(sp)
   12c70:	6161                	addi	sp,sp,80
   12c72:	8082                	ret

0000000000012c74 <_ZN7Huffman3runEP12OutputStreamPiiiib>:
   12c74:	7159                	addi	sp,sp,-112
   12c76:	f486                	sd	ra,104(sp)
   12c78:	f0a2                	sd	s0,96(sp)
   12c7a:	eca6                	sd	s1,88(sp)
   12c7c:	e8ca                	sd	s2,80(sp)
   12c7e:	fc56                	sd	s5,56(sp)
   12c80:	f85a                	sd	s6,48(sp)
   12c82:	f062                	sd	s8,32(sp)
   12c84:	e46e                	sd	s11,8(sp)
   12c86:	8aaa                	mv	s5,a0
   12c88:	8b2e                	mv	s6,a1
   12c8a:	8c32                	mv	s8,a2
   12c8c:	8dbe                	mv	s11,a5
   12c8e:	84c2                	mv	s1,a6
   12c90:	4210                	lw	a2,0(a2)
   12c92:	40d605bb          	subw	a1,a2,a3
   12c96:	0005879b          	sext.w	a5,a1
   12c9a:	893e                	mv	s2,a5
   12c9c:	0607c863          	bltz	a5,12d0c <_ZN7Huffman3runEP12OutputStreamPiiiib+0x98>
   12ca0:	1a078463          	beqz	a5,12e48 <_ZN7Huffman3runEP12OutputStreamPiiiib+0x1d4>
   12ca4:	4401                	li	s0,0
   12ca6:	2405                	addiw	s0,s0,1
   12ca8:	4017d79b          	sraiw	a5,a5,0x1
   12cac:	ffed                	bnez	a5,12ca6 <_ZN7Huffman3runEP12OutputStreamPiiiib+0x32>
   12cae:	00171793          	slli	a5,a4,0x1
   12cb2:	00e786b3          	add	a3,a5,a4
   12cb6:	068a                	slli	a3,a3,0x2
   12cb8:	96a2                	add	a3,a3,s0
   12cba:	068e                	slli	a3,a3,0x3
   12cbc:	96d6                	add	a3,a3,s5
   12cbe:	97ba                	add	a5,a5,a4
   12cc0:	078a                	slli	a5,a5,0x2
   12cc2:	97a2                	add	a5,a5,s0
   12cc4:	07a1                	addi	a5,a5,8
   12cc6:	078e                	slli	a5,a5,0x3
   12cc8:	97d6                	add	a5,a5,s5
   12cca:	46f4                	lw	a3,76(a3)
   12ccc:	4790                	lw	a2,8(a5)
   12cce:	85da                	mv	a1,s6
   12cd0:	8556                	mv	a0,s5
   12cd2:	f05ff0ef          	jal	12bd6 <_ZN7Huffman8bufferItEP12OutputStreamii>
   12cd6:	e021                	bnez	s0,12d16 <_ZN7Huffman3runEP12OutputStreamPiiiib+0xa2>
   12cd8:	e4b1                	bnez	s1,12d24 <_ZN7Huffman3runEP12OutputStreamPiiiib+0xb0>
   12cda:	e4ce                	sd	s3,72(sp)
   12cdc:	e0d2                	sd	s4,64(sp)
   12cde:	f45e                	sd	s7,40(sp)
   12ce0:	ec66                	sd	s9,24(sp)
   12ce2:	e86a                	sd	s10,16(sp)
   12ce4:	00039a37          	lui	s4,0x39
   12ce8:	a84a0a13          	addi	s4,s4,-1404 # 38a84 <_ZN11JpegEncoder16jpegNaturalOrderE+0x4>
   12cec:	00039cb7          	lui	s9,0x39
   12cf0:	b80c8c93          	addi	s9,s9,-1152 # 38b80 <_ZN7Huffman17bitsDCchrominanceE>
   12cf4:	4901                	li	s2,0
   12cf6:	4bbd                	li	s7,15
   12cf8:	008d9d13          	slli	s10,s11,0x8
   12cfc:	41bd0d33          	sub	s10,s10,s11
   12d00:	003d1793          	slli	a5,s10,0x3
   12d04:	97d6                	add	a5,a5,s5
   12d06:	6985                	lui	s3,0x1
   12d08:	99be                	add	s3,s3,a5
   12d0a:	a8d9                	j	12de0 <_ZN7Huffman3runEP12OutputStreamPiiiib+0x16c>
   12d0c:	fff5891b          	addiw	s2,a1,-1
   12d10:	40c687bb          	subw	a5,a3,a2
   12d14:	b771                	j	12ca0 <_ZN7Huffman3runEP12OutputStreamPiiiib+0x2c>
   12d16:	86a2                	mv	a3,s0
   12d18:	864a                	mv	a2,s2
   12d1a:	85da                	mv	a1,s6
   12d1c:	8556                	mv	a0,s5
   12d1e:	eb9ff0ef          	jal	12bd6 <_ZN7Huffman8bufferItEP12OutputStreamii>
   12d22:	bf5d                	j	12cd8 <_ZN7Huffman3runEP12OutputStreamPiiiib+0x64>
   12d24:	040aa703          	lw	a4,64(s5)
   12d28:	4799                	li	a5,6
   12d2a:	02f70363          	beq	a4,a5,12d50 <_ZN7Huffman3runEP12OutputStreamPiiiib+0xdc>
   12d2e:	4419                	li	s0,6
   12d30:	468d                	li	a3,3
   12d32:	4611                	li	a2,4
   12d34:	85da                	mv	a1,s6
   12d36:	8556                	mv	a0,s5
   12d38:	e9fff0ef          	jal	12bd6 <_ZN7Huffman8bufferItEP12OutputStreamii>
   12d3c:	4689                	li	a3,2
   12d3e:	4601                	li	a2,0
   12d40:	85da                	mv	a1,s6
   12d42:	8556                	mv	a0,s5
   12d44:	e93ff0ef          	jal	12bd6 <_ZN7Huffman8bufferItEP12OutputStreamii>
   12d48:	040aa783          	lw	a5,64(s5)
   12d4c:	fe8792e3          	bne	a5,s0,12d30 <_ZN7Huffman3runEP12OutputStreamPiiiib+0xbc>
   12d50:	008d9793          	slli	a5,s11,0x8
   12d54:	41b78733          	sub	a4,a5,s11
   12d58:	070e                	slli	a4,a4,0x3
   12d5a:	9756                	add	a4,a4,s5
   12d5c:	10c72683          	lw	a3,268(a4)
   12d60:	10872603          	lw	a2,264(a4)
   12d64:	85da                	mv	a1,s6
   12d66:	8556                	mv	a0,s5
   12d68:	e6fff0ef          	jal	12bd6 <_ZN7Huffman8bufferItEP12OutputStreamii>
   12d6c:	a045                	j	12e0c <_ZN7Huffman3runEP12OutputStreamPiiiib+0x198>
   12d6e:	84ca                	mv	s1,s2
   12d70:	012bdf63          	bge	s7,s2,12d8e <_ZN7Huffman3runEP12OutputStreamPiiiib+0x11a>
   12d74:	88c9a683          	lw	a3,-1908(s3) # 88c <__cxa_bad_cast-0xf85c>
   12d78:	8889a603          	lw	a2,-1912(s3)
   12d7c:	85da                	mv	a1,s6
   12d7e:	8556                	mv	a0,s5
   12d80:	e57ff0ef          	jal	12bd6 <_ZN7Huffman8bufferItEP12OutputStreamii>
   12d84:	34c1                	addiw	s1,s1,-16
   12d86:	fe9bc7e3          	blt	s7,s1,12d74 <_ZN7Huffman3runEP12OutputStreamPiiiib+0x100>
   12d8a:	00f97913          	andi	s2,s2,15
   12d8e:	84a2                	mv	s1,s0
   12d90:	06044063          	bltz	s0,12df0 <_ZN7Huffman3runEP12OutputStreamPiiiib+0x17c>
   12d94:	4014579b          	sraiw	a5,s0,0x1
   12d98:	c3ad                	beqz	a5,12dfa <_ZN7Huffman3runEP12OutputStreamPiiiib+0x186>
   12d9a:	4405                	li	s0,1
   12d9c:	2405                	addiw	s0,s0,1
   12d9e:	4017d79b          	sraiw	a5,a5,0x1
   12da2:	ffed                	bnez	a5,12d9c <_ZN7Huffman3runEP12OutputStreamPiiiib+0x128>
   12da4:	0049191b          	slliw	s2,s2,0x4
   12da8:	0089093b          	addw	s2,s2,s0
   12dac:	996a                	add	s2,s2,s10
   12dae:	00391793          	slli	a5,s2,0x3
   12db2:	97d6                	add	a5,a5,s5
   12db4:	02090913          	addi	s2,s2,32
   12db8:	090e                	slli	s2,s2,0x3
   12dba:	9956                	add	s2,s2,s5
   12dbc:	10c7a683          	lw	a3,268(a5)
   12dc0:	00892603          	lw	a2,8(s2)
   12dc4:	85da                	mv	a1,s6
   12dc6:	8556                	mv	a0,s5
   12dc8:	e0fff0ef          	jal	12bd6 <_ZN7Huffman8bufferItEP12OutputStreamii>
   12dcc:	86a2                	mv	a3,s0
   12dce:	8626                	mv	a2,s1
   12dd0:	85da                	mv	a1,s6
   12dd2:	8556                	mv	a0,s5
   12dd4:	e03ff0ef          	jal	12bd6 <_ZN7Huffman8bufferItEP12OutputStreamii>
   12dd8:	4901                	li	s2,0
   12dda:	0a11                	addi	s4,s4,4
   12ddc:	039a0163          	beq	s4,s9,12dfe <_ZN7Huffman3runEP12OutputStreamPiiiib+0x18a>
   12de0:	000a2783          	lw	a5,0(s4)
   12de4:	078a                	slli	a5,a5,0x2
   12de6:	97e2                	add	a5,a5,s8
   12de8:	4380                	lw	s0,0(a5)
   12dea:	f051                	bnez	s0,12d6e <_ZN7Huffman3runEP12OutputStreamPiiiib+0xfa>
   12dec:	2905                	addiw	s2,s2,1
   12dee:	b7f5                	j	12dda <_ZN7Huffman3runEP12OutputStreamPiiiib+0x166>
   12df0:	fff4049b          	addiw	s1,s0,-1
   12df4:	4080043b          	negw	s0,s0
   12df8:	bf71                	j	12d94 <_ZN7Huffman3runEP12OutputStreamPiiiib+0x120>
   12dfa:	4405                	li	s0,1
   12dfc:	b765                	j	12da4 <_ZN7Huffman3runEP12OutputStreamPiiiib+0x130>
   12dfe:	03204163          	bgtz	s2,12e20 <_ZN7Huffman3runEP12OutputStreamPiiiib+0x1ac>
   12e02:	69a6                	ld	s3,72(sp)
   12e04:	6a06                	ld	s4,64(sp)
   12e06:	7ba2                	ld	s7,40(sp)
   12e08:	6ce2                	ld	s9,24(sp)
   12e0a:	6d42                	ld	s10,16(sp)
   12e0c:	70a6                	ld	ra,104(sp)
   12e0e:	7406                	ld	s0,96(sp)
   12e10:	64e6                	ld	s1,88(sp)
   12e12:	6946                	ld	s2,80(sp)
   12e14:	7ae2                	ld	s5,56(sp)
   12e16:	7b42                	ld	s6,48(sp)
   12e18:	7c02                	ld	s8,32(sp)
   12e1a:	6da2                	ld	s11,8(sp)
   12e1c:	6165                	addi	sp,sp,112
   12e1e:	8082                	ret
   12e20:	008d9793          	slli	a5,s11,0x8
   12e24:	41b78733          	sub	a4,a5,s11
   12e28:	070e                	slli	a4,a4,0x3
   12e2a:	9756                	add	a4,a4,s5
   12e2c:	10c72683          	lw	a3,268(a4)
   12e30:	10872603          	lw	a2,264(a4)
   12e34:	85da                	mv	a1,s6
   12e36:	8556                	mv	a0,s5
   12e38:	d9fff0ef          	jal	12bd6 <_ZN7Huffman8bufferItEP12OutputStreamii>
   12e3c:	69a6                	ld	s3,72(sp)
   12e3e:	6a06                	ld	s4,64(sp)
   12e40:	7ba2                	ld	s7,40(sp)
   12e42:	6ce2                	ld	s9,24(sp)
   12e44:	6d42                	ld	s10,16(sp)
   12e46:	b7d9                	j	12e0c <_ZN7Huffman3runEP12OutputStreamPiiiib+0x198>
   12e48:	00171793          	slli	a5,a4,0x1
   12e4c:	00e786b3          	add	a3,a5,a4
   12e50:	0696                	slli	a3,a3,0x5
   12e52:	96d6                	add	a3,a3,s5
   12e54:	87b6                	mv	a5,a3
   12e56:	46f4                	lw	a3,76(a3)
   12e58:	47b0                	lw	a2,72(a5)
   12e5a:	85da                	mv	a1,s6
   12e5c:	8556                	mv	a0,s5
   12e5e:	d79ff0ef          	jal	12bd6 <_ZN7Huffman8bufferItEP12OutputStreamii>
   12e62:	bd9d                	j	12cd8 <_ZN7Huffman3runEP12OutputStreamPiiiib+0x64>

0000000000012e64 <_ZN7Huffman11flushBufferEP12OutputStream>:
   12e64:	7139                	addi	sp,sp,-64
   12e66:	fc06                	sd	ra,56(sp)
   12e68:	f426                	sd	s1,40(sp)
   12e6a:	f04a                	sd	s2,32(sp)
   12e6c:	e05a                	sd	s6,0(sp)
   12e6e:	892e                	mv	s2,a1
   12e70:	4164                	lw	s1,68(a0)
   12e72:	04052b03          	lw	s6,64(a0)
   12e76:	479d                	li	a5,7
   12e78:	0567d963          	bge	a5,s6,12eca <_ZN7Huffman11flushBufferEP12OutputStream+0x66>
   12e7c:	f822                	sd	s0,48(sp)
   12e7e:	ec4e                	sd	s3,24(sp)
   12e80:	e852                	sd	s4,16(sp)
   12e82:	e456                	sd	s5,8(sp)
   12e84:	89da                	mv	s3,s6
   12e86:	0ff00a93          	li	s5,255
   12e8a:	4a1d                	li	s4,7
   12e8c:	a031                	j	12e98 <_ZN7Huffman11flushBufferEP12OutputStream+0x34>
   12e8e:	0084949b          	slliw	s1,s1,0x8
   12e92:	39e1                	addiw	s3,s3,-8
   12e94:	033a5563          	bge	s4,s3,12ebe <_ZN7Huffman11flushBufferEP12OutputStream+0x5a>
   12e98:	4104d41b          	sraiw	s0,s1,0x10
   12e9c:	0ff47413          	zext.b	s0,s0
   12ea0:	00093783          	ld	a5,0(s2)
   12ea4:	6b9c                	ld	a5,16(a5)
   12ea6:	85a2                	mv	a1,s0
   12ea8:	854a                	mv	a0,s2
   12eaa:	9782                	jalr	a5
   12eac:	ff5411e3          	bne	s0,s5,12e8e <_ZN7Huffman11flushBufferEP12OutputStream+0x2a>
   12eb0:	00093783          	ld	a5,0(s2)
   12eb4:	6b9c                	ld	a5,16(a5)
   12eb6:	4581                	li	a1,0
   12eb8:	854a                	mv	a0,s2
   12eba:	9782                	jalr	a5
   12ebc:	bfc9                	j	12e8e <_ZN7Huffman11flushBufferEP12OutputStream+0x2a>
   12ebe:	007b7b13          	andi	s6,s6,7
   12ec2:	7442                	ld	s0,48(sp)
   12ec4:	69e2                	ld	s3,24(sp)
   12ec6:	6a42                	ld	s4,16(sp)
   12ec8:	6aa2                	ld	s5,8(sp)
   12eca:	01605b63          	blez	s6,12ee0 <_ZN7Huffman11flushBufferEP12OutputStream+0x7c>
   12ece:	4104d49b          	sraiw	s1,s1,0x10
   12ed2:	00093783          	ld	a5,0(s2)
   12ed6:	6b9c                	ld	a5,16(a5)
   12ed8:	0ff4f593          	zext.b	a1,s1
   12edc:	854a                	mv	a0,s2
   12ede:	9782                	jalr	a5
   12ee0:	70e2                	ld	ra,56(sp)
   12ee2:	74a2                	ld	s1,40(sp)
   12ee4:	7902                	ld	s2,32(sp)
   12ee6:	6b02                	ld	s6,0(sp)
   12ee8:	6121                	addi	sp,sp,64
   12eea:	8082                	ret

0000000000012eec <_ZN7Huffman7initHufEv>:
   12eec:	72fd                	lui	t0,0xfffff
   12eee:	7f028293          	addi	t0,t0,2032 # fffffffffffff7f0 <__BSS_END__+0xfffffffffffc50e0>
   12ef2:	9116                	add	sp,sp,t0
   12ef4:	00039637          	lui	a2,0x39
   12ef8:	b8460613          	addi	a2,a2,-1148 # 38b84 <_ZN7Huffman17bitsDCchrominanceE+0x4>
   12efc:	4685                	li	a3,1
   12efe:	4881                	li	a7,0
   12f00:	4845                	li	a6,17
   12f02:	a815                	j	12f36 <_ZN7Huffman7initHufEv+0x4a>
   12f04:	00289793          	slli	a5,a7,0x2
   12f08:	40810593          	addi	a1,sp,1032
   12f0c:	97ae                	add	a5,a5,a1
   12f0e:	0007059b          	sext.w	a1,a4
   12f12:	377d                	addiw	a4,a4,-1
   12f14:	1702                	slli	a4,a4,0x20
   12f16:	9301                	srli	a4,a4,0x20
   12f18:	9746                	add	a4,a4,a7
   12f1a:	070a                	slli	a4,a4,0x2
   12f1c:	40c10313          	addi	t1,sp,1036
   12f20:	971a                	add	a4,a4,t1
   12f22:	c394                	sw	a3,0(a5)
   12f24:	0791                	addi	a5,a5,4
   12f26:	fee79ee3          	bne	a5,a4,12f22 <_ZN7Huffman7initHufEv+0x36>
   12f2a:	00b888bb          	addw	a7,a7,a1
   12f2e:	2685                	addiw	a3,a3,1
   12f30:	0611                	addi	a2,a2,4
   12f32:	01068663          	beq	a3,a6,12f3e <_ZN7Huffman7initHufEv+0x52>
   12f36:	4218                	lw	a4,0(a2)
   12f38:	fce046e3          	bgtz	a4,12f04 <_ZN7Huffman7initHufEv+0x18>
   12f3c:	bfcd                	j	12f2e <_ZN7Huffman7initHufEv+0x42>
   12f3e:	00289793          	slli	a5,a7,0x2
   12f42:	6685                	lui	a3,0x1
   12f44:	81068713          	addi	a4,a3,-2032 # 810 <__cxa_bad_cast-0xf8d8>
   12f48:	973e                	add	a4,a4,a5
   12f4a:	002707b3          	add	a5,a4,sp
   12f4e:	be07ac23          	sw	zero,-1032(a5)
   12f52:	40812583          	lw	a1,1032(sp)
   12f56:	4e01                	li	t3,0
   12f58:	4301                	li	t1,0
   12f5a:	7efd                	lui	t4,0xfffff
   12f5c:	7f0e8e93          	addi	t4,t4,2032 # fffffffffffff7f0 <__BSS_END__+0xfffffffffffc50e0>
   12f60:	81068793          	addi	a5,a3,-2032
   12f64:	97f6                	add	a5,a5,t4
   12f66:	00278eb3          	add	t4,a5,sp
   12f6a:	e5cd                	bnez	a1,13014 <_ZN7Huffman7initHufEv+0x128>
   12f6c:	05105863          	blez	a7,12fbc <_ZN7Huffman7initHufEv+0xd0>
   12f70:	00039637          	lui	a2,0x39
   12f74:	bc860613          	addi	a2,a2,-1080 # 38bc8 <_ZN7Huffman16valDCchrominanceE>
   12f78:	75fd                	lui	a1,0xfffff
   12f7a:	7f058593          	addi	a1,a1,2032 # fffffffffffff7f0 <__BSS_END__+0xfffffffffffc50e0>
   12f7e:	6785                	lui	a5,0x1
   12f80:	81078793          	addi	a5,a5,-2032 # 810 <__cxa_bad_cast-0xf8d8>
   12f84:	97ae                	add	a5,a5,a1
   12f86:	002785b3          	add	a1,a5,sp
   12f8a:	40810813          	addi	a6,sp,1032
   12f8e:	00289793          	slli	a5,a7,0x2
   12f92:	97b2                	add	a5,a5,a2
   12f94:	4218                	lw	a4,0(a2)
   12f96:	01470693          	addi	a3,a4,20
   12f9a:	068e                	slli	a3,a3,0x3
   12f9c:	96aa                	add	a3,a3,a0
   12f9e:	0005a883          	lw	a7,0(a1)
   12fa2:	0116a423          	sw	a7,8(a3)
   12fa6:	070e                	slli	a4,a4,0x3
   12fa8:	972a                	add	a4,a4,a0
   12faa:	00082683          	lw	a3,0(a6)
   12fae:	0ad72623          	sw	a3,172(a4)
   12fb2:	0611                	addi	a2,a2,4
   12fb4:	0591                	addi	a1,a1,4
   12fb6:	0811                	addi	a6,a6,4
   12fb8:	fcf61ee3          	bne	a2,a5,12f94 <_ZN7Huffman7initHufEv+0xa8>
   12fbc:	00039637          	lui	a2,0x39
   12fc0:	bfc60613          	addi	a2,a2,-1028 # 38bfc <_ZN7Huffman17bitsACchrominanceE+0x4>
   12fc4:	4685                	li	a3,1
   12fc6:	4881                	li	a7,0
   12fc8:	4845                	li	a6,17
   12fca:	a0bd                	j	13038 <_ZN7Huffman7initHufEv+0x14c>
   12fcc:	00231713          	slli	a4,t1,0x2
   12fd0:	00ee86b3          	add	a3,t4,a4
   12fd4:	0711                	addi	a4,a4,4
   12fd6:	40810793          	addi	a5,sp,1032
   12fda:	973e                	add	a4,a4,a5
   12fdc:	87f2                	mv	a5,t3
   12fde:	c29c                	sw	a5,0(a3)
   12fe0:	883e                	mv	a6,a5
   12fe2:	2785                	addiw	a5,a5,1
   12fe4:	4310                	lw	a2,0(a4)
   12fe6:	0691                	addi	a3,a3,4
   12fe8:	0711                	addi	a4,a4,4
   12fea:	feb60ae3          	beq	a2,a1,12fde <_ZN7Huffman7initHufEv+0xf2>
   12fee:	2305                	addiw	t1,t1,1
   12ff0:	41c3033b          	subw	t1,t1,t3
   12ff4:	0103033b          	addw	t1,t1,a6
   12ff8:	00179e1b          	slliw	t3,a5,0x1
   12ffc:	2585                	addiw	a1,a1,1
   12ffe:	00231793          	slli	a5,t1,0x2
   13002:	6705                	lui	a4,0x1
   13004:	81070713          	addi	a4,a4,-2032 # 810 <__cxa_bad_cast-0xf8d8>
   13008:	973e                	add	a4,a4,a5
   1300a:	002707b3          	add	a5,a4,sp
   1300e:	bf87a783          	lw	a5,-1032(a5)
   13012:	dfa9                	beqz	a5,12f6c <_ZN7Huffman7initHufEv+0x80>
   13014:	00231793          	slli	a5,t1,0x2
   13018:	6705                	lui	a4,0x1
   1301a:	81070713          	addi	a4,a4,-2032 # 810 <__cxa_bad_cast-0xf8d8>
   1301e:	973e                	add	a4,a4,a5
   13020:	002707b3          	add	a5,a4,sp
   13024:	bf87a783          	lw	a5,-1032(a5)
   13028:	fab782e3          	beq	a5,a1,12fcc <_ZN7Huffman7initHufEv+0xe0>
   1302c:	87f2                	mv	a5,t3
   1302e:	b7e9                	j	12ff8 <_ZN7Huffman7initHufEv+0x10c>
   13030:	2685                	addiw	a3,a3,1
   13032:	0611                	addi	a2,a2,4
   13034:	03068b63          	beq	a3,a6,1306a <_ZN7Huffman7initHufEv+0x17e>
   13038:	4218                	lw	a4,0(a2)
   1303a:	fee05be3          	blez	a4,13030 <_ZN7Huffman7initHufEv+0x144>
   1303e:	00289793          	slli	a5,a7,0x2
   13042:	40810593          	addi	a1,sp,1032
   13046:	97ae                	add	a5,a5,a1
   13048:	0007059b          	sext.w	a1,a4
   1304c:	377d                	addiw	a4,a4,-1
   1304e:	1702                	slli	a4,a4,0x20
   13050:	9301                	srli	a4,a4,0x20
   13052:	9746                	add	a4,a4,a7
   13054:	070a                	slli	a4,a4,0x2
   13056:	40c10313          	addi	t1,sp,1036
   1305a:	971a                	add	a4,a4,t1
   1305c:	c394                	sw	a3,0(a5)
   1305e:	0791                	addi	a5,a5,4
   13060:	fee79ee3          	bne	a5,a4,1305c <_ZN7Huffman7initHufEv+0x170>
   13064:	00b888bb          	addw	a7,a7,a1
   13068:	b7e1                	j	13030 <_ZN7Huffman7initHufEv+0x144>
   1306a:	00289793          	slli	a5,a7,0x2
   1306e:	6685                	lui	a3,0x1
   13070:	81068713          	addi	a4,a3,-2032 # 810 <__cxa_bad_cast-0xf8d8>
   13074:	973e                	add	a4,a4,a5
   13076:	002707b3          	add	a5,a4,sp
   1307a:	be07ac23          	sw	zero,-1032(a5)
   1307e:	40812583          	lw	a1,1032(sp)
   13082:	4e01                	li	t3,0
   13084:	4301                	li	t1,0
   13086:	7efd                	lui	t4,0xfffff
   13088:	7f0e8e93          	addi	t4,t4,2032 # fffffffffffff7f0 <__BSS_END__+0xfffffffffffc50e0>
   1308c:	81068793          	addi	a5,a3,-2032
   13090:	97f6                	add	a5,a5,t4
   13092:	00278eb3          	add	t4,a5,sp
   13096:	e5dd                	bnez	a1,13144 <_ZN7Huffman7initHufEv+0x258>
   13098:	05105a63          	blez	a7,130ec <_ZN7Huffman7initHufEv+0x200>
   1309c:	00039637          	lui	a2,0x39
   130a0:	c4060613          	addi	a2,a2,-960 # 38c40 <_ZN7Huffman16valACchrominanceE>
   130a4:	75fd                	lui	a1,0xfffff
   130a6:	7f058593          	addi	a1,a1,2032 # fffffffffffff7f0 <__BSS_END__+0xfffffffffffc50e0>
   130aa:	6785                	lui	a5,0x1
   130ac:	81078793          	addi	a5,a5,-2032 # 810 <__cxa_bad_cast-0xf8d8>
   130b0:	97ae                	add	a5,a5,a1
   130b2:	002785b3          	add	a1,a5,sp
   130b6:	40810813          	addi	a6,sp,1032
   130ba:	00289713          	slli	a4,a7,0x2
   130be:	9732                	add	a4,a4,a2
   130c0:	6305                	lui	t1,0x1
   130c2:	421c                	lw	a5,0(a2)
   130c4:	11f78693          	addi	a3,a5,287
   130c8:	068e                	slli	a3,a3,0x3
   130ca:	96aa                	add	a3,a3,a0
   130cc:	0005a883          	lw	a7,0(a1)
   130d0:	0116a423          	sw	a7,8(a3)
   130d4:	078e                	slli	a5,a5,0x3
   130d6:	97aa                	add	a5,a5,a0
   130d8:	979a                	add	a5,a5,t1
   130da:	00082683          	lw	a3,0(a6)
   130de:	90d7a223          	sw	a3,-1788(a5)
   130e2:	0611                	addi	a2,a2,4
   130e4:	0591                	addi	a1,a1,4
   130e6:	0811                	addi	a6,a6,4
   130e8:	fce61de3          	bne	a2,a4,130c2 <_ZN7Huffman7initHufEv+0x1d6>
   130ec:	00039637          	lui	a2,0x39
   130f0:	ecc60613          	addi	a2,a2,-308 # 38ecc <_ZN7Huffman15bitsDCluminanceE+0x4>
   130f4:	4685                	li	a3,1
   130f6:	4881                	li	a7,0
   130f8:	4845                	li	a6,17
   130fa:	a861                	j	13192 <_ZN7Huffman7initHufEv+0x2a6>
   130fc:	00231713          	slli	a4,t1,0x2
   13100:	00ee86b3          	add	a3,t4,a4
   13104:	0711                	addi	a4,a4,4
   13106:	40810793          	addi	a5,sp,1032
   1310a:	973e                	add	a4,a4,a5
   1310c:	87f2                	mv	a5,t3
   1310e:	c29c                	sw	a5,0(a3)
   13110:	883e                	mv	a6,a5
   13112:	2785                	addiw	a5,a5,1
   13114:	4310                	lw	a2,0(a4)
   13116:	0691                	addi	a3,a3,4
   13118:	0711                	addi	a4,a4,4
   1311a:	feb60ae3          	beq	a2,a1,1310e <_ZN7Huffman7initHufEv+0x222>
   1311e:	2305                	addiw	t1,t1,1 # 1001 <__cxa_bad_cast-0xf0e7>
   13120:	41c3033b          	subw	t1,t1,t3
   13124:	0103033b          	addw	t1,t1,a6
   13128:	00179e1b          	slliw	t3,a5,0x1
   1312c:	2585                	addiw	a1,a1,1
   1312e:	00231793          	slli	a5,t1,0x2
   13132:	6705                	lui	a4,0x1
   13134:	81070713          	addi	a4,a4,-2032 # 810 <__cxa_bad_cast-0xf8d8>
   13138:	973e                	add	a4,a4,a5
   1313a:	002707b3          	add	a5,a4,sp
   1313e:	bf87a783          	lw	a5,-1032(a5)
   13142:	dbb9                	beqz	a5,13098 <_ZN7Huffman7initHufEv+0x1ac>
   13144:	00231793          	slli	a5,t1,0x2
   13148:	6705                	lui	a4,0x1
   1314a:	81070713          	addi	a4,a4,-2032 # 810 <__cxa_bad_cast-0xf8d8>
   1314e:	973e                	add	a4,a4,a5
   13150:	002707b3          	add	a5,a4,sp
   13154:	bf87a783          	lw	a5,-1032(a5)
   13158:	fab782e3          	beq	a5,a1,130fc <_ZN7Huffman7initHufEv+0x210>
   1315c:	87f2                	mv	a5,t3
   1315e:	b7e9                	j	13128 <_ZN7Huffman7initHufEv+0x23c>
   13160:	00289793          	slli	a5,a7,0x2
   13164:	40810593          	addi	a1,sp,1032
   13168:	97ae                	add	a5,a5,a1
   1316a:	0007059b          	sext.w	a1,a4
   1316e:	377d                	addiw	a4,a4,-1
   13170:	1702                	slli	a4,a4,0x20
   13172:	9301                	srli	a4,a4,0x20
   13174:	9746                	add	a4,a4,a7
   13176:	070a                	slli	a4,a4,0x2
   13178:	40c10313          	addi	t1,sp,1036
   1317c:	971a                	add	a4,a4,t1
   1317e:	c394                	sw	a3,0(a5)
   13180:	0791                	addi	a5,a5,4
   13182:	fee79ee3          	bne	a5,a4,1317e <_ZN7Huffman7initHufEv+0x292>
   13186:	00b888bb          	addw	a7,a7,a1
   1318a:	2685                	addiw	a3,a3,1
   1318c:	0611                	addi	a2,a2,4
   1318e:	01068663          	beq	a3,a6,1319a <_ZN7Huffman7initHufEv+0x2ae>
   13192:	4218                	lw	a4,0(a2)
   13194:	fce046e3          	bgtz	a4,13160 <_ZN7Huffman7initHufEv+0x274>
   13198:	bfcd                	j	1318a <_ZN7Huffman7initHufEv+0x29e>
   1319a:	00289793          	slli	a5,a7,0x2
   1319e:	6685                	lui	a3,0x1
   131a0:	81068713          	addi	a4,a3,-2032 # 810 <__cxa_bad_cast-0xf8d8>
   131a4:	973e                	add	a4,a4,a5
   131a6:	002707b3          	add	a5,a4,sp
   131aa:	be07ac23          	sw	zero,-1032(a5)
   131ae:	40812583          	lw	a1,1032(sp)
   131b2:	4e01                	li	t3,0
   131b4:	4301                	li	t1,0
   131b6:	7efd                	lui	t4,0xfffff
   131b8:	7f0e8e93          	addi	t4,t4,2032 # fffffffffffff7f0 <__BSS_END__+0xfffffffffffc50e0>
   131bc:	81068793          	addi	a5,a3,-2032
   131c0:	97f6                	add	a5,a5,t4
   131c2:	00278eb3          	add	t4,a5,sp
   131c6:	e5c5                	bnez	a1,1326e <_ZN7Huffman7initHufEv+0x382>
   131c8:	05105763          	blez	a7,13216 <_ZN7Huffman7initHufEv+0x32a>
   131cc:	00039637          	lui	a2,0x39
   131d0:	f1060613          	addi	a2,a2,-240 # 38f10 <_ZN7Huffman14valDCluminanceE>
   131d4:	75fd                	lui	a1,0xfffff
   131d6:	7f058593          	addi	a1,a1,2032 # fffffffffffff7f0 <__BSS_END__+0xfffffffffffc50e0>
   131da:	6785                	lui	a5,0x1
   131dc:	81078793          	addi	a5,a5,-2032 # 810 <__cxa_bad_cast-0xf8d8>
   131e0:	97ae                	add	a5,a5,a1
   131e2:	002785b3          	add	a1,a5,sp
   131e6:	40810813          	addi	a6,sp,1032
   131ea:	00289793          	slli	a5,a7,0x2
   131ee:	97b2                	add	a5,a5,a2
   131f0:	4218                	lw	a4,0(a2)
   131f2:	00870693          	addi	a3,a4,8
   131f6:	068e                	slli	a3,a3,0x3
   131f8:	96aa                	add	a3,a3,a0
   131fa:	0005a883          	lw	a7,0(a1)
   131fe:	0116a423          	sw	a7,8(a3)
   13202:	070e                	slli	a4,a4,0x3
   13204:	972a                	add	a4,a4,a0
   13206:	00082683          	lw	a3,0(a6)
   1320a:	c774                	sw	a3,76(a4)
   1320c:	0611                	addi	a2,a2,4
   1320e:	0591                	addi	a1,a1,4
   13210:	0811                	addi	a6,a6,4
   13212:	fcc79fe3          	bne	a5,a2,131f0 <_ZN7Huffman7initHufEv+0x304>
   13216:	00039637          	lui	a2,0x39
   1321a:	f4460613          	addi	a2,a2,-188 # 38f44 <_ZN7Huffman15bitsACluminanceE+0x4>
   1321e:	4685                	li	a3,1
   13220:	4881                	li	a7,0
   13222:	4845                	li	a6,17
   13224:	a861                	j	132bc <_ZN7Huffman7initHufEv+0x3d0>
   13226:	00231713          	slli	a4,t1,0x2
   1322a:	00ee86b3          	add	a3,t4,a4
   1322e:	0711                	addi	a4,a4,4
   13230:	40810793          	addi	a5,sp,1032
   13234:	973e                	add	a4,a4,a5
   13236:	87f2                	mv	a5,t3
   13238:	c29c                	sw	a5,0(a3)
   1323a:	883e                	mv	a6,a5
   1323c:	2785                	addiw	a5,a5,1
   1323e:	4310                	lw	a2,0(a4)
   13240:	0691                	addi	a3,a3,4
   13242:	0711                	addi	a4,a4,4
   13244:	feb60ae3          	beq	a2,a1,13238 <_ZN7Huffman7initHufEv+0x34c>
   13248:	2305                	addiw	t1,t1,1
   1324a:	41c3033b          	subw	t1,t1,t3
   1324e:	0103033b          	addw	t1,t1,a6
   13252:	00179e1b          	slliw	t3,a5,0x1
   13256:	2585                	addiw	a1,a1,1
   13258:	00231793          	slli	a5,t1,0x2
   1325c:	6705                	lui	a4,0x1
   1325e:	81070713          	addi	a4,a4,-2032 # 810 <__cxa_bad_cast-0xf8d8>
   13262:	973e                	add	a4,a4,a5
   13264:	002707b3          	add	a5,a4,sp
   13268:	bf87a783          	lw	a5,-1032(a5)
   1326c:	dfb1                	beqz	a5,131c8 <_ZN7Huffman7initHufEv+0x2dc>
   1326e:	00231793          	slli	a5,t1,0x2
   13272:	6705                	lui	a4,0x1
   13274:	81070713          	addi	a4,a4,-2032 # 810 <__cxa_bad_cast-0xf8d8>
   13278:	973e                	add	a4,a4,a5
   1327a:	002707b3          	add	a5,a4,sp
   1327e:	bf87a783          	lw	a5,-1032(a5)
   13282:	fab782e3          	beq	a5,a1,13226 <_ZN7Huffman7initHufEv+0x33a>
   13286:	87f2                	mv	a5,t3
   13288:	b7e9                	j	13252 <_ZN7Huffman7initHufEv+0x366>
   1328a:	00289793          	slli	a5,a7,0x2
   1328e:	40810593          	addi	a1,sp,1032
   13292:	97ae                	add	a5,a5,a1
   13294:	0007059b          	sext.w	a1,a4
   13298:	377d                	addiw	a4,a4,-1
   1329a:	1702                	slli	a4,a4,0x20
   1329c:	9301                	srli	a4,a4,0x20
   1329e:	9746                	add	a4,a4,a7
   132a0:	070a                	slli	a4,a4,0x2
   132a2:	40c10313          	addi	t1,sp,1036
   132a6:	971a                	add	a4,a4,t1
   132a8:	c394                	sw	a3,0(a5)
   132aa:	0791                	addi	a5,a5,4
   132ac:	fee79ee3          	bne	a5,a4,132a8 <_ZN7Huffman7initHufEv+0x3bc>
   132b0:	00b888bb          	addw	a7,a7,a1
   132b4:	2685                	addiw	a3,a3,1
   132b6:	0611                	addi	a2,a2,4
   132b8:	01068663          	beq	a3,a6,132c4 <_ZN7Huffman7initHufEv+0x3d8>
   132bc:	4218                	lw	a4,0(a2)
   132be:	fce046e3          	bgtz	a4,1328a <_ZN7Huffman7initHufEv+0x39e>
   132c2:	bfcd                	j	132b4 <_ZN7Huffman7initHufEv+0x3c8>
   132c4:	00289793          	slli	a5,a7,0x2
   132c8:	6685                	lui	a3,0x1
   132ca:	81068713          	addi	a4,a3,-2032 # 810 <__cxa_bad_cast-0xf8d8>
   132ce:	973e                	add	a4,a4,a5
   132d0:	002707b3          	add	a5,a4,sp
   132d4:	be07ac23          	sw	zero,-1032(a5)
   132d8:	40812583          	lw	a1,1032(sp)
   132dc:	4e01                	li	t3,0
   132de:	4301                	li	t1,0
   132e0:	7efd                	lui	t4,0xfffff
   132e2:	7f0e8e93          	addi	t4,t4,2032 # fffffffffffff7f0 <__BSS_END__+0xfffffffffffc50e0>
   132e6:	81068793          	addi	a5,a3,-2032
   132ea:	97f6                	add	a5,a5,t4
   132ec:	00278eb3          	add	t4,a5,sp
   132f0:	e1dd                	bnez	a1,13396 <_ZN7Huffman7initHufEv+0x4aa>
   132f2:	05105963          	blez	a7,13344 <_ZN7Huffman7initHufEv+0x458>
   132f6:	000396b7          	lui	a3,0x39
   132fa:	f8868693          	addi	a3,a3,-120 # 38f88 <_ZN7Huffman14valACluminanceE>
   132fe:	767d                	lui	a2,0xfffff
   13300:	7f060613          	addi	a2,a2,2032 # fffffffffffff7f0 <__BSS_END__+0xfffffffffffc50e0>
   13304:	6785                	lui	a5,0x1
   13306:	81078793          	addi	a5,a5,-2032 # 810 <__cxa_bad_cast-0xf8d8>
   1330a:	97b2                	add	a5,a5,a2
   1330c:	00278633          	add	a2,a5,sp
   13310:	40810593          	addi	a1,sp,1032
   13314:	00289793          	slli	a5,a7,0x2
   13318:	97b6                	add	a5,a5,a3
   1331a:	4298                	lw	a4,0(a3)
   1331c:	02070713          	addi	a4,a4,32
   13320:	070e                	slli	a4,a4,0x3
   13322:	972a                	add	a4,a4,a0
   13324:	00062803          	lw	a6,0(a2)
   13328:	01072423          	sw	a6,8(a4)
   1332c:	4298                	lw	a4,0(a3)
   1332e:	070e                	slli	a4,a4,0x3
   13330:	972a                	add	a4,a4,a0
   13332:	0005a803          	lw	a6,0(a1)
   13336:	11072623          	sw	a6,268(a4)
   1333a:	0691                	addi	a3,a3,4
   1333c:	0611                	addi	a2,a2,4
   1333e:	0591                	addi	a1,a1,4
   13340:	fcd79de3          	bne	a5,a3,1331a <_ZN7Huffman7initHufEv+0x42e>
   13344:	6285                	lui	t0,0x1
   13346:	81028293          	addi	t0,t0,-2032 # 810 <__cxa_bad_cast-0xf8d8>
   1334a:	9116                	add	sp,sp,t0
   1334c:	8082                	ret
   1334e:	00231713          	slli	a4,t1,0x2
   13352:	00ee86b3          	add	a3,t4,a4
   13356:	0711                	addi	a4,a4,4
   13358:	40810793          	addi	a5,sp,1032
   1335c:	973e                	add	a4,a4,a5
   1335e:	87f2                	mv	a5,t3
   13360:	c29c                	sw	a5,0(a3)
   13362:	883e                	mv	a6,a5
   13364:	2785                	addiw	a5,a5,1
   13366:	4310                	lw	a2,0(a4)
   13368:	0691                	addi	a3,a3,4
   1336a:	0711                	addi	a4,a4,4
   1336c:	feb60ae3          	beq	a2,a1,13360 <_ZN7Huffman7initHufEv+0x474>
   13370:	2305                	addiw	t1,t1,1
   13372:	41c3033b          	subw	t1,t1,t3
   13376:	0103033b          	addw	t1,t1,a6
   1337a:	00179e1b          	slliw	t3,a5,0x1
   1337e:	2585                	addiw	a1,a1,1
   13380:	00231793          	slli	a5,t1,0x2
   13384:	6705                	lui	a4,0x1
   13386:	81070713          	addi	a4,a4,-2032 # 810 <__cxa_bad_cast-0xf8d8>
   1338a:	973e                	add	a4,a4,a5
   1338c:	002707b3          	add	a5,a4,sp
   13390:	bf87a783          	lw	a5,-1032(a5)
   13394:	dfb9                	beqz	a5,132f2 <_ZN7Huffman7initHufEv+0x406>
   13396:	00231793          	slli	a5,t1,0x2
   1339a:	6705                	lui	a4,0x1
   1339c:	81070713          	addi	a4,a4,-2032 # 810 <__cxa_bad_cast-0xf8d8>
   133a0:	973e                	add	a4,a4,a5
   133a2:	002707b3          	add	a5,a4,sp
   133a6:	bf87a783          	lw	a5,-1032(a5)
   133aa:	fab782e3          	beq	a5,a1,1334e <_ZN7Huffman7initHufEv+0x462>
   133ae:	87f2                	mv	a5,t3
   133b0:	b7e9                	j	1337a <_ZN7Huffman7initHufEv+0x48e>

00000000000133b2 <_ZN7HuffmanC1Ev>:
   133b2:	1141                	addi	sp,sp,-16
   133b4:	e406                	sd	ra,8(sp)
   133b6:	000397b7          	lui	a5,0x39
   133ba:	b8078793          	addi	a5,a5,-1152 # 38b80 <_ZN7Huffman17bitsDCchrominanceE>
   133be:	34878693          	addi	a3,a5,840
   133c2:	e114                	sd	a3,0(a0)
   133c4:	3c078693          	addi	a3,a5,960
   133c8:	e514                	sd	a3,8(a0)
   133ca:	e91c                	sd	a5,16(a0)
   133cc:	07878693          	addi	a3,a5,120
   133d0:	ed14                	sd	a3,24(a0)
   133d2:	39078693          	addi	a3,a5,912
   133d6:	f114                	sd	a3,32(a0)
   133d8:	40878693          	addi	a3,a5,1032
   133dc:	f514                	sd	a3,40(a0)
   133de:	04878693          	addi	a3,a5,72
   133e2:	f914                	sd	a3,48(a0)
   133e4:	0c078793          	addi	a5,a5,192
   133e8:	fd1c                	sd	a5,56(a0)
   133ea:	b03ff0ef          	jal	12eec <_ZN7Huffman7initHufEv>
   133ee:	60a2                	ld	ra,8(sp)
   133f0:	0141                	addi	sp,sp,16
   133f2:	8082                	ret

00000000000133f4 <_ZN8JpegInfoD1Ev>:
   133f4:	1141                	addi	sp,sp,-16
   133f6:	e406                	sd	ra,8(sp)
   133f8:	e022                	sd	s0,0(sp)
   133fa:	842a                	mv	s0,a0
   133fc:	7d08                	ld	a0,56(a0)
   133fe:	c501                	beqz	a0,13406 <_ZN8JpegInfoD1Ev+0x12>
   13400:	611c                	ld	a5,0(a0)
   13402:	679c                	ld	a5,8(a5)
   13404:	9782                	jalr	a5
   13406:	6028                	ld	a0,64(s0)
   13408:	c501                	beqz	a0,13410 <_ZN8JpegInfoD1Ev+0x1c>
   1340a:	611c                	ld	a5,0(a0)
   1340c:	679c                	ld	a5,8(a5)
   1340e:	9782                	jalr	a5
   13410:	6428                	ld	a0,72(s0)
   13412:	c501                	beqz	a0,1341a <_ZN8JpegInfoD1Ev+0x26>
   13414:	611c                	ld	a5,0(a0)
   13416:	679c                	ld	a5,8(a5)
   13418:	9782                	jalr	a5
   1341a:	6008                	ld	a0,0(s0)
   1341c:	01040793          	addi	a5,s0,16
   13420:	00f50663          	beq	a0,a5,1342c <_ZN8JpegInfoD1Ev+0x38>
   13424:	680c                	ld	a1,16(s0)
   13426:	0585                	addi	a1,a1,1
   13428:	409000ef          	jal	14030 <_ZdlPvm>
   1342c:	60a2                	ld	ra,8(sp)
   1342e:	6402                	ld	s0,0(sp)
   13430:	0141                	addi	sp,sp,16
   13432:	8082                	ret

0000000000013434 <_ZN8JpegInfo10setCommentENSt7__cxx1112basic_stringIcSt11char_traitsIcESaIcEEE>:
   13434:	715d                	addi	sp,sp,-80
   13436:	e486                	sd	ra,72(sp)
   13438:	e0a2                	sd	s0,64(sp)
   1343a:	fc26                	sd	s1,56(sp)
   1343c:	f84a                	sd	s2,48(sp)
   1343e:	f44e                	sd	s3,40(sp)
   13440:	f052                	sd	s4,32(sp)
   13442:	842a                	mv	s0,a0
   13444:	00053a03          	ld	s4,0(a0)
   13448:	6504                	ld	s1,8(a0)
   1344a:	0005b983          	ld	s3,0(a1)
   1344e:	0085b903          	ld	s2,8(a1)
   13452:	081c                	addi	a5,sp,16
   13454:	e03e                	sd	a5,0(sp)
   13456:	e402                	sd	zero,8(sp)
   13458:	00010823          	sb	zero,16(sp)
   1345c:	012485b3          	add	a1,s1,s2
   13460:	850a                	mv	a0,sp
   13462:	64f010ef          	jal	152b0 <_ZNSt7__cxx1112basic_stringIcSt11char_traitsIcESaIcEE7reserveEm>
   13466:	57fd                	li	a5,-1
   13468:	8389                	srli	a5,a5,0x2
   1346a:	6722                	ld	a4,8(sp)
   1346c:	8f99                	sub	a5,a5,a4
   1346e:	0097e863          	bltu	a5,s1,1347e <_ZN8JpegInfo10setCommentENSt7__cxx1112basic_stringIcSt11char_traitsIcESaIcEEE+0x4a>
   13472:	8626                	mv	a2,s1
   13474:	85d2                	mv	a1,s4
   13476:	850a                	mv	a0,sp
   13478:	614020ef          	jal	15a8c <_ZNSt7__cxx1112basic_stringIcSt11char_traitsIcESaIcEE9_M_appendEPKcm>
   1347c:	a831                	j	13498 <_ZN8JpegInfo10setCommentENSt7__cxx1112basic_stringIcSt11char_traitsIcESaIcEEE+0x64>
   1347e:	0002e537          	lui	a0,0x2e
   13482:	21850513          	addi	a0,a0,536 # 2e218 <__clzdi2+0x3e4>
   13486:	e41fc0ef          	jal	102c6 <_ZSt20__throw_length_errorPKc>
   1348a:	842a                	mv	s0,a0
   1348c:	850a                	mv	a0,sp
   1348e:	1bb010ef          	jal	14e48 <_ZNSt7__cxx1112basic_stringIcSt11char_traitsIcESaIcEE10_M_disposeEv>
   13492:	8522                	mv	a0,s0
   13494:	47b0d0ef          	jal	2110e <_Unwind_Resume>
   13498:	57fd                	li	a5,-1
   1349a:	8389                	srli	a5,a5,0x2
   1349c:	6722                	ld	a4,8(sp)
   1349e:	8f99                	sub	a5,a5,a4
   134a0:	0127e863          	bltu	a5,s2,134b0 <_ZN8JpegInfo10setCommentENSt7__cxx1112basic_stringIcSt11char_traitsIcESaIcEEE+0x7c>
   134a4:	864a                	mv	a2,s2
   134a6:	85ce                	mv	a1,s3
   134a8:	850a                	mv	a0,sp
   134aa:	5e2020ef          	jal	15a8c <_ZNSt7__cxx1112basic_stringIcSt11char_traitsIcESaIcEE9_M_appendEPKcm>
   134ae:	a039                	j	134bc <_ZN8JpegInfo10setCommentENSt7__cxx1112basic_stringIcSt11char_traitsIcESaIcEEE+0x88>
   134b0:	0002e537          	lui	a0,0x2e
   134b4:	21850513          	addi	a0,a0,536 # 2e218 <__clzdi2+0x3e4>
   134b8:	e0ffc0ef          	jal	102c6 <_ZSt20__throw_length_errorPKc>
   134bc:	6008                	ld	a0,0(s0)
   134be:	01040793          	addi	a5,s0,16
   134c2:	04f50363          	beq	a0,a5,13508 <_ZN8JpegInfo10setCommentENSt7__cxx1112basic_stringIcSt11char_traitsIcESaIcEEE+0xd4>
   134c6:	6782                	ld	a5,0(sp)
   134c8:	0818                	addi	a4,sp,16
   134ca:	06e78963          	beq	a5,a4,1353c <_ZN8JpegInfo10setCommentENSt7__cxx1112basic_stringIcSt11char_traitsIcESaIcEEE+0x108>
   134ce:	6818                	ld	a4,16(s0)
   134d0:	e01c                	sd	a5,0(s0)
   134d2:	67a2                	ld	a5,8(sp)
   134d4:	e41c                	sd	a5,8(s0)
   134d6:	67c2                	ld	a5,16(sp)
   134d8:	e81c                	sd	a5,16(s0)
   134da:	c121                	beqz	a0,1351a <_ZN8JpegInfo10setCommentENSt7__cxx1112basic_stringIcSt11char_traitsIcESaIcEEE+0xe6>
   134dc:	e02a                	sd	a0,0(sp)
   134de:	e83a                	sd	a4,16(sp)
   134e0:	e402                	sd	zero,8(sp)
   134e2:	6782                	ld	a5,0(sp)
   134e4:	00078023          	sb	zero,0(a5)
   134e8:	6502                	ld	a0,0(sp)
   134ea:	081c                	addi	a5,sp,16
   134ec:	00f50663          	beq	a0,a5,134f8 <_ZN8JpegInfo10setCommentENSt7__cxx1112basic_stringIcSt11char_traitsIcESaIcEEE+0xc4>
   134f0:	65c2                	ld	a1,16(sp)
   134f2:	0585                	addi	a1,a1,1
   134f4:	33d000ef          	jal	14030 <_ZdlPvm>
   134f8:	60a6                	ld	ra,72(sp)
   134fa:	6406                	ld	s0,64(sp)
   134fc:	74e2                	ld	s1,56(sp)
   134fe:	7942                	ld	s2,48(sp)
   13500:	79a2                	ld	s3,40(sp)
   13502:	7a02                	ld	s4,32(sp)
   13504:	6161                	addi	sp,sp,80
   13506:	8082                	ret
   13508:	6782                	ld	a5,0(sp)
   1350a:	0818                	addi	a4,sp,16
   1350c:	00e78a63          	beq	a5,a4,13520 <_ZN8JpegInfo10setCommentENSt7__cxx1112basic_stringIcSt11char_traitsIcESaIcEEE+0xec>
   13510:	e01c                	sd	a5,0(s0)
   13512:	67a2                	ld	a5,8(sp)
   13514:	e41c                	sd	a5,8(s0)
   13516:	67c2                	ld	a5,16(sp)
   13518:	e81c                	sd	a5,16(s0)
   1351a:	081c                	addi	a5,sp,16
   1351c:	e03e                	sd	a5,0(sp)
   1351e:	b7c9                	j	134e0 <_ZN8JpegInfo10setCommentENSt7__cxx1112basic_stringIcSt11char_traitsIcESaIcEEE+0xac>
   13520:	6622                	ld	a2,8(sp)
   13522:	a831                	j	1353e <_ZN8JpegInfo10setCommentENSt7__cxx1112basic_stringIcSt11char_traitsIcESaIcEEE+0x10a>
   13524:	4785                	li	a5,1
   13526:	00f60663          	beq	a2,a5,13532 <_ZN8JpegInfo10setCommentENSt7__cxx1112basic_stringIcSt11char_traitsIcESaIcEEE+0xfe>
   1352a:	080c                	addi	a1,sp,16
   1352c:	6d9110ef          	jal	25404 <memcpy>
   13530:	a801                	j	13540 <_ZN8JpegInfo10setCommentENSt7__cxx1112basic_stringIcSt11char_traitsIcESaIcEEE+0x10c>
   13532:	01014783          	lbu	a5,16(sp)
   13536:	00f50023          	sb	a5,0(a0)
   1353a:	a019                	j	13540 <_ZN8JpegInfo10setCommentENSt7__cxx1112basic_stringIcSt11char_traitsIcESaIcEEE+0x10c>
   1353c:	6622                	ld	a2,8(sp)
   1353e:	f27d                	bnez	a2,13524 <_ZN8JpegInfo10setCommentENSt7__cxx1112basic_stringIcSt11char_traitsIcESaIcEEE+0xf0>
   13540:	6722                	ld	a4,8(sp)
   13542:	e418                	sd	a4,8(s0)
   13544:	601c                	ld	a5,0(s0)
   13546:	97ba                	add	a5,a5,a4
   13548:	00078023          	sb	zero,0(a5)
   1354c:	bf51                	j	134e0 <_ZN8JpegInfo10setCommentENSt7__cxx1112basic_stringIcSt11char_traitsIcESaIcEEE+0xac>

000000000001354e <_ZN8JpegInfo10getCommentB5cxx11Ev>:
   1354e:	7179                	addi	sp,sp,-48
   13550:	f406                	sd	ra,40(sp)
   13552:	f022                	sd	s0,32(sp)
   13554:	ec26                	sd	s1,24(sp)
   13556:	e84a                	sd	s2,16(sp)
   13558:	842a                	mv	s0,a0
   1355a:	0541                	addi	a0,a0,16
   1355c:	e008                	sd	a0,0(s0)
   1355e:	0005b903          	ld	s2,0(a1)
   13562:	6584                	ld	s1,8(a1)
   13564:	e426                	sd	s1,8(sp)
   13566:	47bd                	li	a5,15
   13568:	0297e663          	bltu	a5,s1,13594 <_ZN8JpegInfo10getCommentB5cxx11Ev+0x46>
   1356c:	4785                	li	a5,1
   1356e:	04f49063          	bne	s1,a5,135ae <_ZN8JpegInfo10getCommentB5cxx11Ev+0x60>
   13572:	00094783          	lbu	a5,0(s2)
   13576:	00f40823          	sb	a5,16(s0)
   1357a:	6722                	ld	a4,8(sp)
   1357c:	e418                	sd	a4,8(s0)
   1357e:	601c                	ld	a5,0(s0)
   13580:	97ba                	add	a5,a5,a4
   13582:	00078023          	sb	zero,0(a5)
   13586:	8522                	mv	a0,s0
   13588:	70a2                	ld	ra,40(sp)
   1358a:	7402                	ld	s0,32(sp)
   1358c:	64e2                	ld	s1,24(sp)
   1358e:	6942                	ld	s2,16(sp)
   13590:	6145                	addi	sp,sp,48
   13592:	8082                	ret
   13594:	4601                	li	a2,0
   13596:	002c                	addi	a1,sp,8
   13598:	8522                	mv	a0,s0
   1359a:	073010ef          	jal	14e0c <_ZNSt7__cxx1112basic_stringIcSt11char_traitsIcESaIcEE9_M_createERmm>
   1359e:	e008                	sd	a0,0(s0)
   135a0:	67a2                	ld	a5,8(sp)
   135a2:	e81c                	sd	a5,16(s0)
   135a4:	8626                	mv	a2,s1
   135a6:	85ca                	mv	a1,s2
   135a8:	65d110ef          	jal	25404 <memcpy>
   135ac:	b7f9                	j	1357a <_ZN8JpegInfo10getCommentB5cxx11Ev+0x2c>
   135ae:	d4f1                	beqz	s1,1357a <_ZN8JpegInfo10getCommentB5cxx11Ev+0x2c>
   135b0:	bfd5                	j	135a4 <_ZN8JpegInfo10getCommentB5cxx11Ev+0x56>

00000000000135b2 <_ZN8JpegInfo11getYCCArrayEv>:
   135b2:	7115                	addi	sp,sp,-224
   135b4:	ed86                	sd	ra,216(sp)
   135b6:	e9a2                	sd	s0,208(sp)
   135b8:	e5a6                	sd	s1,200(sp)
   135ba:	e1ca                	sd	s2,192(sp)
   135bc:	fd4e                	sd	s3,184(sp)
   135be:	f952                	sd	s4,176(sp)
   135c0:	f556                	sd	s5,168(sp)
   135c2:	f15a                	sd	s6,160(sp)
   135c4:	ed5e                	sd	s7,152(sp)
   135c6:	e962                	sd	s8,144(sp)
   135c8:	e566                	sd	s9,136(sp)
   135ca:	e16a                	sd	s10,128(sp)
   135cc:	fcee                	sd	s11,120(sp)
   135ce:	b4a2                	fsd	fs0,104(sp)
   135d0:	b0a6                	fsd	fs1,96(sp)
   135d2:	acca                	fsd	fs2,88(sp)
   135d4:	a8ce                	fsd	fs3,80(sp)
   135d6:	a4d2                	fsd	fs4,72(sp)
   135d8:	a0d6                	fsd	fs5,64(sp)
   135da:	bc5a                	fsd	fs6,56(sp)
   135dc:	b85e                	fsd	fs7,48(sp)
   135de:	b462                	fsd	fs8,40(sp)
   135e0:	842a                	mv	s0,a0
   135e2:	4785                	li	a5,1
   135e4:	0ef52023          	sw	a5,224(a0)
   135e8:	0ef52223          	sw	a5,228(a0)
   135ec:	4d74                	lw	a3,92(a0)
   135ee:	4705                	li	a4,1
   135f0:	0006861b          	sext.w	a2,a3
   135f4:	00c7d363          	bge	a5,a2,135fa <_ZN8JpegInfo11getYCCArrayEv+0x48>
   135f8:	8736                	mv	a4,a3
   135fa:	5034                	lw	a3,96(s0)
   135fc:	87ba                	mv	a5,a4
   135fe:	2701                	sext.w	a4,a4
   13600:	00d75363          	bge	a4,a3,13606 <_ZN8JpegInfo11getYCCArrayEv+0x54>
   13604:	87b6                	mv	a5,a3
   13606:	5078                	lw	a4,100(s0)
   13608:	85be                	mv	a1,a5
   1360a:	2781                	sext.w	a5,a5
   1360c:	00e7d363          	bge	a5,a4,13612 <_ZN8JpegInfo11getYCCArrayEv+0x60>
   13610:	85ba                	mv	a1,a4
   13612:	2581                	sext.w	a1,a1
   13614:	5434                	lw	a3,104(s0)
   13616:	0e442783          	lw	a5,228(s0)
   1361a:	873e                	mv	a4,a5
   1361c:	2781                	sext.w	a5,a5
   1361e:	00d7d363          	bge	a5,a3,13624 <_ZN8JpegInfo11getYCCArrayEv+0x72>
   13622:	8736                	mv	a4,a3
   13624:	5474                	lw	a3,108(s0)
   13626:	87ba                	mv	a5,a4
   13628:	2701                	sext.w	a4,a4
   1362a:	00d75363          	bge	a4,a3,13630 <_ZN8JpegInfo11getYCCArrayEv+0x7e>
   1362e:	87b6                	mv	a5,a3
   13630:	5834                	lw	a3,112(s0)
   13632:	873e                	mv	a4,a5
   13634:	2781                	sext.w	a5,a5
   13636:	00d7d363          	bge	a5,a3,1363c <_ZN8JpegInfo11getYCCArrayEv+0x8a>
   1363a:	8736                	mv	a4,a3
   1363c:	0007061b          	sext.w	a2,a4
   13640:	0eb42023          	sw	a1,224(s0)
   13644:	0ee42223          	sw	a4,228(s0)
   13648:	11c1a783          	lw	a5,284(gp) # 3a02c <verbose>
   1364c:	e3b9                	bnez	a5,13692 <_ZN8JpegInfo11getYCCArrayEv+0xe0>
   1364e:	02c42a83          	lw	s5,44(s0)
   13652:	007afd93          	andi	s11,s5,7
   13656:	0e042b83          	lw	s7,224(s0)
   1365a:	037acd3b          	divw	s10,s5,s7
   1365e:	02842a03          	lw	s4,40(s0)
   13662:	007a7c93          	andi	s9,s4,7
   13666:	0e442b03          	lw	s6,228(s0)
   1366a:	036a47bb          	divw	a5,s4,s6
   1366e:	e03e                	sd	a5,0(sp)
   13670:	05c40493          	addi	s1,s0,92
   13674:	09840993          	addi	s3,s0,152
   13678:	06840793          	addi	a5,s0,104
   1367c:	e43e                	sd	a5,8(sp)
   1367e:	e301b987          	fld	fs3,-464(gp) # 39d40 <__SDATA_BEGIN__+0x8>
   13682:	4c05                	li	s8,1
   13684:	233984d3          	fmv.d	fs1,fs3
   13688:	23398953          	fmv.d	fs2,fs3
   1368c:	23398453          	fmv.d	fs0,fs3
   13690:	a881                	j	136e0 <_ZN8JpegInfo11getYCCArrayEv+0x12e>
   13692:	0002e537          	lui	a0,0x2e
   13696:	23050513          	addi	a0,a0,560 # 2e230 <__clzdi2+0x3fc>
   1369a:	1c5100ef          	jal	2405e <printf>
   1369e:	bf45                	j	1364e <_ZN8JpegInfo11getYCCArrayEv+0x9c>
   136a0:	00c92703          	lw	a4,12(s2)
   136a4:	0367c7bb          	divw	a5,a5,s6
   136a8:	02e787bb          	mulw	a5,a5,a4
   136ac:	0007869b          	sext.w	a3,a5
   136b0:	06f92023          	sw	a5,96(s2)
   136b4:	6602                	ld	a2,0(sp)
   136b6:	02c7073b          	mulw	a4,a4,a2
   136ba:	00d70463          	beq	a4,a3,136c2 <_ZN8JpegInfo11getYCCArrayEv+0x110>
   136be:	018981a3          	sb	s8,3(s3)
   136c2:	d2078553          	fcvt.d.w	fa0,a5
   136c6:	12857553          	fmul.d	fa0,fa0,fs0
   136ca:	1f10a0ef          	jal	1e0ba <ceil>
   136ce:	c20517d3          	fcvt.w.d	a5,fa0,rtz
   136d2:	06f92c23          	sw	a5,120(s2)
   136d6:	0491                	addi	s1,s1,4
   136d8:	0985                	addi	s3,s3,1
   136da:	67a2                	ld	a5,8(sp)
   136dc:	06978663          	beq	a5,s1,13748 <_ZN8JpegInfo11getYCCArrayEv+0x196>
   136e0:	87d6                	mv	a5,s5
   136e2:	000d8c63          	beqz	s11,136fa <_ZN8JpegInfo11getYCCArrayEv+0x148>
   136e6:	d20a8553          	fcvt.d.w	fa0,s5
   136ea:	13357553          	fmul.d	fa0,fa0,fs3
   136ee:	1cd0a0ef          	jal	1e0ba <ceil>
   136f2:	c20517d3          	fcvt.w.d	a5,fa0,rtz
   136f6:	0037979b          	slliw	a5,a5,0x3
   136fa:	8926                	mv	s2,s1
   136fc:	4098                	lw	a4,0(s1)
   136fe:	0377c7bb          	divw	a5,a5,s7
   13702:	02e787bb          	mulw	a5,a5,a4
   13706:	0007869b          	sext.w	a3,a5
   1370a:	c8fc                	sw	a5,84(s1)
   1370c:	03a7073b          	mulw	a4,a4,s10
   13710:	00d70463          	beq	a4,a3,13718 <_ZN8JpegInfo11getYCCArrayEv+0x166>
   13714:	01898023          	sb	s8,0(s3)
   13718:	d2078553          	fcvt.d.w	fa0,a5
   1371c:	12957553          	fmul.d	fa0,fa0,fs1
   13720:	19b0a0ef          	jal	1e0ba <ceil>
   13724:	c20517d3          	fcvt.w.d	a5,fa0,rtz
   13728:	06f92623          	sw	a5,108(s2)
   1372c:	87d2                	mv	a5,s4
   1372e:	f60c89e3          	beqz	s9,136a0 <_ZN8JpegInfo11getYCCArrayEv+0xee>
   13732:	d20a0553          	fcvt.d.w	fa0,s4
   13736:	13257553          	fmul.d	fa0,fa0,fs2
   1373a:	1810a0ef          	jal	1e0ba <ceil>
   1373e:	c20517d3          	fcvt.w.d	a5,fa0,rtz
   13742:	0037979b          	slliw	a5,a5,0x3
   13746:	bfa9                	j	136a0 <_ZN8JpegInfo11getYCCArrayEv+0xee>
   13748:	4561                	li	a0,24
   1374a:	124010ef          	jal	1486e <_Znwm>
   1374e:	8aaa                	mv	s5,a0
   13750:	0bc42503          	lw	a0,188(s0)
   13754:	0b042703          	lw	a4,176(s0)
   13758:	0002f7b7          	lui	a5,0x2f
   1375c:	66878793          	addi	a5,a5,1640 # 2f668 <_ZTV6MatrixIfE+0x10>
   13760:	00fab023          	sd	a5,0(s5)
   13764:	00eaa823          	sw	a4,16(s5)
   13768:	00aaaa23          	sw	a0,20(s5)
   1376c:	02e5053b          	mulw	a0,a0,a4
   13770:	57dd                	li	a5,-9
   13772:	838d                	srli	a5,a5,0x3
   13774:	04a7e363          	bltu	a5,a0,137ba <_ZN8JpegInfo11getYCCArrayEv+0x208>
   13778:	050a                	slli	a0,a0,0x2
   1377a:	13c010ef          	jal	148b6 <_Znam>
   1377e:	00aab423          	sd	a0,8(s5)
   13782:	4561                	li	a0,24
   13784:	0ea010ef          	jal	1486e <_Znwm>
   13788:	8a2a                	mv	s4,a0
   1378a:	0bc42503          	lw	a0,188(s0)
   1378e:	0b042703          	lw	a4,176(s0)
   13792:	0002f7b7          	lui	a5,0x2f
   13796:	66878793          	addi	a5,a5,1640 # 2f668 <_ZTV6MatrixIfE+0x10>
   1379a:	00fa3023          	sd	a5,0(s4)
   1379e:	00ea2823          	sw	a4,16(s4)
   137a2:	00aa2a23          	sw	a0,20(s4)
   137a6:	02e5053b          	mulw	a0,a0,a4
   137aa:	57dd                	li	a5,-9
   137ac:	838d                	srli	a5,a5,0x3
   137ae:	04a7ee63          	bltu	a5,a0,1380a <_ZN8JpegInfo11getYCCArrayEv+0x258>
   137b2:	050a                	slli	a0,a0,0x2
   137b4:	102010ef          	jal	148b6 <_Znam>
   137b8:	a819                	j	137ce <_ZN8JpegInfo11getYCCArrayEv+0x21c>
   137ba:	97bfc0ef          	jal	10134 <__cxa_throw_bad_array_new_length>
   137be:	842a                	mv	s0,a0
   137c0:	45e1                	li	a1,24
   137c2:	8556                	mv	a0,s5
   137c4:	06d000ef          	jal	14030 <_ZdlPvm>
   137c8:	8522                	mv	a0,s0
   137ca:	1450d0ef          	jal	2110e <_Unwind_Resume>
   137ce:	00aa3423          	sd	a0,8(s4)
   137d2:	4561                	li	a0,24
   137d4:	09a010ef          	jal	1486e <_Znwm>
   137d8:	89aa                	mv	s3,a0
   137da:	0bc42503          	lw	a0,188(s0)
   137de:	0b042703          	lw	a4,176(s0)
   137e2:	0002f7b7          	lui	a5,0x2f
   137e6:	66878793          	addi	a5,a5,1640 # 2f668 <_ZTV6MatrixIfE+0x10>
   137ea:	00f9b023          	sd	a5,0(s3)
   137ee:	00e9a823          	sw	a4,16(s3)
   137f2:	00a9aa23          	sw	a0,20(s3)
   137f6:	02e5053b          	mulw	a0,a0,a4
   137fa:	57dd                	li	a5,-9
   137fc:	838d                	srli	a5,a5,0x3
   137fe:	08a7e863          	bltu	a5,a0,1388e <_ZN8JpegInfo11getYCCArrayEv+0x2dc>
   13802:	050a                	slli	a0,a0,0x2
   13804:	0b2010ef          	jal	148b6 <_Znam>
   13808:	a819                	j	1381e <_ZN8JpegInfo11getYCCArrayEv+0x26c>
   1380a:	92bfc0ef          	jal	10134 <__cxa_throw_bad_array_new_length>
   1380e:	842a                	mv	s0,a0
   13810:	45e1                	li	a1,24
   13812:	8552                	mv	a0,s4
   13814:	01d000ef          	jal	14030 <_ZdlPvm>
   13818:	8522                	mv	a0,s0
   1381a:	0f50d0ef          	jal	2110e <_Unwind_Resume>
   1381e:	00a9b423          	sd	a0,8(s3)
   13822:	03543c23          	sd	s5,56(s0)
   13826:	05343023          	sd	s3,64(s0)
   1382a:	05443423          	sd	s4,72(s0)
   1382e:	1081ab03          	lw	s6,264(gp) # 3a018 <useCustomInstructionsForYUV>
   13832:	020b1163          	bnez	s6,13854 <_ZN8JpegInfo11getYCCArrayEv+0x2a2>
   13836:	541c                	lw	a5,40(s0)
   13838:	895a                	mv	s2,s6
   1383a:	02f05263          	blez	a5,1385e <_ZN8JpegInfo11getYCCArrayEv+0x2ac>
   1383e:	e601bc07          	fld	fs8,-416(gp) # 39d70 <__SDATA_BEGIN__+0x38>
   13842:	e681bb87          	fld	fs7,-408(gp) # 39d78 <__SDATA_BEGIN__+0x40>
   13846:	e701bb07          	fld	fs6,-400(gp) # 39d80 <__SDATA_BEGIN__+0x48>
   1384a:	e781ba87          	fld	fs5,-392(gp) # 39d88 <__SDATA_BEGIN__+0x50>
   1384e:	e801ba07          	fld	fs4,-384(gp) # 39d90 <__SDATA_BEGIN__+0x58>
   13852:	aae1                	j	13a2a <_ZN8JpegInfo11getYCCArrayEv+0x478>
   13854:	541c                	lw	a5,40(s0)
   13856:	4901                	li	s2,0
   13858:	4b01                	li	s6,0
   1385a:	0af04b63          	bgtz	a5,13910 <_ZN8JpegInfo11getYCCArrayEv+0x35e>
   1385e:	60ee                	ld	ra,216(sp)
   13860:	644e                	ld	s0,208(sp)
   13862:	64ae                	ld	s1,200(sp)
   13864:	690e                	ld	s2,192(sp)
   13866:	79ea                	ld	s3,184(sp)
   13868:	7a4a                	ld	s4,176(sp)
   1386a:	7aaa                	ld	s5,168(sp)
   1386c:	7b0a                	ld	s6,160(sp)
   1386e:	6bea                	ld	s7,152(sp)
   13870:	6c4a                	ld	s8,144(sp)
   13872:	6caa                	ld	s9,136(sp)
   13874:	6d0a                	ld	s10,128(sp)
   13876:	7de6                	ld	s11,120(sp)
   13878:	3426                	fld	fs0,104(sp)
   1387a:	3486                	fld	fs1,96(sp)
   1387c:	2966                	fld	fs2,88(sp)
   1387e:	29c6                	fld	fs3,80(sp)
   13880:	2a26                	fld	fs4,72(sp)
   13882:	2a86                	fld	fs5,64(sp)
   13884:	3b62                	fld	fs6,56(sp)
   13886:	3bc2                	fld	fs7,48(sp)
   13888:	3c22                	fld	fs8,40(sp)
   1388a:	612d                	addi	sp,sp,224
   1388c:	8082                	ret
   1388e:	8a7fc0ef          	jal	10134 <__cxa_throw_bad_array_new_length>
   13892:	842a                	mv	s0,a0
   13894:	45e1                	li	a1,24
   13896:	854e                	mv	a0,s3
   13898:	798000ef          	jal	14030 <_ZdlPvm>
   1389c:	8522                	mv	a0,s0
   1389e:	0710d0ef          	jal	2110e <_Unwind_Resume>
   138a2:	7008                	ld	a0,32(s0)
   138a4:	611c                	ld	a5,0(a0)
   138a6:	6b9c                	ld	a5,16(a5)
   138a8:	864a                	mv	a2,s2
   138aa:	85a6                	mv	a1,s1
   138ac:	9782                	jalr	a5
   138ae:	00a5078b          	.insn	4, 0x00a5078b
   138b2:	00a5070b          	.insn	4, 0x00a5070b
   138b6:	00a5078b          	.insn	4, 0x00a5078b
   138ba:	010aa783          	lw	a5,16(s5)
   138be:	032787bb          	mulw	a5,a5,s2
   138c2:	9fa5                	addw	a5,a5,s1
   138c4:	008ab703          	ld	a4,8(s5)
   138c8:	078a                	slli	a5,a5,0x2
   138ca:	97ba                	add	a5,a5,a4
   138cc:	d00976d3          	fcvt.s.w	fa3,s2
   138d0:	00d7a027          	fsw	fa3,0(a5)
   138d4:	0109a783          	lw	a5,16(s3)
   138d8:	032787bb          	mulw	a5,a5,s2
   138dc:	9fa5                	addw	a5,a5,s1
   138de:	0089b703          	ld	a4,8(s3)
   138e2:	078a                	slli	a5,a5,0x2
   138e4:	97ba                	add	a5,a5,a4
   138e6:	00e7a027          	fsw	fa4,0(a5)
   138ea:	010a2783          	lw	a5,16(s4)
   138ee:	032787bb          	mulw	a5,a5,s2
   138f2:	9fa5                	addw	a5,a5,s1
   138f4:	008a3703          	ld	a4,8(s4)
   138f8:	078a                	slli	a5,a5,0x2
   138fa:	97ba                	add	a5,a5,a4
   138fc:	00f7a027          	fsw	fa5,0(a5)
   13900:	2485                	addiw	s1,s1,1
   13902:	545c                	lw	a5,44(s0)
   13904:	f8f4cfe3          	blt	s1,a5,138a2 <_ZN8JpegInfo11getYCCArrayEv+0x2f0>
   13908:	2905                	addiw	s2,s2,1
   1390a:	541c                	lw	a5,40(s0)
   1390c:	f4f959e3          	bge	s2,a5,1385e <_ZN8JpegInfo11getYCCArrayEv+0x2ac>
   13910:	545c                	lw	a5,44(s0)
   13912:	84da                	mv	s1,s6
   13914:	f8f047e3          	bgtz	a5,138a2 <_ZN8JpegInfo11getYCCArrayEv+0x2f0>
   13918:	bfc5                	j	13908 <_ZN8JpegInfo11getYCCArrayEv+0x356>
   1391a:	7008                	ld	a0,32(s0)
   1391c:	611c                	ld	a5,0(a0)
   1391e:	0187b803          	ld	a6,24(a5)
   13922:	085c                	addi	a5,sp,20
   13924:	0838                	addi	a4,sp,24
   13926:	0874                	addi	a3,sp,28
   13928:	864a                	mv	a2,s2
   1392a:	85a6                	mv	a1,s1
   1392c:	9802                	jalr	a6
   1392e:	010aa783          	lw	a5,16(s5)
   13932:	032787bb          	mulw	a5,a5,s2
   13936:	9fa5                	addw	a5,a5,s1
   13938:	008ab703          	ld	a4,8(s5)
   1393c:	078a                	slli	a5,a5,0x2
   1393e:	97ba                	add	a5,a5,a4
   13940:	4772                	lw	a4,28(sp)
   13942:	d00777d3          	fcvt.s.w	fa5,a4
   13946:	420787d3          	fcvt.d.s	fa5,fa5
   1394a:	1387f7d3          	fmul.d	fa5,fa5,fs8
   1394e:	4762                	lw	a4,24(sp)
   13950:	d0077753          	fcvt.s.w	fa4,a4
   13954:	42070753          	fcvt.d.s	fa4,fa4
   13958:	13777753          	fmul.d	fa4,fa4,fs7
   1395c:	02e7f7d3          	fadd.d	fa5,fa5,fa4
   13960:	4752                	lw	a4,20(sp)
   13962:	d0077753          	fcvt.s.w	fa4,a4
   13966:	42070753          	fcvt.d.s	fa4,fa4
   1396a:	13677753          	fmul.d	fa4,fa4,fs6
   1396e:	02e7f7d3          	fadd.d	fa5,fa5,fa4
   13972:	4017f7d3          	fcvt.s.d	fa5,fa5
   13976:	00f7a027          	fsw	fa5,0(a5)
   1397a:	0109a783          	lw	a5,16(s3)
   1397e:	032787bb          	mulw	a5,a5,s2
   13982:	9fa5                	addw	a5,a5,s1
   13984:	0089b703          	ld	a4,8(s3)
   13988:	078a                	slli	a5,a5,0x2
   1398a:	97ba                	add	a5,a5,a4
   1398c:	4772                	lw	a4,28(sp)
   1398e:	d00777d3          	fcvt.s.w	fa5,a4
   13992:	420787d3          	fcvt.d.s	fa5,fa5
   13996:	1357f7d3          	fmul.d	fa5,fa5,fs5
   1399a:	4762                	lw	a4,24(sp)
   1399c:	d0077753          	fcvt.s.w	fa4,a4
   139a0:	42070753          	fcvt.d.s	fa4,fa4
   139a4:	13477753          	fmul.d	fa4,fa4,fs4
   139a8:	0ae7f7d3          	fsub.d	fa5,fa5,fa4
   139ac:	4752                	lw	a4,20(sp)
   139ae:	d0077753          	fcvt.s.w	fa4,a4
   139b2:	42070753          	fcvt.d.s	fa4,fa4
   139b6:	12977753          	fmul.d	fa4,fa4,fs1
   139ba:	02e7f7d3          	fadd.d	fa5,fa5,fa4
   139be:	4017f7d3          	fcvt.s.d	fa5,fa5
   139c2:	0087f7d3          	fadd.s	fa5,fa5,fs0
   139c6:	00f7a027          	fsw	fa5,0(a5)
   139ca:	010a2783          	lw	a5,16(s4)
   139ce:	032787bb          	mulw	a5,a5,s2
   139d2:	9fa5                	addw	a5,a5,s1
   139d4:	008a3703          	ld	a4,8(s4)
   139d8:	078a                	slli	a5,a5,0x2
   139da:	97ba                	add	a5,a5,a4
   139dc:	4772                	lw	a4,28(sp)
   139de:	d00777d3          	fcvt.s.w	fa5,a4
   139e2:	420787d3          	fcvt.d.s	fa5,fa5
   139e6:	1297f7d3          	fmul.d	fa5,fa5,fs1
   139ea:	4762                	lw	a4,24(sp)
   139ec:	d0077753          	fcvt.s.w	fa4,a4
   139f0:	42070753          	fcvt.d.s	fa4,fa4
   139f4:	13377753          	fmul.d	fa4,fa4,fs3
   139f8:	0ae7f7d3          	fsub.d	fa5,fa5,fa4
   139fc:	4752                	lw	a4,20(sp)
   139fe:	d0077753          	fcvt.s.w	fa4,a4
   13a02:	42070753          	fcvt.d.s	fa4,fa4
   13a06:	13277753          	fmul.d	fa4,fa4,fs2
   13a0a:	0ae7f7d3          	fsub.d	fa5,fa5,fa4
   13a0e:	4017f7d3          	fcvt.s.d	fa5,fa5
   13a12:	0087f7d3          	fadd.s	fa5,fa5,fs0
   13a16:	00f7a027          	fsw	fa5,0(a5)
   13a1a:	2485                	addiw	s1,s1,1
   13a1c:	545c                	lw	a5,44(s0)
   13a1e:	eef4cee3          	blt	s1,a5,1391a <_ZN8JpegInfo11getYCCArrayEv+0x368>
   13a22:	2905                	addiw	s2,s2,1
   13a24:	541c                	lw	a5,40(s0)
   13a26:	e2f95ce3          	bge	s2,a5,1385e <_ZN8JpegInfo11getYCCArrayEv+0x2ac>
   13a2a:	545c                	lw	a5,44(s0)
   13a2c:	84da                	mv	s1,s6
   13a2e:	fef05ae3          	blez	a5,13a22 <_ZN8JpegInfo11getYCCArrayEv+0x470>
   13a32:	e881b487          	fld	fs1,-376(gp) # 39d98 <__SDATA_BEGIN__+0x60>
   13a36:	0101a407          	flw	fs0,16(gp) # 39f20 <__global_pointer$+0x10>
   13a3a:	e901b987          	fld	fs3,-368(gp) # 39da0 <__SDATA_BEGIN__+0x68>
   13a3e:	e981b907          	fld	fs2,-360(gp) # 39da8 <__SDATA_BEGIN__+0x70>
   13a42:	bde1                	j	1391a <_ZN8JpegInfo11getYCCArrayEv+0x368>

0000000000013a44 <_ZN8JpegInfoC1EP5Image>:
   13a44:	1101                	addi	sp,sp,-32
   13a46:	ec06                	sd	ra,24(sp)
   13a48:	e822                	sd	s0,16(sp)
   13a4a:	e426                	sd	s1,8(sp)
   13a4c:	842a                	mv	s0,a0
   13a4e:	84ae                	mv	s1,a1
   13a50:	01050793          	addi	a5,a0,16
   13a54:	e11c                	sd	a5,0(a0)
   13a56:	00053423          	sd	zero,8(a0)
   13a5a:	00050823          	sb	zero,16(a0)
   13a5e:	f10c                	sd	a1,32(a0)
   13a60:	619c                	ld	a5,0(a1)
   13a62:	639c                	ld	a5,0(a5)
   13a64:	852e                	mv	a0,a1
   13a66:	9782                	jalr	a5
   13a68:	d448                	sw	a0,44(s0)
   13a6a:	609c                	ld	a5,0(s1)
   13a6c:	679c                	ld	a5,8(a5)
   13a6e:	8526                	mv	a0,s1
   13a70:	9782                	jalr	a5
   13a72:	d408                	sw	a0,40(s0)
   13a74:	4779                	li	a4,30
   13a76:	0002e6b7          	lui	a3,0x2e
   13a7a:	25068693          	addi	a3,a3,592 # 2e250 <__clzdi2+0x41c>
   13a7e:	6410                	ld	a2,8(s0)
   13a80:	4581                	li	a1,0
   13a82:	8522                	mv	a0,s0
   13a84:	491010ef          	jal	15714 <_ZNSt7__cxx1112basic_stringIcSt11char_traitsIcESaIcEE10_M_replaceEmmPKcm>
   13a88:	11c1a783          	lw	a5,284(gp) # 3a02c <verbose>
   13a8c:	efbd                	bnez	a5,13b0a <_ZN8JpegInfoC1EP5Image+0xc6>
   13a8e:	4785                	li	a5,1
   13a90:	c83c                	sw	a5,80(s0)
   13a92:	4709                	li	a4,2
   13a94:	c878                	sw	a4,84(s0)
   13a96:	470d                	li	a4,3
   13a98:	cc38                	sw	a4,88(s0)
   13a9a:	cc7c                	sw	a5,92(s0)
   13a9c:	d03c                	sw	a5,96(s0)
   13a9e:	d07c                	sw	a5,100(s0)
   13aa0:	d43c                	sw	a5,104(s0)
   13aa2:	d47c                	sw	a5,108(s0)
   13aa4:	d83c                	sw	a5,112(s0)
   13aa6:	06042a23          	sw	zero,116(s0)
   13aaa:	dc3c                	sw	a5,120(s0)
   13aac:	dc7c                	sw	a5,124(s0)
   13aae:	08042023          	sw	zero,128(s0)
   13ab2:	08f42223          	sw	a5,132(s0)
   13ab6:	08f42423          	sw	a5,136(s0)
   13aba:	08042623          	sw	zero,140(s0)
   13abe:	08f42823          	sw	a5,144(s0)
   13ac2:	08f42a23          	sw	a5,148(s0)
   13ac6:	08040c23          	sb	zero,152(s0)
   13aca:	08040ca3          	sb	zero,153(s0)
   13ace:	08040d23          	sb	zero,154(s0)
   13ad2:	08040da3          	sb	zero,155(s0)
   13ad6:	08040e23          	sb	zero,156(s0)
   13ada:	08040ea3          	sb	zero,157(s0)
   13ade:	0a042023          	sw	zero,160(s0)
   13ae2:	03f00793          	li	a5,63
   13ae6:	0af42223          	sw	a5,164(s0)
   13aea:	0a042423          	sw	zero,168(s0)
   13aee:	0a042623          	sw	zero,172(s0)
   13af2:	47a1                	li	a5,8
   13af4:	d81c                	sw	a5,48(s0)
   13af6:	11c1a783          	lw	a5,284(gp) # 3a02c <verbose>
   13afa:	c38d                	beqz	a5,13b1c <_ZN8JpegInfoC1EP5Image+0xd8>
   13afc:	0002e537          	lui	a0,0x2e
   13b00:	28850513          	addi	a0,a0,648 # 2e288 <__clzdi2+0x454>
   13b04:	6e6100ef          	jal	241ea <puts>
   13b08:	a811                	j	13b1c <_ZN8JpegInfoC1EP5Image+0xd8>
   13b0a:	5410                	lw	a2,40(s0)
   13b0c:	544c                	lw	a1,44(s0)
   13b0e:	0002e537          	lui	a0,0x2e
   13b12:	27050513          	addi	a0,a0,624 # 2e270 <__clzdi2+0x43c>
   13b16:	548100ef          	jal	2405e <printf>
   13b1a:	bf95                	j	13a8e <_ZN8JpegInfoC1EP5Image+0x4a>
   13b1c:	8522                	mv	a0,s0
   13b1e:	a95ff0ef          	jal	135b2 <_ZN8JpegInfo11getYCCArrayEv>
   13b22:	a801                	j	13b32 <_ZN8JpegInfoC1EP5Image+0xee>
   13b24:	84aa                	mv	s1,a0
   13b26:	8522                	mv	a0,s0
   13b28:	320010ef          	jal	14e48 <_ZNSt7__cxx1112basic_stringIcSt11char_traitsIcESaIcEE10_M_disposeEv>
   13b2c:	8526                	mv	a0,s1
   13b2e:	5e00d0ef          	jal	2110e <_Unwind_Resume>
   13b32:	60e2                	ld	ra,24(sp)
   13b34:	6442                	ld	s0,16(sp)
   13b36:	64a2                	ld	s1,8(sp)
   13b38:	6105                	addi	sp,sp,32
   13b3a:	8082                	ret

0000000000013b3c <_ZN6MatrixIfED1Ev>:
   13b3c:	0002f7b7          	lui	a5,0x2f
   13b40:	66878793          	addi	a5,a5,1640 # 2f668 <_ZTV6MatrixIfE+0x10>
   13b44:	e11c                	sd	a5,0(a0)
   13b46:	6508                	ld	a0,8(a0)
   13b48:	c901                	beqz	a0,13b58 <_ZN6MatrixIfED1Ev+0x1c>
   13b4a:	1141                	addi	sp,sp,-16
   13b4c:	e406                	sd	ra,8(sp)
   13b4e:	4e6000ef          	jal	14034 <_ZdaPv>
   13b52:	60a2                	ld	ra,8(sp)
   13b54:	0141                	addi	sp,sp,16
   13b56:	8082                	ret
   13b58:	8082                	ret

0000000000013b5a <_ZN6MatrixIfED0Ev>:
   13b5a:	1141                	addi	sp,sp,-16
   13b5c:	e406                	sd	ra,8(sp)
   13b5e:	e022                	sd	s0,0(sp)
   13b60:	842a                	mv	s0,a0
   13b62:	0002f7b7          	lui	a5,0x2f
   13b66:	66878793          	addi	a5,a5,1640 # 2f668 <_ZTV6MatrixIfE+0x10>
   13b6a:	e11c                	sd	a5,0(a0)
   13b6c:	6508                	ld	a0,8(a0)
   13b6e:	c119                	beqz	a0,13b74 <_ZN6MatrixIfED0Ev+0x1a>
   13b70:	4c4000ef          	jal	14034 <_ZdaPv>
   13b74:	45e1                	li	a1,24
   13b76:	8522                	mv	a0,s0
   13b78:	4b8000ef          	jal	14030 <_ZdlPvm>
   13b7c:	60a2                	ld	ra,8(sp)
   13b7e:	6402                	ld	s0,0(sp)
   13b80:	0141                	addi	sp,sp,16
   13b82:	8082                	ret

0000000000013b84 <_ZN12OutputStream5flushEv>:
   13b84:	8082                	ret

0000000000013b86 <_ZN12OutputStream5writeEPhii>:
   13b86:	1141                	addi	sp,sp,-16
   13b88:	e406                	sd	ra,8(sp)
   13b8a:	0002e537          	lui	a0,0x2e
   13b8e:	29850513          	addi	a0,a0,664 # 2e298 <__clzdi2+0x464>
   13b92:	658100ef          	jal	241ea <puts>
   13b96:	60a2                	ld	ra,8(sp)
   13b98:	0141                	addi	sp,sp,16
   13b9a:	8082                	ret

0000000000013b9c <_ZN20BufferedOutputStream5writeEi>:
   13b9c:	1101                	addi	sp,sp,-32
   13b9e:	ec06                	sd	ra,24(sp)
   13ba0:	e822                	sd	s0,16(sp)
   13ba2:	e426                	sd	s1,8(sp)
   13ba4:	842a                	mv	s0,a0
   13ba6:	84ae                	mv	s1,a1
   13ba8:	4d1c                	lw	a5,24(a0)
   13baa:	4d58                	lw	a4,28(a0)
   13bac:	00e7de63          	bge	a5,a4,13bc8 <_ZN20BufferedOutputStream5writeEi+0x2c>
   13bb0:	6918                	ld	a4,16(a0)
   13bb2:	0017869b          	addiw	a3,a5,1
   13bb6:	cd14                	sw	a3,24(a0)
   13bb8:	97ba                	add	a5,a5,a4
   13bba:	00b78023          	sb	a1,0(a5)
   13bbe:	60e2                	ld	ra,24(sp)
   13bc0:	6442                	ld	s0,16(sp)
   13bc2:	64a2                	ld	s1,8(sp)
   13bc4:	6105                	addi	sp,sp,32
   13bc6:	8082                	ret
   13bc8:	611c                	ld	a5,0(a0)
   13bca:	639c                	ld	a5,0(a5)
   13bcc:	9782                	jalr	a5
   13bce:	681c                	ld	a5,16(s0)
   13bd0:	4c18                	lw	a4,24(s0)
   13bd2:	0017069b          	addiw	a3,a4,1
   13bd6:	cc14                	sw	a3,24(s0)
   13bd8:	97ba                	add	a5,a5,a4
   13bda:	00978023          	sb	s1,0(a5)
   13bde:	b7c5                	j	13bbe <_ZN20BufferedOutputStream5writeEi+0x22>

0000000000013be0 <_ZN20BufferedOutputStream5flushEv>:
   13be0:	1141                	addi	sp,sp,-16
   13be2:	e406                	sd	ra,8(sp)
   13be4:	e022                	sd	s0,0(sp)
   13be6:	842a                	mv	s0,a0
   13be8:	6508                	ld	a0,8(a0)
   13bea:	611c                	ld	a5,0(a0)
   13bec:	679c                	ld	a5,8(a5)
   13bee:	4c14                	lw	a3,24(s0)
   13bf0:	4601                	li	a2,0
   13bf2:	680c                	ld	a1,16(s0)
   13bf4:	9782                	jalr	a5
   13bf6:	00042c23          	sw	zero,24(s0)
   13bfa:	60a2                	ld	ra,8(sp)
   13bfc:	6402                	ld	s0,0(sp)
   13bfe:	0141                	addi	sp,sp,16
   13c00:	8082                	ret

0000000000013c02 <_ZN20BufferedOutputStream5writeEPhii>:
   13c02:	1101                	addi	sp,sp,-32
   13c04:	ec06                	sd	ra,24(sp)
   13c06:	e426                	sd	s1,8(sp)
   13c08:	84aa                	mv	s1,a0
   13c0a:	4d1c                	lw	a5,24(a0)
   13c0c:	9fb5                	addw	a5,a5,a3
   13c0e:	4d58                	lw	a4,28(a0)
   13c10:	02e7c963          	blt	a5,a4,13c42 <_ZN20BufferedOutputStream5writeEPhii+0x40>
   13c14:	e822                	sd	s0,16(sp)
   13c16:	e04a                	sd	s2,0(sp)
   13c18:	00c58433          	add	s0,a1,a2
   13c1c:	00d40933          	add	s2,s0,a3
   13c20:	00d05e63          	blez	a3,13c3c <_ZN20BufferedOutputStream5writeEPhii+0x3a>
   13c24:	609c                	ld	a5,0(s1)
   13c26:	6b9c                	ld	a5,16(a5)
   13c28:	00044583          	lbu	a1,0(s0)
